PARTICIPANT_ID	TEST_SECTION_ID	SENTENCE	USER_INPUT	KEYSTROKE_ID	PRESS_TIME	RELEASE_TIME	LETTER	KEYCODE
6174	66302	Let me know if you have any questions.	Let me know if you have any questions.	3153734	1471999745516	1471999745810	SHIFT	16
6174	66302	Let me know if you have any questions.	Let me know if you have any questions.	3153739	1471999745696	1471999745867	L	76
6174	66302	Let me know if you have any questions.	Let me know if you have any questions.	3153744	1471999745835	1471999745937	e	69
6174	66302	Let me know if you have any questions.	Let me know if you have any questions.	3153750	1471999745988	1471999746136	t	84
6174	66302	Let me know if you have any questions.	Let me know if you have any questions.	3153757	1471999746102	1471999746194	 	32
6174	66302	Let me know if you have any questions.	Let me know if you have any questions.	3153764	1471999746284	1471999746382	m	77
6174	66302	Let me know if you have any questions.	Let me know if you have any questions.	3153788	1471999746380	1471999746497	e	69
6174	66302	Let me know if you have any questions.	Let me know if you have any questions.	3153793	1471999746491	1471999746571	 	32
6174	66302	Let me know if you have any questions.	Let me know if you have any questions.	3153798	1471999746636	1471999746768	k	75
6174	66302	Let me know if you have any questions.	Let me know if you have any questions.	3153801	1471999746719	1471999746809	n	78
6174	66302	Let me know if you have any questions.	Let me know if you have any questions.	3153804	1471999746878	1471999746997	o	79
6174	66302	Let me know if you have any questions.	Let me know if you have any questions.	3153842	1471999746974	1471999747107	w	87
6174	66302	Let me know if you have any questions.	Let me know if you have any questions.	3153845	1471999747103	1471999747192	 	32
6174	66302	Let me know if you have any questions.	Let me know if you have any questions.	3153850	1471999747268	1471999747309	i	73
6174	66302	Let me know if you have any questions.	Let me know if you have any questions.	3153854	1471999747348	1471999747449	f	70
6174	66302	Let me know if you have any questions.	Let me know if you have any questions.	3153857	1471999747551	1471999747706	 	32
6174	66302	Let me know if you have any questions.	Let me know if you have any questions.	3153859	1471999747838	1471999747949	y	89
6174	66302	Let me know if you have any questions.	Let me know if you have any questions.	3153874	1471999747990	1471999748138	o	79
6174	66302	Let me know if you have any questions.	Let me know if you have any questions.	3153879	1471999748053	1471999748155	u	85
6174	66302	Let me know if you have any questions.	Let me know if you have any questions.	3153886	1471999748256	1471999748356	 	32
6174	66302	Let me know if you have any questions.	Let me know if you have any questions.	3153891	1471999748394	1471999748502	h	72
6174	66302	Let me know if you have any questions.	Let me know if you have any questions.	3153951	1471999748481	1471999748578	a	65
6174	66302	Let me know if you have any questions.	Let me know if you have any questions.	3153952	1471999748659	1471999748847	v	86
6174	66302	Let me know if you have any questions.	Let me know if you have any questions.	3153955	1471999748767	1471999748920	e	69
6174	66302	Let me know if you have any questions.	Let me know if you have any questions.	3153960	1471999748844	1471999748955	 	32
6174	66302	Let me know if you have any questions.	Let me know if you have any questions.	3153964	1471999749085	1471999749112	a	65
6174	66302	Let me know if you have any questions.	Let me know if you have any questions.	3153971	1471999749332	1471999749487	n	78
6174	66302	Let me know if you have any questions.	Let me know if you have any questions.	3154031	1471999749625	1471999749715	y	89
6174	66302	Let me know if you have any questions.	Let me know if you have any questions.	3154035	1471999749847	1471999749987	 	32
6174	66302	Let me know if you have any questions.	Let me know if you have any questions.	3154039	1471999750122	1471999750188	w	87
6174	66302	Let me know if you have any questions.	Let me know if you have any questions.	3154046	1471999750236	1471999750383	u	85
6174	66302	Let me know if you have any questions.	Let me know if you have any questions.	3154052	1471999750475	1471999750545	e	69
6174	66302	Let me know if you have any questions.	Let me know if you have any questions.	3154120	1471999750715	1471999750776	BKSP	8
6174	66302	Let me know if you have any questions.	Let me know if you have any questions.	3154122	1471999750853	1471999750912	BKSP	8
6174	66302	Let me know if you have any questions.	Let me know if you have any questions.	3154126	1471999750980	1471999751072	BKSP	8
6174	66302	Let me know if you have any questions.	Let me know if you have any questions.	3154132	1471999751095	1471999751179	q	81
6174	66302	Let me know if you have any questions.	Let me know if you have any questions.	3154137	1471999751206	1471999751341	u	85
6174	66302	Let me know if you have any questions.	Let me know if you have any questions.	3154140	1471999751301	1471999751435	e	69
6174	66302	Let me know if you have any questions.	Let me know if you have any questions.	3154147	1471999751408	1471999751553	s	83
6174	66302	Let me know if you have any questions.	Let me know if you have any questions.	3154151	1471999751630	1471999751746	t	84
6174	66302	Let me know if you have any questions.	Let me know if you have any questions.	3154179	1471999751990	1471999752146	i	73
6174	66302	Let me know if you have any questions.	Let me know if you have any questions.	3154185	1471999752148	1471999752348	o	79
6174	66302	Let me know if you have any questions.	Let me know if you have any questions.	3154190	1471999752260	1471999752409	n	78
6174	66302	Let me know if you have any questions.	Let me know if you have any questions.	3154196	1471999752360	1471999752520	s	83
6174	66302	Let me know if you have any questions.	Let me know if you have any questions.	3154200	1471999752546	1471999752656	.	190
6174	66315	Chinese President defended the military crackdown on protesters.	Chinese President defended the military crackdown on protesters.	3154993	1471999764141	1471999764319	SHIFT	16
6174	66315	Chinese President defended the military crackdown on protesters.	Chinese President defended the military crackdown on protesters.	3154997	1471999764255	1471999764402	C	67
6174	66315	Chinese President defended the military crackdown on protesters.	Chinese President defended the military crackdown on protesters.	3155002	1471999764447	1471999764534	h	72
6174	66315	Chinese President defended the military crackdown on protesters.	Chinese President defended the military crackdown on protesters.	3155005	1471999764646	1471999764827	i	73
6174	66315	Chinese President defended the military crackdown on protesters.	Chinese President defended the military crackdown on protesters.	3155008	1471999764743	1471999764894	n	78
6174	66315	Chinese President defended the military crackdown on protesters.	Chinese President defended the military crackdown on protesters.	3155078	1471999764844	1471999764982	e	69
6174	66315	Chinese President defended the military crackdown on protesters.	Chinese President defended the military crackdown on protesters.	3155080	1471999764924	1471999765100	s	83
6174	66315	Chinese President defended the military crackdown on protesters.	Chinese President defended the military crackdown on protesters.	3155084	1471999765336	1471999765467	e	69
6174	66315	Chinese President defended the military crackdown on protesters.	Chinese President defended the military crackdown on protesters.	3155087	1471999765916	1471999766016	 	32
6174	66315	Chinese President defended the military crackdown on protesters.	Chinese President defended the military crackdown on protesters.	3155090	1471999766151	1471999766422	SHIFT	16
6174	66315	Chinese President defended the military crackdown on protesters.	Chinese President defended the military crackdown on protesters.	3155094	1471999766301	1471999766445	P	80
6174	66315	Chinese President defended the military crackdown on protesters.	Chinese President defended the military crackdown on protesters.	3155153	1471999766425	1471999766620	r	82
6174	66315	Chinese President defended the military crackdown on protesters.	Chinese President defended the military crackdown on protesters.	3155157	1471999766545	1471999766679	e	69
6174	66315	Chinese President defended the military crackdown on protesters.	Chinese President defended the military crackdown on protesters.	3155164	1471999766791	1471999766914	s	83
6174	66315	Chinese President defended the military crackdown on protesters.	Chinese President defended the military crackdown on protesters.	3155172	1471999766931	1471999767028	e	69
6174	66315	Chinese President defended the military crackdown on protesters.	Chinese President defended the military crackdown on protesters.	3155180	1471999767558	1471999767650	BKSP	8
6174	66315	Chinese President defended the military crackdown on protesters.	Chinese President defended the military crackdown on protesters.	3155186	1471999767773	1471999767900	i	73
6174	66315	Chinese President defended the military crackdown on protesters.	Chinese President defended the military crackdown on protesters.	3155210	1471999767892	1471999767996	d	68
6174	66315	Chinese President defended the military crackdown on protesters.	Chinese President defended the military crackdown on protesters.	3155213	1471999768067	1471999768203	e	69
6174	66315	Chinese President defended the military crackdown on protesters.	Chinese President defended the military crackdown on protesters.	3155218	1471999768124	1471999768256	n	78
6174	66315	Chinese President defended the military crackdown on protesters.	Chinese President defended the military crackdown on protesters.	3155225	1471999768340	1471999768462	t	84
6174	66315	Chinese President defended the military crackdown on protesters.	Chinese President defended the military crackdown on protesters.	3155232	1471999768407	1471999768525	 	32
6174	66315	Chinese President defended the military crackdown on protesters.	Chinese President defended the military crackdown on protesters.	3155239	1471999768627	1471999768717	d	68
6174	66315	Chinese President defended the military crackdown on protesters.	Chinese President defended the military crackdown on protesters.	3155272	1471999768817	1471999768916	e	69
6174	66315	Chinese President defended the military crackdown on protesters.	Chinese President defended the military crackdown on protesters.	3155274	1471999769021	1471999769130	f	70
6174	66315	Chinese President defended the military crackdown on protesters.	Chinese President defended the military crackdown on protesters.	3155275	1471999769224	1471999769341	e	69
6174	66315	Chinese President defended the military crackdown on protesters.	Chinese President defended the military crackdown on protesters.	3155278	1471999769375	1471999769509	n	78
6174	66315	Chinese President defended the military crackdown on protesters.	Chinese President defended the military crackdown on protesters.	3155281	1471999769584	1471999769687	d	68
6174	66315	Chinese President defended the military crackdown on protesters.	Chinese President defended the military crackdown on protesters.	3155295	1471999769836	1471999769950	e	69
6174	66315	Chinese President defended the military crackdown on protesters.	Chinese President defended the military crackdown on protesters.	3155299	1471999770048	1471999770174	d	68
6174	66315	Chinese President defended the military crackdown on protesters.	Chinese President defended the military crackdown on protesters.	3155301	1471999770161	1471999770258	 	32
6174	66315	Chinese President defended the military crackdown on protesters.	Chinese President defended the military crackdown on protesters.	3155305	1471999770271	1471999770401	t	84
6174	66315	Chinese President defended the military crackdown on protesters.	Chinese President defended the military crackdown on protesters.	3155363	1471999770352	1471999770463	h	72
6174	66315	Chinese President defended the military crackdown on protesters.	Chinese President defended the military crackdown on protesters.	3155366	1471999770445	1471999770595	e	69
6174	66315	Chinese President defended the military crackdown on protesters.	Chinese President defended the military crackdown on protesters.	3155369	1471999770549	1471999770630	 	32
6174	66315	Chinese President defended the military crackdown on protesters.	Chinese President defended the military crackdown on protesters.	3155372	1471999770714	1471999770824	m	77
6174	66315	Chinese President defended the military crackdown on protesters.	Chinese President defended the military crackdown on protesters.	3155379	1471999770836	1471999770966	i	73
6174	66315	Chinese President defended the military crackdown on protesters.	Chinese President defended the military crackdown on protesters.	3155382	1471999771046	1471999771216	l	76
6174	66315	Chinese President defended the military crackdown on protesters.	Chinese President defended the military crackdown on protesters.	3155456	1471999771179	1471999771347	i	73
6174	66315	Chinese President defended the military crackdown on protesters.	Chinese President defended the military crackdown on protesters.	3155459	1471999771350	1471999771451	t	84
6174	66315	Chinese President defended the military crackdown on protesters.	Chinese President defended the military crackdown on protesters.	3155463	1471999771609	1471999771726	a	65
6174	66315	Chinese President defended the military crackdown on protesters.	Chinese President defended the military crackdown on protesters.	3155465	1471999771810	1471999771937	r	82
6174	66315	Chinese President defended the military crackdown on protesters.	Chinese President defended the military crackdown on protesters.	3155471	1471999771993	1471999772118	y	89
6174	66315	Chinese President defended the military crackdown on protesters.	Chinese President defended the military crackdown on protesters.	3155476	1471999772233	1471999772345	 	32
6174	66315	Chinese President defended the military crackdown on protesters.	Chinese President defended the military crackdown on protesters.	3155538	1471999772340	1471999772489	c	67
6174	66315	Chinese President defended the military crackdown on protesters.	Chinese President defended the military crackdown on protesters.	3155539	1471999772521	1471999772699	r	82
6174	66315	Chinese President defended the military crackdown on protesters.	Chinese President defended the military crackdown on protesters.	3155541	1471999772627	1471999772763	e	69
6174	66315	Chinese President defended the military crackdown on protesters.	Chinese President defended the military crackdown on protesters.	3155545	1471999773098	1471999773208	BKSP	8
6174	66315	Chinese President defended the military crackdown on protesters.	Chinese President defended the military crackdown on protesters.	3155550	1471999773216	1471999773277	a	65
6174	66315	Chinese President defended the military crackdown on protesters.	Chinese President defended the military crackdown on protesters.	3155554	1471999773356	1471999773514	c	67
6174	66315	Chinese President defended the military crackdown on protesters.	Chinese President defended the military crackdown on protesters.	3155628	1471999773463	1471999773571	k	75
6174	66315	Chinese President defended the military crackdown on protesters.	Chinese President defended the military crackdown on protesters.	3155631	1471999773787	1471999773911	d	68
6174	66315	Chinese President defended the military crackdown on protesters.	Chinese President defended the military crackdown on protesters.	3155635	1471999773975	1471999774079	o	79
6174	66315	Chinese President defended the military crackdown on protesters.	Chinese President defended the military crackdown on protesters.	3155638	1471999774117	1471999774241	w	87
6174	66315	Chinese President defended the military crackdown on protesters.	Chinese President defended the military crackdown on protesters.	3155643	1471999774440	1471999774566	 	32
6174	66315	Chinese President defended the military crackdown on protesters.	Chinese President defended the military crackdown on protesters.	3155648	1471999774746	1471999774925	o	79
6174	66315	Chinese President defended the military crackdown on protesters.	Chinese President defended the military crackdown on protesters.	3155721	1471999775117	1471999775182	BKSP	8
6174	66315	Chinese President defended the military crackdown on protesters.	Chinese President defended the military crackdown on protesters.	3155726	1471999775264	1471999775379	BKSP	8
6174	66315	Chinese President defended the military crackdown on protesters.	Chinese President defended the military crackdown on protesters.	3155727	1471999775526	1471999775602	n	78
6174	66315	Chinese President defended the military crackdown on protesters.	Chinese President defended the military crackdown on protesters.	3155731	1471999775702	1471999775786	 	32
6174	66315	Chinese President defended the military crackdown on protesters.	Chinese President defended the military crackdown on protesters.	3155733	1471999775850	1471999775979	o	79
6174	66315	Chinese President defended the military crackdown on protesters.	Chinese President defended the military crackdown on protesters.	3155736	1471999775921	1471999776005	n	78
6174	66315	Chinese President defended the military crackdown on protesters.	Chinese President defended the military crackdown on protesters.	3155738	1471999776104	1471999776176	 	32
6174	66315	Chinese President defended the military crackdown on protesters.	Chinese President defended the military crackdown on protesters.	3155809	1471999776239	1471999776351	p	80
6174	66315	Chinese President defended the military crackdown on protesters.	Chinese President defended the military crackdown on protesters.	3155813	1471999776356	1471999776458	r	82
6174	66315	Chinese President defended the military crackdown on protesters.	Chinese President defended the military crackdown on protesters.	3155816	1471999776468	1471999776582	o	79
6174	66315	Chinese President defended the military crackdown on protesters.	Chinese President defended the military crackdown on protesters.	3155825	1471999776606	1471999776718	t	84
6174	66315	Chinese President defended the military crackdown on protesters.	Chinese President defended the military crackdown on protesters.	3155831	1471999776952	1471999777001	BKSP	8
6174	66315	Chinese President defended the military crackdown on protesters.	Chinese President defended the military crackdown on protesters.	3155837	1471999777401	1471999777506	t	84
6174	66315	Chinese President defended the military crackdown on protesters.	Chinese President defended the military crackdown on protesters.	3155872	1471999777582	1471999777718	e	69
6174	66315	Chinese President defended the military crackdown on protesters.	Chinese President defended the military crackdown on protesters.	3155875	1471999777806	1471999777934	s	83
6174	66315	Chinese President defended the military crackdown on protesters.	Chinese President defended the military crackdown on protesters.	3155879	1471999778015	1471999778158	t	84
6174	66315	Chinese President defended the military crackdown on protesters.	Chinese President defended the military crackdown on protesters.	3155881	1471999778112	1471999778334	e	69
6174	66315	Chinese President defended the military crackdown on protesters.	Chinese President defended the military crackdown on protesters.	3156046	1471999778250	1471999778377	r	82
6174	66315	Chinese President defended the military crackdown on protesters.	Chinese President defended the military crackdown on protesters.	3156052	1471999778446	1471999778555	s	83
6174	66315	Chinese President defended the military crackdown on protesters.	Chinese President defended the military crackdown on protesters.	3156057	1471999778967	1471999779087	.	190
6174	66350	Mark, Susan said to go ahead and expense the cell phones.	Mark, Susan said to go ahead and expense the cell phones. 	3156490	1471999787873	1471999788067	SHIFT	16
6174	66350	Mark, Susan said to go ahead and expense the cell phones.	Mark, Susan said to go ahead and expense the cell phones. 	3156491	1471999787981	1471999788130	M	77
6174	66350	Mark, Susan said to go ahead and expense the cell phones.	Mark, Susan said to go ahead and expense the cell phones. 	3156492	1471999788126	1471999788218	a	65
6174	66350	Mark, Susan said to go ahead and expense the cell phones.	Mark, Susan said to go ahead and expense the cell phones. 	3156493	1471999788343	1471999788472	r	82
6174	66350	Mark, Susan said to go ahead and expense the cell phones.	Mark, Susan said to go ahead and expense the cell phones. 	3156494	1471999788459	1471999788551	k	75
6174	66350	Mark, Susan said to go ahead and expense the cell phones.	Mark, Susan said to go ahead and expense the cell phones. 	3156496	1471999788686	1471999788790	,	188
6174	66350	Mark, Susan said to go ahead and expense the cell phones.	Mark, Susan said to go ahead and expense the cell phones. 	3156541	1471999788879	1471999788967	 	32
6174	66350	Mark, Susan said to go ahead and expense the cell phones.	Mark, Susan said to go ahead and expense the cell phones. 	3156543	1471999789052	1471999789212	SHIFT	16
6174	66350	Mark, Susan said to go ahead and expense the cell phones.	Mark, Susan said to go ahead and expense the cell phones. 	3156546	1471999789167	1471999789261	S	83
6174	66350	Mark, Susan said to go ahead and expense the cell phones.	Mark, Susan said to go ahead and expense the cell phones. 	3156549	1471999789274	1471999789402	u	85
6174	66350	Mark, Susan said to go ahead and expense the cell phones.	Mark, Susan said to go ahead and expense the cell phones. 	3156553	1471999789429	1471999789540	s	83
6174	66350	Mark, Susan said to go ahead and expense the cell phones.	Mark, Susan said to go ahead and expense the cell phones. 	3156555	1471999789636	1471999789743	a	65
6174	66350	Mark, Susan said to go ahead and expense the cell phones.	Mark, Susan said to go ahead and expense the cell phones. 	3156637	1471999789943	1471999790046	n	78
6174	66350	Mark, Susan said to go ahead and expense the cell phones.	Mark, Susan said to go ahead and expense the cell phones. 	3156639	1471999790401	1471999790506	 	32
6174	66350	Mark, Susan said to go ahead and expense the cell phones.	Mark, Susan said to go ahead and expense the cell phones. 	3156640	1471999790660	1471999790751	s	83
6174	66350	Mark, Susan said to go ahead and expense the cell phones.	Mark, Susan said to go ahead and expense the cell phones. 	3156641	1471999790848	1471999790942	a	65
6174	66350	Mark, Susan said to go ahead and expense the cell phones.	Mark, Susan said to go ahead and expense the cell phones. 	3156670	1471999790929	1471999791031	i	73
6174	66350	Mark, Susan said to go ahead and expense the cell phones.	Mark, Susan said to go ahead and expense the cell phones. 	3156676	1471999791034	1471999791154	d	68
6174	66350	Mark, Susan said to go ahead and expense the cell phones.	Mark, Susan said to go ahead and expense the cell phones. 	3156682	1471999791159	1471999791268	 	32
6174	66350	Mark, Susan said to go ahead and expense the cell phones.	Mark, Susan said to go ahead and expense the cell phones. 	3156687	1471999791291	1471999791398	t	84
6174	66350	Mark, Susan said to go ahead and expense the cell phones.	Mark, Susan said to go ahead and expense the cell phones. 	3156690	1471999791380	1471999791490	o	79
6174	66350	Mark, Susan said to go ahead and expense the cell phones.	Mark, Susan said to go ahead and expense the cell phones. 	3156761	1471999791480	1471999791617	 	32
6174	66350	Mark, Susan said to go ahead and expense the cell phones.	Mark, Susan said to go ahead and expense the cell phones. 	3156765	1471999791706	1471999791782	a	65
6174	66350	Mark, Susan said to go ahead and expense the cell phones.	Mark, Susan said to go ahead and expense the cell phones. 	3156769	1471999792027	1471999792124	BKSP	8
6174	66350	Mark, Susan said to go ahead and expense the cell phones.	Mark, Susan said to go ahead and expense the cell phones. 	3156773	1471999792156	1471999792282	g	71
6174	66350	Mark, Susan said to go ahead and expense the cell phones.	Mark, Susan said to go ahead and expense the cell phones. 	3156777	1471999792346	1471999792457	o	79
6174	66350	Mark, Susan said to go ahead and expense the cell phones.	Mark, Susan said to go ahead and expense the cell phones. 	3156784	1471999792519	1471999792636	 	32
6174	66350	Mark, Susan said to go ahead and expense the cell phones.	Mark, Susan said to go ahead and expense the cell phones. 	3156790	1471999792643	1471999792759	a	65
6174	66350	Mark, Susan said to go ahead and expense the cell phones.	Mark, Susan said to go ahead and expense the cell phones. 	3156844	1471999793027	1471999793142	h	72
6174	66350	Mark, Susan said to go ahead and expense the cell phones.	Mark, Susan said to go ahead and expense the cell phones. 	3156845	1471999793224	1471999793366	e	69
6174	66350	Mark, Susan said to go ahead and expense the cell phones.	Mark, Susan said to go ahead and expense the cell phones. 	3156847	1471999793351	1471999793513	a	65
6174	66350	Mark, Susan said to go ahead and expense the cell phones.	Mark, Susan said to go ahead and expense the cell phones. 	3156849	1471999793619	1471999793743	d	68
6174	66350	Mark, Susan said to go ahead and expense the cell phones.	Mark, Susan said to go ahead and expense the cell phones. 	3156851	1471999793788	1471999793927	 	32
6174	66350	Mark, Susan said to go ahead and expense the cell phones.	Mark, Susan said to go ahead and expense the cell phones. 	3156890	1471999793923	1471999794036	a	65
6174	66350	Mark, Susan said to go ahead and expense the cell phones.	Mark, Susan said to go ahead and expense the cell phones. 	3156892	1471999794014	1471999794117	n	78
6174	66350	Mark, Susan said to go ahead and expense the cell phones.	Mark, Susan said to go ahead and expense the cell phones. 	3156895	1471999794119	1471999794235	d	68
6174	66350	Mark, Susan said to go ahead and expense the cell phones.	Mark, Susan said to go ahead and expense the cell phones. 	3156899	1471999794220	1471999794334	 	32
6174	66350	Mark, Susan said to go ahead and expense the cell phones.	Mark, Susan said to go ahead and expense the cell phones. 	3156901	1471999794329	1471999794442	e	69
6174	66350	Mark, Susan said to go ahead and expense the cell phones.	Mark, Susan said to go ahead and expense the cell phones. 	3156905	1471999794566	1471999794678	x	88
6174	66350	Mark, Susan said to go ahead and expense the cell phones.	Mark, Susan said to go ahead and expense the cell phones. 	3156953	1471999794757	1471999794870	p	80
6174	66350	Mark, Susan said to go ahead and expense the cell phones.	Mark, Susan said to go ahead and expense the cell phones. 	3156961	1471999794861	1471999794969	e	69
6174	66350	Mark, Susan said to go ahead and expense the cell phones.	Mark, Susan said to go ahead and expense the cell phones. 	3156966	1471999794984	1471999795104	n	78
6174	66350	Mark, Susan said to go ahead and expense the cell phones.	Mark, Susan said to go ahead and expense the cell phones. 	3156971	1471999795113	1471999795233	s	83
6174	66350	Mark, Susan said to go ahead and expense the cell phones.	Mark, Susan said to go ahead and expense the cell phones. 	3156974	1471999795501	1471999795629	v	86
6174	66350	Mark, Susan said to go ahead and expense the cell phones.	Mark, Susan said to go ahead and expense the cell phones. 	3157014	1471999795621	1471999795767	e	69
6174	66350	Mark, Susan said to go ahead and expense the cell phones.	Mark, Susan said to go ahead and expense the cell phones. 	3157018	1471999795957	1471999796018	BKSP	8
6174	66350	Mark, Susan said to go ahead and expense the cell phones.	Mark, Susan said to go ahead and expense the cell phones. 	3157021	1471999796102	1471999796191	BKSP	8
6174	66350	Mark, Susan said to go ahead and expense the cell phones.	Mark, Susan said to go ahead and expense the cell phones. 	3157024	1471999796163	1471999796301	e	69
6174	66350	Mark, Susan said to go ahead and expense the cell phones.	Mark, Susan said to go ahead and expense the cell phones. 	3157028	1471999796323	1471999796439	 	32
6174	66350	Mark, Susan said to go ahead and expense the cell phones.	Mark, Susan said to go ahead and expense the cell phones. 	3157031	1471999796403	1471999796514	t	84
6174	66350	Mark, Susan said to go ahead and expense the cell phones.	Mark, Susan said to go ahead and expense the cell phones. 	3157036	1471999796518	1471999796639	h	72
6174	66350	Mark, Susan said to go ahead and expense the cell phones.	Mark, Susan said to go ahead and expense the cell phones. 	3157053	1471999796591	1471999796707	e	69
6174	66350	Mark, Susan said to go ahead and expense the cell phones.	Mark, Susan said to go ahead and expense the cell phones. 	3157058	1471999796698	1471999796818	 	32
6174	66350	Mark, Susan said to go ahead and expense the cell phones.	Mark, Susan said to go ahead and expense the cell phones. 	3157063	1471999796846	1471999796947	c	67
6174	66350	Mark, Susan said to go ahead and expense the cell phones.	Mark, Susan said to go ahead and expense the cell phones. 	3157067	1471999796992	1471999797120	e	69
6174	66350	Mark, Susan said to go ahead and expense the cell phones.	Mark, Susan said to go ahead and expense the cell phones. 	3157072	1471999797116	1471999797179	l	76
6174	66350	Mark, Susan said to go ahead and expense the cell phones.	Mark, Susan said to go ahead and expense the cell phones. 	3157080	1471999797253	1471999797354	l	76
6174	66350	Mark, Susan said to go ahead and expense the cell phones.	Mark, Susan said to go ahead and expense the cell phones. 	3157107	1471999797401	1471999797509	 	32
6174	66350	Mark, Susan said to go ahead and expense the cell phones.	Mark, Susan said to go ahead and expense the cell phones. 	3157112	1471999797559	1471999797643	p	80
6174	66350	Mark, Susan said to go ahead and expense the cell phones.	Mark, Susan said to go ahead and expense the cell phones. 	3157121	1471999797716	1471999797816	h	72
6174	66350	Mark, Susan said to go ahead and expense the cell phones.	Mark, Susan said to go ahead and expense the cell phones. 	3157127	1471999797883	1471999798019	o	79
6174	66350	Mark, Susan said to go ahead and expense the cell phones.	Mark, Susan said to go ahead and expense the cell phones. 	3157292	1471999797938	1471999798103	n	78
6174	66350	Mark, Susan said to go ahead and expense the cell phones.	Mark, Susan said to go ahead and expense the cell phones. 	3157295	1471999798031	1471999798142	e	69
6174	66350	Mark, Susan said to go ahead and expense the cell phones.	Mark, Susan said to go ahead and expense the cell phones. 	3157298	1471999798155	1471999798303	s	83
6174	66350	Mark, Susan said to go ahead and expense the cell phones.	Mark, Susan said to go ahead and expense the cell phones. 	3157301	1471999798298	1471999798425	.	190
6174	66350	Mark, Susan said to go ahead and expense the cell phones.	Mark, Susan said to go ahead and expense the cell phones. 	3157303	1471999798506	1471999798620	 	32
6174	66374	The amendment has little chance of becoming law.	The amendment has little chance of becoming law.	3157443	1471999802835	1471999803065	SHIFT	16
6174	66374	The amendment has little chance of becoming law.	The amendment has little chance of becoming law.	3157447	1471999803004	1471999803109	T	84
6174	66374	The amendment has little chance of becoming law.	The amendment has little chance of becoming law.	3157451	1471999803189	1471999803296	h	72
6174	66374	The amendment has little chance of becoming law.	The amendment has little chance of becoming law.	3157454	1471999803276	1471999803388	e	69
6174	66374	The amendment has little chance of becoming law.	The amendment has little chance of becoming law.	3157458	1471999803554	1471999803614	a	65
6174	66374	The amendment has little chance of becoming law.	The amendment has little chance of becoming law.	3157461	1471999803680	1471999803731	 	32
6174	66374	The amendment has little chance of becoming law.	The amendment has little chance of becoming law.	3157536	1471999803925	1471999803983	BKSP	8
6174	66374	The amendment has little chance of becoming law.	The amendment has little chance of becoming law.	3157540	1471999804060	1471999804159	BKSP	8
6174	66374	The amendment has little chance of becoming law.	The amendment has little chance of becoming law.	3157545	1471999804317	1471999804366	 	32
6174	66374	The amendment has little chance of becoming law.	The amendment has little chance of becoming law.	3157549	1471999804437	1471999804515	a	65
6174	66374	The amendment has little chance of becoming law.	The amendment has little chance of becoming law.	3157553	1471999804612	1471999804711	m	77
6174	66374	The amendment has little chance of becoming law.	The amendment has little chance of becoming law.	3157556	1471999804762	1471999804884	a	65
6174	66374	The amendment has little chance of becoming law.	The amendment has little chance of becoming law.	3157691	1471999804877	1471999804984	n	78
6174	66374	The amendment has little chance of becoming law.	The amendment has little chance of becoming law.	3157694	1471999805019	1471999805121	e	69
6174	66374	The amendment has little chance of becoming law.	The amendment has little chance of becoming law.	3157697	1471999805394	1471999805498	BKSP	8
6174	66374	The amendment has little chance of becoming law.	The amendment has little chance of becoming law.	3157699	1471999805489	1471999805567	d	68
6174	66374	The amendment has little chance of becoming law.	The amendment has little chance of becoming law.	3157703	1471999805657	1471999805771	e	69
6174	66374	The amendment has little chance of becoming law.	The amendment has little chance of becoming law.	3157706	1471999806121	1471999806188	BKSP	8
6174	66374	The amendment has little chance of becoming law.	The amendment has little chance of becoming law.	3157713	1471999806273	1471999806340	BKSP	8
6174	66374	The amendment has little chance of becoming law.	The amendment has little chance of becoming law.	3157717	1471999806425	1471999806489	BKSP	8
6174	66374	The amendment has little chance of becoming law.	The amendment has little chance of becoming law.	3157721	1471999806571	1471999806690	BKSP	8
6174	66374	The amendment has little chance of becoming law.	The amendment has little chance of becoming law.	3157725	1471999806724	1471999806848	e	69
6174	66374	The amendment has little chance of becoming law.	The amendment has little chance of becoming law.	3157733	1471999806889	1471999807004	n	78
6174	66374	The amendment has little chance of becoming law.	The amendment has little chance of becoming law.	3157787	1471999807062	1471999807154	d	68
6174	66374	The amendment has little chance of becoming law.	The amendment has little chance of becoming law.	3157790	1471999807250	1471999807352	e	69
6174	66374	The amendment has little chance of becoming law.	The amendment has little chance of becoming law.	3157793	1471999807890	1471999807969	BKSP	8
6174	66374	The amendment has little chance of becoming law.	The amendment has little chance of becoming law.	3157797	1471999808122	1471999808211	m	77
6174	66374	The amendment has little chance of becoming law.	The amendment has little chance of becoming law.	3157803	1471999808241	1471999808342	e	69
6174	66374	The amendment has little chance of becoming law.	The amendment has little chance of becoming law.	3157833	1471999808338	1471999808433	n	78
6174	66374	The amendment has little chance of becoming law.	The amendment has little chance of becoming law.	3157839	1471999808477	1471999808585	t	84
6174	66374	The amendment has little chance of becoming law.	The amendment has little chance of becoming law.	3157843	1471999808529	1471999808643	 	32
6174	66374	The amendment has little chance of becoming law.	The amendment has little chance of becoming law.	3157845	1471999808702	1471999808793	h	72
6174	66374	The amendment has little chance of becoming law.	The amendment has little chance of becoming law.	3157850	1471999808786	1471999808986	a	65
6174	66374	The amendment has little chance of becoming law.	The amendment has little chance of becoming law.	3157896	1471999808921	1471999809062	s	83
6174	66374	The amendment has little chance of becoming law.	The amendment has little chance of becoming law.	3157900	1471999809053	1471999809163	 	32
6174	66374	The amendment has little chance of becoming law.	The amendment has little chance of becoming law.	3157902	1471999809245	1471999809391	l	76
6174	66374	The amendment has little chance of becoming law.	The amendment has little chance of becoming law.	3157906	1471999809334	1471999809473	i	73
6174	66374	The amendment has little chance of becoming law.	The amendment has little chance of becoming law.	3157909	1471999809448	1471999809549	t	84
6174	66374	The amendment has little chance of becoming law.	The amendment has little chance of becoming law.	3157913	1471999809609	1471999809743	t	84
6174	66374	The amendment has little chance of becoming law.	The amendment has little chance of becoming law.	3157936	1471999809739	1471999809857	l	76
6174	66374	The amendment has little chance of becoming law.	The amendment has little chance of becoming law.	3157940	1471999809804	1471999809969	e	69
6174	66374	The amendment has little chance of becoming law.	The amendment has little chance of becoming law.	3157944	1471999809949	1471999810054	 	32
6174	66374	The amendment has little chance of becoming law.	The amendment has little chance of becoming law.	3157945	1471999810107	1471999810229	c	67
6174	66374	The amendment has little chance of becoming law.	The amendment has little chance of becoming law.	3157946	1471999810191	1471999810285	h	72
6174	66374	The amendment has little chance of becoming law.	The amendment has little chance of becoming law.	3157948	1471999810310	1471999810426	a	65
6174	66374	The amendment has little chance of becoming law.	The amendment has little chance of becoming law.	3158037	1471999810368	1471999810500	n	78
6174	66374	The amendment has little chance of becoming law.	The amendment has little chance of becoming law.	3158038	1471999810555	1471999810751	g	71
6174	66374	The amendment has little chance of becoming law.	The amendment has little chance of becoming law.	3158039	1471999810647	1471999810803	e	69
6174	66374	The amendment has little chance of becoming law.	The amendment has little chance of becoming law.	3158040	1471999810703	1471999810852	 	32
6174	66374	The amendment has little chance of becoming law.	The amendment has little chance of becoming law.	3158043	1471999810849	1471999810998	o	79
6174	66374	The amendment has little chance of becoming law.	The amendment has little chance of becoming law.	3158046	1471999811378	1471999811444	BKSP	8
6174	66374	The amendment has little chance of becoming law.	The amendment has little chance of becoming law.	3158050	1471999811549	1471999811581	BKSP	8
6174	66374	The amendment has little chance of becoming law.	The amendment has little chance of becoming law.	3158054	1471999811696	1471999811747	BKSP	8
6174	66374	The amendment has little chance of becoming law.	The amendment has little chance of becoming law.	3158058	1471999811821	1471999811894	BKSP	8
6174	66374	The amendment has little chance of becoming law.	The amendment has little chance of becoming law.	3158061	1471999812020	1471999812149	c	67
6174	66374	The amendment has little chance of becoming law.	The amendment has little chance of becoming law.	3158074	1471999812216	1471999812338	e	69
6174	66374	The amendment has little chance of becoming law.	The amendment has little chance of becoming law.	3158080	1471999812359	1471999812453	 	32
6174	66374	The amendment has little chance of becoming law.	The amendment has little chance of becoming law.	3158085	1471999812509	1471999812642	o	79
6174	66374	The amendment has little chance of becoming law.	The amendment has little chance of becoming law.	3158091	1471999812644	1471999812762	g	71
6174	66374	The amendment has little chance of becoming law.	The amendment has little chance of becoming law.	3158176	1471999812759	1471999812861	 	32
6174	66374	The amendment has little chance of becoming law.	The amendment has little chance of becoming law.	3158179	1471999813273	1471999813346	BKSP	8
6174	66374	The amendment has little chance of becoming law.	The amendment has little chance of becoming law.	3158181	1471999813432	1471999813517	BKSP	8
6174	66374	The amendment has little chance of becoming law.	The amendment has little chance of becoming law.	3158183	1471999813476	1471999813593	f	70
6174	66374	The amendment has little chance of becoming law.	The amendment has little chance of becoming law.	3158185	1471999813666	1471999813755	 	32
6174	66374	The amendment has little chance of becoming law.	The amendment has little chance of becoming law.	3158188	1471999813863	1471999813973	b	66
6174	66374	The amendment has little chance of becoming law.	The amendment has little chance of becoming law.	3158192	1471999813986	1471999814082	e	69
6174	66374	The amendment has little chance of becoming law.	The amendment has little chance of becoming law.	3158195	1471999814164	1471999814309	c	67
6174	66374	The amendment has little chance of becoming law.	The amendment has little chance of becoming law.	3158221	1471999814269	1471999814449	o	79
6174	66374	The amendment has little chance of becoming law.	The amendment has little chance of becoming law.	3158226	1471999814377	1471999814503	m	77
6174	66374	The amendment has little chance of becoming law.	The amendment has little chance of becoming law.	3158232	1471999814589	1471999814773	i	73
6174	66374	The amendment has little chance of becoming law.	The amendment has little chance of becoming law.	3158237	1471999814672	1471999814820	n	78
6174	66374	The amendment has little chance of becoming law.	The amendment has little chance of becoming law.	3158242	1471999814790	1471999814917	g	71
6174	66374	The amendment has little chance of becoming law.	The amendment has little chance of becoming law.	3158247	1471999814920	1471999815018	 	32
6174	66374	The amendment has little chance of becoming law.	The amendment has little chance of becoming law.	3158361	1471999815159	1471999815277	l	76
6174	66374	The amendment has little chance of becoming law.	The amendment has little chance of becoming law.	3158363	1471999815283	1471999815386	a	65
6174	66374	The amendment has little chance of becoming law.	The amendment has little chance of becoming law.	3158365	1471999815460	1471999815589	w	87
6174	66374	The amendment has little chance of becoming law.	The amendment has little chance of becoming law.	3158367	1471999815598	1471999815750	.	190
6174	66399	Do you know if this has been done yet?	Do you know if this has been done yet?	3158748	1471999821406	1471999821620	SHIFT	16
6174	66399	Do you know if this has been done yet?	Do you know if this has been done yet?	3158753	1471999821513	1471999821640	D	68
6174	66399	Do you know if this has been done yet?	Do you know if this has been done yet?	3158759	1471999821734	1471999821833	i	73
6174	66399	Do you know if this has been done yet?	Do you know if this has been done yet?	3158765	1471999822089	1471999822166	BKSP	8
6174	66399	Do you know if this has been done yet?	Do you know if this has been done yet?	3158771	1471999822323	1471999822408	o	79
6174	66399	Do you know if this has been done yet?	Do you know if this has been done yet?	3158776	1471999822494	1471999822608	 	32
6174	66399	Do you know if this has been done yet?	Do you know if this has been done yet?	3158782	1471999822694	1471999822803	y	89
6174	66399	Do you know if this has been done yet?	Do you know if this has been done yet?	3158807	1471999822831	1471999822973	o	79
6174	66399	Do you know if this has been done yet?	Do you know if this has been done yet?	3158814	1471999822911	1471999822991	u	85
6174	66399	Do you know if this has been done yet?	Do you know if this has been done yet?	3158821	1471999823076	1471999823175	 	32
6174	66399	Do you know if this has been done yet?	Do you know if this has been done yet?	3158825	1471999823252	1471999823368	k	75
6174	66399	Do you know if this has been done yet?	Do you know if this has been done yet?	3158852	1471999823319	1471999823427	n	78
6174	66399	Do you know if this has been done yet?	Do you know if this has been done yet?	3158855	1471999823489	1471999823600	o	79
6174	66399	Do you know if this has been done yet?	Do you know if this has been done yet?	3158862	1471999823611	1471999823718	w	87
6174	66399	Do you know if this has been done yet?	Do you know if this has been done yet?	3158867	1471999823696	1471999823799	 	32
6174	66399	Do you know if this has been done yet?	Do you know if this has been done yet?	3158876	1471999823840	1471999823951	i	73
6174	66399	Do you know if this has been done yet?	Do you know if this has been done yet?	3158911	1471999823923	1471999824038	f	70
6174	66399	Do you know if this has been done yet?	Do you know if this has been done yet?	3158915	1471999824034	1471999824158	 	32
6174	66399	Do you know if this has been done yet?	Do you know if this has been done yet?	3158917	1471999824143	1471999824266	t	84
6174	66399	Do you know if this has been done yet?	Do you know if this has been done yet?	3158920	1471999824217	1471999824308	h	72
6174	66399	Do you know if this has been done yet?	Do you know if this has been done yet?	3158925	1471999824430	1471999824576	i	73
6174	66399	Do you know if this has been done yet?	Do you know if this has been done yet?	3158931	1471999824599	1471999824735	s	83
6174	66399	Do you know if this has been done yet?	Do you know if this has been done yet?	3158991	1471999824718	1471999824835	 	32
6174	66399	Do you know if this has been done yet?	Do you know if this has been done yet?	3158997	1471999824897	1471999824968	h	72
6174	66399	Do you know if this has been done yet?	Do you know if this has been done yet?	3159005	1471999824920	1471999825005	a	65
6174	66399	Do you know if this has been done yet?	Do you know if this has been done yet?	3159011	1471999825144	1471999825291	s	83
6174	66399	Do you know if this has been done yet?	Do you know if this has been done yet?	3159014	1471999825344	1471999825485	 	32
6174	66399	Do you know if this has been done yet?	Do you know if this has been done yet?	3159017	1471999825607	1471999825720	b	66
6174	66399	Do you know if this has been done yet?	Do you know if this has been done yet?	3159023	1471999825746	1471999825841	e	69
6174	66399	Do you know if this has been done yet?	Do you know if this has been done yet?	3159028	1471999825930	1471999826027	e	69
6174	66399	Do you know if this has been done yet?	Do you know if this has been done yet?	3159031	1471999825985	1471999826050	n	78
6174	66399	Do you know if this has been done yet?	Do you know if this has been done yet?	3159035	1471999826144	1471999826230	 	32
6174	66399	Do you know if this has been done yet?	Do you know if this has been done yet?	3159080	1471999826204	1471999826322	d	68
6174	66399	Do you know if this has been done yet?	Do you know if this has been done yet?	3159084	1471999826329	1471999826476	o	79
6174	66399	Do you know if this has been done yet?	Do you know if this has been done yet?	3159090	1471999826404	1471999826512	n	78
6174	66399	Do you know if this has been done yet?	Do you know if this has been done yet?	3159095	1471999826439	1471999826580	w	87
6174	66399	Do you know if this has been done yet?	Do you know if this has been done yet?	3159099	1471999826609	1471999826720	 	32
6174	66399	Do you know if this has been done yet?	Do you know if this has been done yet?	3159105	1471999826831	1471999826971	y	89
6174	66399	Do you know if this has been done yet?	Do you know if this has been done yet?	3159203	1471999826975	1471999827034	e	69
6174	66399	Do you know if this has been done yet?	Do you know if this has been done yet?	3159206	1471999827218	1471999827339	t	84
6174	66399	Do you know if this has been done yet?	Do you know if this has been done yet?	3159209	1471999827668	1471999827710	BKSP	8
6174	66399	Do you know if this has been done yet?	Do you know if this has been done yet?	3159212	1471999827807	1471999827867	BKSP	8
6174	66399	Do you know if this has been done yet?	Do you know if this has been done yet?	3159214	1471999827957	1471999828015	BKSP	8
6174	66399	Do you know if this has been done yet?	Do you know if this has been done yet?	3159218	1471999828089	1471999828156	BKSP	8
6174	66399	Do you know if this has been done yet?	Do you know if this has been done yet?	3159222	1471999828231	1471999828351	BKSP	8
6174	66399	Do you know if this has been done yet?	Do you know if this has been done yet?	3159229	1471999828374	1471999828471	e	69
6174	66399	Do you know if this has been done yet?	Do you know if this has been done yet?	3159232	1471999828611	1471999828726	 	32
6174	66399	Do you know if this has been done yet?	Do you know if this has been done yet?	3159239	1471999828876	1471999829005	y	89
6174	66399	Do you know if this has been done yet?	Do you know if this has been done yet?	3159367	1471999829011	1471999829145	e	69
6174	66399	Do you know if this has been done yet?	Do you know if this has been done yet?	3159371	1471999829194	1471999829306	t	84
6174	66399	Do you know if this has been done yet?	Do you know if this has been done yet?	3159373	1471999829663	1471999829858	SHIFT	16
6174	66399	Do you know if this has been done yet?	Do you know if this has been done yet?	3159378	1471999829761	1471999829911	?	191
6174	66420	Brcko had been proposed as another site for a safe area.	Brcko had been proposed as another site for a safe area.	3159943	1471999840186	1471999840430	SHIFT	16
6174	66420	Brcko had been proposed as another site for a safe area.	Brcko had been proposed as another site for a safe area.	3159945	1471999840314	1471999840479	B	66
6174	66420	Brcko had been proposed as another site for a safe area.	Brcko had been proposed as another site for a safe area.	3159949	1471999840766	1471999840876	r	82
6174	66420	Brcko had been proposed as another site for a safe area.	Brcko had been proposed as another site for a safe area.	3159952	1471999841014	1471999841136	c	67
6174	66420	Brcko had been proposed as another site for a safe area.	Brcko had been proposed as another site for a safe area.	3159959	1471999841151	1471999841243	k	75
6174	66420	Brcko had been proposed as another site for a safe area.	Brcko had been proposed as another site for a safe area.	3159966	1471999841487	1471999841589	o	79
6174	66420	Brcko had been proposed as another site for a safe area.	Brcko had been proposed as another site for a safe area.	3160003	1471999841729	1471999841811	 	32
6174	66420	Brcko had been proposed as another site for a safe area.	Brcko had been proposed as another site for a safe area.	3160007	1471999841882	1471999841984	h	72
6174	66420	Brcko had been proposed as another site for a safe area.	Brcko had been proposed as another site for a safe area.	3160010	1471999842007	1471999842161	a	65
6174	66420	Brcko had been proposed as another site for a safe area.	Brcko had been proposed as another site for a safe area.	3160014	1471999842107	1471999842244	s	83
6174	66420	Brcko had been proposed as another site for a safe area.	Brcko had been proposed as another site for a safe area.	3160018	1471999842297	1471999842448	 	32
6174	66420	Brcko had been proposed as another site for a safe area.	Brcko had been proposed as another site for a safe area.	3160100	1471999842489	1471999842636	 	32
6174	66420	Brcko had been proposed as another site for a safe area.	Brcko had been proposed as another site for a safe area.	3160105	1471999842888	1471999842953	BKSP	8
6174	66420	Brcko had been proposed as another site for a safe area.	Brcko had been proposed as another site for a safe area.	3160109	1471999843190	1471999843261	BKSP	8
6174	66420	Brcko had been proposed as another site for a safe area.	Brcko had been proposed as another site for a safe area.	3160111	1471999843333	1471999843417	BKSP	8
6174	66420	Brcko had been proposed as another site for a safe area.	Brcko had been proposed as another site for a safe area.	3160114	1471999843492	1471999843616	d	68
6174	66420	Brcko had been proposed as another site for a safe area.	Brcko had been proposed as another site for a safe area.	3160117	1471999843634	1471999843744	 	32
6174	66420	Brcko had been proposed as another site for a safe area.	Brcko had been proposed as another site for a safe area.	3160120	1471999843833	1471999843935	b	66
6174	66420	Brcko had been proposed as another site for a safe area.	Brcko had been proposed as another site for a safe area.	3160123	1471999843939	1471999844035	e	69
6174	66420	Brcko had been proposed as another site for a safe area.	Brcko had been proposed as another site for a safe area.	3160140	1471999844142	1471999844238	e	69
6174	66420	Brcko had been proposed as another site for a safe area.	Brcko had been proposed as another site for a safe area.	3160145	1471999844326	1471999844389	n	78
6174	66420	Brcko had been proposed as another site for a safe area.	Brcko had been proposed as another site for a safe area.	3160152	1471999844520	1471999844601	 	32
6174	66420	Brcko had been proposed as another site for a safe area.	Brcko had been proposed as another site for a safe area.	3160159	1471999844710	1471999844796	o	79
6174	66420	Brcko had been proposed as another site for a safe area.	Brcko had been proposed as another site for a safe area.	3160165	1471999844808	1471999844906	r	82
6174	66420	Brcko had been proposed as another site for a safe area.	Brcko had been proposed as another site for a safe area.	3160240	1471999845110	1471999845166	BKSP	8
6174	66420	Brcko had been proposed as another site for a safe area.	Brcko had been proposed as another site for a safe area.	3160241	1471999845251	1471999845324	BKSP	8
6174	66420	Brcko had been proposed as another site for a safe area.	Brcko had been proposed as another site for a safe area.	3160243	1471999845465	1471999845561	p	80
6174	66420	Brcko had been proposed as another site for a safe area.	Brcko had been proposed as another site for a safe area.	3160245	1471999845558	1471999845676	r	82
6174	66420	Brcko had been proposed as another site for a safe area.	Brcko had been proposed as another site for a safe area.	3160247	1471999845663	1471999845751	o	79
6174	66420	Brcko had been proposed as another site for a safe area.	Brcko had been proposed as another site for a safe area.	3160249	1471999845841	1471999845943	p	80
6174	66420	Brcko had been proposed as another site for a safe area.	Brcko had been proposed as another site for a safe area.	3160251	1471999846371	1471999846499	o	79
6174	66420	Brcko had been proposed as another site for a safe area.	Brcko had been proposed as another site for a safe area.	3160292	1471999846520	1471999846685	s	83
6174	66420	Brcko had been proposed as another site for a safe area.	Brcko had been proposed as another site for a safe area.	3160294	1471999846676	1471999846795	e	69
6174	66420	Brcko had been proposed as another site for a safe area.	Brcko had been proposed as another site for a safe area.	3160297	1471999846902	1471999847028	d	68
6174	66420	Brcko had been proposed as another site for a safe area.	Brcko had been proposed as another site for a safe area.	3160302	1471999847026	1471999847137	 	32
6174	66420	Brcko had been proposed as another site for a safe area.	Brcko had been proposed as another site for a safe area.	3160305	1471999847141	1471999847334	a	65
6174	66420	Brcko had been proposed as another site for a safe area.	Brcko had been proposed as another site for a safe area.	3160326	1471999847228	1471999847398	s	83
6174	66420	Brcko had been proposed as another site for a safe area.	Brcko had been proposed as another site for a safe area.	3160328	1471999847409	1471999847512	 	32
6174	66420	Brcko had been proposed as another site for a safe area.	Brcko had been proposed as another site for a safe area.	3160330	1471999847536	1471999847660	a	65
6174	66420	Brcko had been proposed as another site for a safe area.	Brcko had been proposed as another site for a safe area.	3160331	1471999847630	1471999847758	n	78
6174	66420	Brcko had been proposed as another site for a safe area.	Brcko had been proposed as another site for a safe area.	3160332	1471999847763	1471999847904	o	79
6174	66420	Brcko had been proposed as another site for a safe area.	Brcko had been proposed as another site for a safe area.	3160333	1471999847923	1471999848034	t	84
6174	66420	Brcko had been proposed as another site for a safe area.	Brcko had been proposed as another site for a safe area.	3160345	1471999848032	1471999848154	h	72
6174	66420	Brcko had been proposed as another site for a safe area.	Brcko had been proposed as another site for a safe area.	3160349	1471999848142	1471999848327	e	69
6174	66420	Brcko had been proposed as another site for a safe area.	Brcko had been proposed as another site for a safe area.	3160353	1471999848236	1471999848343	r	82
6174	66420	Brcko had been proposed as another site for a safe area.	Brcko had been proposed as another site for a safe area.	3160358	1471999848319	1471999848424	 	32
6174	66420	Brcko had been proposed as another site for a safe area.	Brcko had been proposed as another site for a safe area.	3160369	1471999848541	1471999848681	s	83
6174	66420	Brcko had been proposed as another site for a safe area.	Brcko had been proposed as another site for a safe area.	3160396	1471999848641	1471999848747	i	73
6174	66420	Brcko had been proposed as another site for a safe area.	Brcko had been proposed as another site for a safe area.	3160398	1471999848793	1471999848974	t	84
6174	66420	Brcko had been proposed as another site for a safe area.	Brcko had been proposed as another site for a safe area.	3160401	1471999848902	1471999849050	e	69
6174	66420	Brcko had been proposed as another site for a safe area.	Brcko had been proposed as another site for a safe area.	3160404	1471999849020	1471999849129	 	32
6174	66420	Brcko had been proposed as another site for a safe area.	Brcko had been proposed as another site for a safe area.	3160405	1471999849165	1471999849276	f	70
6174	66420	Brcko had been proposed as another site for a safe area.	Brcko had been proposed as another site for a safe area.	3160423	1471999849262	1471999849364	o	79
6174	66420	Brcko had been proposed as another site for a safe area.	Brcko had been proposed as another site for a safe area.	3160426	1471999849374	1471999849496	r	82
6174	66420	Brcko had been proposed as another site for a safe area.	Brcko had been proposed as another site for a safe area.	3160434	1471999849494	1471999849611	 	32
6174	66420	Brcko had been proposed as another site for a safe area.	Brcko had been proposed as another site for a safe area.	3160442	1471999849590	1471999849730	a	65
6174	66420	Brcko had been proposed as another site for a safe area.	Brcko had been proposed as another site for a safe area.	3160449	1471999849717	1471999849831	 	32
6174	66420	Brcko had been proposed as another site for a safe area.	Brcko had been proposed as another site for a safe area.	3160503	1471999849827	1471999849980	s	83
6174	66420	Brcko had been proposed as another site for a safe area.	Brcko had been proposed as another site for a safe area.	3160506	1471999849974	1471999850097	a	65
6174	66420	Brcko had been proposed as another site for a safe area.	Brcko had been proposed as another site for a safe area.	3160509	1471999850203	1471999850354	f	70
6174	66420	Brcko had been proposed as another site for a safe area.	Brcko had been proposed as another site for a safe area.	3160510	1471999850356	1471999850503	e	69
6174	66420	Brcko had been proposed as another site for a safe area.	Brcko had been proposed as another site for a safe area.	3160512	1471999850555	1471999850670	 	32
6174	66420	Brcko had been proposed as another site for a safe area.	Brcko had been proposed as another site for a safe area.	3160514	1471999850704	1471999850783	a	65
6174	66420	Brcko had been proposed as another site for a safe area.	Brcko had been proposed as another site for a safe area.	3160666	1471999850893	1471999851069	r	82
6174	66420	Brcko had been proposed as another site for a safe area.	Brcko had been proposed as another site for a safe area.	3160667	1471999850990	1471999851153	e	69
6174	66420	Brcko had been proposed as another site for a safe area.	Brcko had been proposed as another site for a safe area.	3160669	1471999851268	1471999851390	a	65
6174	66420	Brcko had been proposed as another site for a safe area.	Brcko had been proposed as another site for a safe area.	3160675	1471999851346	1471999851471	.	190
6174	66444	We have been consistent and we have a good balance.	We have been consistent and we have a good balance.	3160944	1471999858001	1471999858212	SHIFT	16
6174	66444	We have been consistent and we have a good balance.	We have been consistent and we have a good balance.	3160945	1471999858156	1471999858292	W	87
6174	66444	We have been consistent and we have a good balance.	We have been consistent and we have a good balance.	3160947	1471999858278	1471999858392	e	69
6174	66444	We have been consistent and we have a good balance.	We have been consistent and we have a good balance.	3160949	1471999858425	1471999858535	 	32
6174	66444	We have been consistent and we have a good balance.	We have been consistent and we have a good balance.	3160952	1471999858575	1471999858666	h	72
6174	66444	We have been consistent and we have a good balance.	We have been consistent and we have a good balance.	3161034	1471999858659	1471999858726	a	65
6174	66444	We have been consistent and we have a good balance.	We have been consistent and we have a good balance.	3161040	1471999858818	1471999858975	v	86
6174	66444	We have been consistent and we have a good balance.	We have been consistent and we have a good balance.	3161043	1471999858926	1471999859077	e	69
6174	66444	We have been consistent and we have a good balance.	We have been consistent and we have a good balance.	3161050	1471999858998	1471999859112	 	32
6174	66444	We have been consistent and we have a good balance.	We have been consistent and we have a good balance.	3161053	1471999859244	1471999859296	s	83
6174	66444	We have been consistent and we have a good balance.	We have been consistent and we have a good balance.	3161058	1471999859619	1471999859695	BKSP	8
6174	66444	We have been consistent and we have a good balance.	We have been consistent and we have a good balance.	3161064	1471999859874	1471999859955	b	66
6174	66444	We have been consistent and we have a good balance.	We have been consistent and we have a good balance.	3161078	1471999859966	1471999860046	e	69
6174	66444	We have been consistent and we have a good balance.	We have been consistent and we have a good balance.	3161084	1471999860132	1471999860252	e	69
6174	66444	We have been consistent and we have a good balance.	We have been consistent and we have a good balance.	3161089	1471999860222	1471999860299	n	78
6174	66444	We have been consistent and we have a good balance.	We have been consistent and we have a good balance.	3161095	1471999860406	1471999860489	 	32
6174	66444	We have been consistent and we have a good balance.	We have been consistent and we have a good balance.	3161100	1471999860533	1471999860667	c	67
6174	66444	We have been consistent and we have a good balance.	We have been consistent and we have a good balance.	3161146	1471999860634	1471999860798	o	79
6174	66444	We have been consistent and we have a good balance.	We have been consistent and we have a good balance.	3161149	1471999860709	1471999860848	n	78
6174	66444	We have been consistent and we have a good balance.	We have been consistent and we have a good balance.	3161153	1471999860846	1471999861003	s	83
6174	66444	We have been consistent and we have a good balance.	We have been consistent and we have a good balance.	3161157	1471999860992	1471999861085	i	73
6174	66444	We have been consistent and we have a good balance.	We have been consistent and we have a good balance.	3161163	1471999861160	1471999861298	s	83
6174	66444	We have been consistent and we have a good balance.	We have been consistent and we have a good balance.	3161168	1471999861493	1471999861585	t	84
6174	66444	We have been consistent and we have a good balance.	We have been consistent and we have a good balance.	3161244	1471999861817	1471999861935	e	69
6174	66444	We have been consistent and we have a good balance.	We have been consistent and we have a good balance.	3161248	1471999861972	1471999862078	n	78
6174	66444	We have been consistent and we have a good balance.	We have been consistent and we have a good balance.	3161254	1471999862888	1471999862975	t	84
6174	66444	We have been consistent and we have a good balance.	We have been consistent and we have a good balance.	3161259	1471999863073	1471999863196	 	32
6174	66444	We have been consistent and we have a good balance.	We have been consistent and we have a good balance.	3161265	1471999863344	1471999863441	a	65
6174	66444	We have been consistent and we have a good balance.	We have been consistent and we have a good balance.	3161297	1471999863435	1471999863562	n	78
6174	66444	We have been consistent and we have a good balance.	We have been consistent and we have a good balance.	3161298	1471999863560	1471999863674	d	68
6174	66444	We have been consistent and we have a good balance.	We have been consistent and we have a good balance.	3161302	1471999863682	1471999863779	 	32
6174	66444	We have been consistent and we have a good balance.	We have been consistent and we have a good balance.	3161306	1471999863849	1471999864011	w	87
6174	66444	We have been consistent and we have a good balance.	We have been consistent and we have a good balance.	3161308	1471999863955	1471999864077	e	69
6174	66444	We have been consistent and we have a good balance.	We have been consistent and we have a good balance.	3161333	1471999864047	1471999864175	 	32
6174	66444	We have been consistent and we have a good balance.	We have been consistent and we have a good balance.	3161339	1471999864205	1471999864334	h	72
6174	66444	We have been consistent and we have a good balance.	We have been consistent and we have a good balance.	3161343	1471999864257	1471999864364	a	65
6174	66444	We have been consistent and we have a good balance.	We have been consistent and we have a good balance.	3161348	1471999864486	1471999864574	c	67
6174	66444	We have been consistent and we have a good balance.	We have been consistent and we have a good balance.	3161420	1471999864560	1471999864738	v	69
6174	66444	We have been consistent and we have a good balance.	We have been consistent and we have a good balance.	3161423	1471999865166	1471999865227	BKSP	8
6174	66444	We have been consistent and we have a good balance.	We have been consistent and we have a good balance.	3161429	1471999865321	1471999865370	BKSP	8
6174	66444	We have been consistent and we have a good balance.	We have been consistent and we have a good balance.	3161433	1471999865466	1471999865581	BKSP	8
6174	66444	We have been consistent and we have a good balance.	We have been consistent and we have a good balance.	3161437	1471999865594	1471999865737	v	86
6174	66444	We have been consistent and we have a good balance.	We have been consistent and we have a good balance.	3161438	1471999865651	1471999865808	e	69
6174	66444	We have been consistent and we have a good balance.	We have been consistent and we have a good balance.	3161441	1471999865815	1471999865940	 	32
6174	66444	We have been consistent and we have a good balance.	We have been consistent and we have a good balance.	3161444	1471999865960	1471999866077	a	65
6174	66444	We have been consistent and we have a good balance.	We have been consistent and we have a good balance.	3161462	1471999866074	1471999866184	 	32
6174	66444	We have been consistent and we have a good balance.	We have been consistent and we have a good balance.	3161465	1471999866582	1471999866698	g	71
6174	66444	We have been consistent and we have a good balance.	We have been consistent and we have a good balance.	3161467	1471999866705	1471999866781	o	79
6174	66444	We have been consistent and we have a good balance.	We have been consistent and we have a good balance.	3161469	1471999866859	1471999866949	o	79
6174	66444	We have been consistent and we have a good balance.	We have been consistent and we have a good balance.	3161471	1471999866950	1471999867074	d	68
6174	66444	We have been consistent and we have a good balance.	We have been consistent and we have a good balance.	3161507	1471999867054	1471999867128	 	32
6174	66444	We have been consistent and we have a good balance.	We have been consistent and we have a good balance.	3161510	1471999867230	1471999867329	b	66
6174	66444	We have been consistent and we have a good balance.	We have been consistent and we have a good balance.	3161512	1471999867319	1471999867442	a	65
6174	66444	We have been consistent and we have a good balance.	We have been consistent and we have a good balance.	3161514	1471999867453	1471999867575	l	76
6174	66444	We have been consistent and we have a good balance.	We have been consistent and we have a good balance.	3161516	1471999867579	1471999867696	a	65
6174	66444	We have been consistent and we have a good balance.	We have been consistent and we have a good balance.	3161518	1471999867892	1471999867998	n	78
6174	66444	We have been consistent and we have a good balance.	We have been consistent and we have a good balance.	3161651	1471999868029	1471999868164	c	67
6174	66444	We have been consistent and we have a good balance.	We have been consistent and we have a good balance.	3161654	1471999868144	1471999868302	e	69
6174	66444	We have been consistent and we have a good balance.	We have been consistent and we have a good balance.	3161659	1471999868561	1471999868631	.	190
6174	66469	They play Atlanta here Saturday and Sunday afternoons.	They play Atlanta here Saturday and Sunday afternoons.	3161869	1471999874653	1471999874811	SHIFT	16
6174	66469	They play Atlanta here Saturday and Sunday afternoons.	They play Atlanta here Saturday and Sunday afternoons.	3161871	1471999874774	1471999874886	T	84
6174	66469	They play Atlanta here Saturday and Sunday afternoons.	They play Atlanta here Saturday and Sunday afternoons.	3161873	1471999874941	1471999875047	h	72
6174	66469	They play Atlanta here Saturday and Sunday afternoons.	They play Atlanta here Saturday and Sunday afternoons.	3161874	1471999875017	1471999875144	e	69
6174	66469	They play Atlanta here Saturday and Sunday afternoons.	They play Atlanta here Saturday and Sunday afternoons.	3161875	1471999875157	1471999875250	y	89
6174	66469	They play Atlanta here Saturday and Sunday afternoons.	They play Atlanta here Saturday and Sunday afternoons.	3161876	1471999875328	1471999875440	 	32
6174	66469	They play Atlanta here Saturday and Sunday afternoons.	They play Atlanta here Saturday and Sunday afternoons.	3161915	1471999875590	1471999875671	p	80
6174	66469	They play Atlanta here Saturday and Sunday afternoons.	They play Atlanta here Saturday and Sunday afternoons.	3161922	1471999875807	1471999875920	l	76
6174	66469	They play Atlanta here Saturday and Sunday afternoons.	They play Atlanta here Saturday and Sunday afternoons.	3161931	1471999875969	1471999876081	a	65
6174	66469	They play Atlanta here Saturday and Sunday afternoons.	They play Atlanta here Saturday and Sunday afternoons.	3161937	1471999876066	1471999876177	y	89
6174	66469	They play Atlanta here Saturday and Sunday afternoons.	They play Atlanta here Saturday and Sunday afternoons.	3161943	1471999876274	1471999876382	 	32
6174	66469	They play Atlanta here Saturday and Sunday afternoons.	They play Atlanta here Saturday and Sunday afternoons.	3161981	1471999876472	1471999876692	SHIFT	16
6174	66469	They play Atlanta here Saturday and Sunday afternoons.	They play Atlanta here Saturday and Sunday afternoons.	3161976	1471999876604	1471999876657	A	65
6174	66469	They play Atlanta here Saturday and Sunday afternoons.	They play Atlanta here Saturday and Sunday afternoons.	3161988	1471999876796	1471999876892	t	84
6174	66469	They play Atlanta here Saturday and Sunday afternoons.	They play Atlanta here Saturday and Sunday afternoons.	3161995	1471999876983	1471999877054	a	65
6174	66469	They play Atlanta here Saturday and Sunday afternoons.	They play Atlanta here Saturday and Sunday afternoons.	3162002	1471999877036	1471999877180	l	76
6174	66469	They play Atlanta here Saturday and Sunday afternoons.	They play Atlanta here Saturday and Sunday afternoons.	3162010	1471999877437	1471999877487	BKSP	8
6174	66469	They play Atlanta here Saturday and Sunday afternoons.	They play Atlanta here Saturday and Sunday afternoons.	3162014	1471999877574	1471999877646	BKSP	8
6174	66469	They play Atlanta here Saturday and Sunday afternoons.	They play Atlanta here Saturday and Sunday afternoons.	3162018	1471999877804	1471999877898	l	76
6174	66469	They play Atlanta here Saturday and Sunday afternoons.	They play Atlanta here Saturday and Sunday afternoons.	3162024	1471999877908	1471999878040	a	65
6174	66469	They play Atlanta here Saturday and Sunday afternoons.	They play Atlanta here Saturday and Sunday afternoons.	3162026	1471999878008	1471999878142	n	78
6174	66469	They play Atlanta here Saturday and Sunday afternoons.	They play Atlanta here Saturday and Sunday afternoons.	3162028	1471999878155	1471999878264	t	84
6174	66469	They play Atlanta here Saturday and Sunday afternoons.	They play Atlanta here Saturday and Sunday afternoons.	3162030	1471999878352	1471999878455	a	65
6174	66469	They play Atlanta here Saturday and Sunday afternoons.	They play Atlanta here Saturday and Sunday afternoons.	3162034	1471999878501	1471999878595	 	32
6174	66469	They play Atlanta here Saturday and Sunday afternoons.	They play Atlanta here Saturday and Sunday afternoons.	3162081	1471999878731	1471999878817	h	72
6174	66469	They play Atlanta here Saturday and Sunday afternoons.	They play Atlanta here Saturday and Sunday afternoons.	3162082	1471999879284	1471999879414	e	69
6174	66469	They play Atlanta here Saturday and Sunday afternoons.	They play Atlanta here Saturday and Sunday afternoons.	3162084	1471999879377	1471999879557	r	82
6174	66469	They play Atlanta here Saturday and Sunday afternoons.	They play Atlanta here Saturday and Sunday afternoons.	3162086	1471999879514	1471999879649	e	69
6174	66469	They play Atlanta here Saturday and Sunday afternoons.	They play Atlanta here Saturday and Sunday afternoons.	3162089	1471999879660	1471999879753	 	32
6174	66469	They play Atlanta here Saturday and Sunday afternoons.	They play Atlanta here Saturday and Sunday afternoons.	3162212	1471999879870	1471999880059	SHIFT	16
6174	66469	They play Atlanta here Saturday and Sunday afternoons.	They play Atlanta here Saturday and Sunday afternoons.	3162209	1471999879944	1471999880032	S	83
6174	66469	They play Atlanta here Saturday and Sunday afternoons.	They play Atlanta here Saturday and Sunday afternoons.	3162220	1471999880133	1471999880242	a	65
6174	66469	They play Atlanta here Saturday and Sunday afternoons.	They play Atlanta here Saturday and Sunday afternoons.	3162228	1471999880339	1471999880460	t	84
6174	66469	They play Atlanta here Saturday and Sunday afternoons.	They play Atlanta here Saturday and Sunday afternoons.	3162235	1471999880430	1471999880548	u	85
6174	66469	They play Atlanta here Saturday and Sunday afternoons.	They play Atlanta here Saturday and Sunday afternoons.	3162240	1471999881936	1471999882054	r	82
6174	66469	They play Atlanta here Saturday and Sunday afternoons.	They play Atlanta here Saturday and Sunday afternoons.	3162286	1471999882235	1471999882320	d	68
6174	66469	They play Atlanta here Saturday and Sunday afternoons.	They play Atlanta here Saturday and Sunday afternoons.	3162288	1471999882440	1471999882578	a	65
6174	66469	They play Atlanta here Saturday and Sunday afternoons.	They play Atlanta here Saturday and Sunday afternoons.	3162290	1471999882984	1471999883107	y	89
6174	66469	They play Atlanta here Saturday and Sunday afternoons.	They play Atlanta here Saturday and Sunday afternoons.	3162292	1471999883212	1471999883339	 	32
6174	66469	They play Atlanta here Saturday and Sunday afternoons.	They play Atlanta here Saturday and Sunday afternoons.	3162323	1471999883331	1471999883415	a	65
6174	66469	They play Atlanta here Saturday and Sunday afternoons.	They play Atlanta here Saturday and Sunday afternoons.	3162326	1471999883418	1471999883522	n	78
6174	66469	They play Atlanta here Saturday and Sunday afternoons.	They play Atlanta here Saturday and Sunday afternoons.	3162329	1471999883547	1471999883666	d	68
6174	66469	They play Atlanta here Saturday and Sunday afternoons.	They play Atlanta here Saturday and Sunday afternoons.	3162337	1471999883630	1471999883723	 	32
6174	66469	They play Atlanta here Saturday and Sunday afternoons.	They play Atlanta here Saturday and Sunday afternoons.	3162346	1471999883850	1471999884021	SHIFT	16
6174	66469	They play Atlanta here Saturday and Sunday afternoons.	They play Atlanta here Saturday and Sunday afternoons.	3162354	1471999883911	1471999884026	S	83
6174	66469	They play Atlanta here Saturday and Sunday afternoons.	They play Atlanta here Saturday and Sunday afternoons.	3162362	1471999884132	1471999884319	u	85
6174	66469	They play Atlanta here Saturday and Sunday afternoons.	They play Atlanta here Saturday and Sunday afternoons.	3162383	1471999884247	1471999884397	n	78
6174	66469	They play Atlanta here Saturday and Sunday afternoons.	They play Atlanta here Saturday and Sunday afternoons.	3162386	1471999884374	1471999884471	d	68
6174	66469	They play Atlanta here Saturday and Sunday afternoons.	They play Atlanta here Saturday and Sunday afternoons.	3162390	1471999884542	1471999884693	a	65
6174	66469	They play Atlanta here Saturday and Sunday afternoons.	They play Atlanta here Saturday and Sunday afternoons.	3162393	1471999884632	1471999884748	y	89
6174	66469	They play Atlanta here Saturday and Sunday afternoons.	They play Atlanta here Saturday and Sunday afternoons.	3162398	1471999884886	1471999884994	 	32
6174	66469	They play Atlanta here Saturday and Sunday afternoons.	They play Atlanta here Saturday and Sunday afternoons.	3162402	1471999885102	1471999885179	a	65
6174	66469	They play Atlanta here Saturday and Sunday afternoons.	They play Atlanta here Saturday and Sunday afternoons.	3162443	1471999885314	1471999885362	f	70
6174	66469	They play Atlanta here Saturday and Sunday afternoons.	They play Atlanta here Saturday and Sunday afternoons.	3162446	1471999885772	1471999885857	t	84
6174	66469	They play Atlanta here Saturday and Sunday afternoons.	They play Atlanta here Saturday and Sunday afternoons.	3162450	1471999885921	1471999886115	e	69
6174	66469	They play Atlanta here Saturday and Sunday afternoons.	They play Atlanta here Saturday and Sunday afternoons.	3162455	1471999886040	1471999886145	r	82
6174	66469	They play Atlanta here Saturday and Sunday afternoons.	They play Atlanta here Saturday and Sunday afternoons.	3162464	1471999886176	1471999886301	n	78
6174	66469	They play Atlanta here Saturday and Sunday afternoons.	They play Atlanta here Saturday and Sunday afternoons.	3162494	1471999886529	1471999886596	o	79
6174	66469	They play Atlanta here Saturday and Sunday afternoons.	They play Atlanta here Saturday and Sunday afternoons.	3162495	1471999886665	1471999886804	o	79
6174	66469	They play Atlanta here Saturday and Sunday afternoons.	They play Atlanta here Saturday and Sunday afternoons.	3162496	1471999886826	1471999886962	n	78
6174	66469	They play Atlanta here Saturday and Sunday afternoons.	They play Atlanta here Saturday and Sunday afternoons.	3162497	1471999886969	1471999887081	s	83
6174	66469	They play Atlanta here Saturday and Sunday afternoons.	They play Atlanta here Saturday and Sunday afternoons.	3162498	1471999887098	1471999887222	.	190
6174	66483	I can't tell you when he'll be back.	I can't tell you when he'll be back.	3162707	1471999892359	1471999892551	SHIFT	16
6174	66483	I can't tell you when he'll be back.	I can't tell you when he'll be back.	3162711	1471999892484	1471999892604	I	73
6174	66483	I can't tell you when he'll be back.	I can't tell you when he'll be back.	3162715	1471999892706	1471999892827	 	32
6174	66483	I can't tell you when he'll be back.	I can't tell you when he'll be back.	3162716	1471999892803	1471999892880	c	67
6174	66483	I can't tell you when he'll be back.	I can't tell you when he'll be back.	3162717	1471999892943	1471999893077	a	65
6174	66483	I can't tell you when he'll be back.	I can't tell you when he'll be back.	3162745	1471999893010	1471999893192	n	78
6174	66483	I can't tell you when he'll be back.	I can't tell you when he'll be back.	3162749	1471999893136	1471999893300	'	222
6174	66483	I can't tell you when he'll be back.	I can't tell you when he'll be back.	3162752	1471999893275	1471999893401	t	84
6174	66483	I can't tell you when he'll be back.	I can't tell you when he'll be back.	3162753	1471999893464	1471999893586	 	32
6174	66483	I can't tell you when he'll be back.	I can't tell you when he'll be back.	3162754	1471999893883	1471999894007	t	84
6174	66483	I can't tell you when he'll be back.	I can't tell you when he'll be back.	3162769	1471999893990	1471999894136	e	69
6174	66483	I can't tell you when he'll be back.	I can't tell you when he'll be back.	3162770	1471999894114	1471999894176	l	76
6174	66483	I can't tell you when he'll be back.	I can't tell you when he'll be back.	3162771	1471999894254	1471999894352	l	76
6174	66483	I can't tell you when he'll be back.	I can't tell you when he'll be back.	3162772	1471999894370	1471999894476	 	32
6174	66483	I can't tell you when he'll be back.	I can't tell you when he'll be back.	3162774	1471999894582	1471999894703	y	89
6174	66483	I can't tell you when he'll be back.	I can't tell you when he'll be back.	3162776	1471999894741	1471999894867	o	79
6174	66483	I can't tell you when he'll be back.	I can't tell you when he'll be back.	3162788	1471999894811	1471999894903	u	85
6174	66483	I can't tell you when he'll be back.	I can't tell you when he'll be back.	3162791	1471999894961	1471999895089	 	32
6174	66483	I can't tell you when he'll be back.	I can't tell you when he'll be back.	3162793	1471999895122	1471999895210	w	87
6174	66483	I can't tell you when he'll be back.	I can't tell you when he'll be back.	3162795	1471999895152	1471999895244	h	72
6174	66483	I can't tell you when he'll be back.	I can't tell you when he'll be back.	3162797	1471999895328	1471999895462	n	78
6174	66483	I can't tell you when he'll be back.	I can't tell you when he'll be back.	3162865	1471999895356	1471999895479	e	69
6174	66483	I can't tell you when he'll be back.	I can't tell you when he'll be back.	3162868	1471999896033	1471999896095	BKSP	8
6174	66483	I can't tell you when he'll be back.	I can't tell you when he'll be back.	3162872	1471999896177	1471999896284	BKSP	8
6174	66483	I can't tell you when he'll be back.	I can't tell you when he'll be back.	3162875	1471999896315	1471999896436	e	69
6174	66483	I can't tell you when he'll be back.	I can't tell you when he'll be back.	3162877	1471999896422	1471999896491	n	78
6174	66483	I can't tell you when he'll be back.	I can't tell you when he'll be back.	3162879	1471999896588	1471999896690	 	32
6174	66483	I can't tell you when he'll be back.	I can't tell you when he'll be back.	3162881	1471999896718	1471999896831	h	72
6174	66483	I can't tell you when he'll be back.	I can't tell you when he'll be back.	3162916	1471999896766	1471999896870	e	69
6174	66483	I can't tell you when he'll be back.	I can't tell you when he'll be back.	3162917	1471999897195	1471999897310	'	222
6174	66483	I can't tell you when he'll be back.	I can't tell you when he'll be back.	3162918	1471999897448	1471999897504	l	76
6174	66483	I can't tell you when he'll be back.	I can't tell you when he'll be back.	3162919	1471999897615	1471999897715	l	76
6174	66483	I can't tell you when he'll be back.	I can't tell you when he'll be back.	3162921	1471999897878	1471999897992	 	32
6174	66483	I can't tell you when he'll be back.	I can't tell you when he'll be back.	3162925	1471999898222	1471999898345	b	66
6174	66483	I can't tell you when he'll be back.	I can't tell you when he'll be back.	3162946	1471999898378	1471999898524	e	69
6174	66483	I can't tell you when he'll be back.	I can't tell you when he'll be back.	3162947	1471999898492	1471999898587	 	32
6174	66483	I can't tell you when he'll be back.	I can't tell you when he'll be back.	3162948	1471999898667	1471999898785	b	66
6174	66483	I can't tell you when he'll be back.	I can't tell you when he'll be back.	3162950	1471999898710	1471999898809	a	65
6174	66483	I can't tell you when he'll be back.	I can't tell you when he'll be back.	3162953	1471999898881	1471999899022	c	67
6174	66483	I can't tell you when he'll be back.	I can't tell you when he'll be back.	3163084	1471999898982	1471999899071	l	76
6174	66483	I can't tell you when he'll be back.	I can't tell you when he'll be back.	3163086	1471999899266	1471999899404	.	190
6174	66483	I can't tell you when he'll be back.	I can't tell you when he'll be back.	3163089	1471999899704	1471999899754	BKSP	8
6174	66483	I can't tell you when he'll be back.	I can't tell you when he'll be back.	3163092	1471999899840	1471999899918	BKSP	8
6174	66483	I can't tell you when he'll be back.	I can't tell you when he'll be back.	3163097	1471999900183	1471999900244	k	75
6174	66483	I can't tell you when he'll be back.	I can't tell you when he'll be back.	3163099	1471999900417	1471999900478	,	188
6174	66483	I can't tell you when he'll be back.	I can't tell you when he'll be back.	3163102	1471999901119	1471999901203	BKSP	8
6174	66483	I can't tell you when he'll be back.	I can't tell you when he'll be back.	3163107	1471999901382	1471999901466	/	191
6174	66483	I can't tell you when he'll be back.	I can't tell you when he'll be back.	3163111	1471999902089	1471999902186	BKSP	8
6174	66483	I can't tell you when he'll be back.	I can't tell you when he'll be back.	3163115	1471999902362	1471999902450	.	190
6174	66495	Do we have anyone in Portland?	Do we have anyone in Portland?	3163294	1471999907788	1471999908093	SHIFT	16
6174	66495	Do we have anyone in Portland?	Do we have anyone in Portland?	3163297	1471999908008	1471999908120	D	68
6174	66495	Do we have anyone in Portland?	Do we have anyone in Portland?	3163299	1471999908255	1471999908324	o	79
6174	66495	Do we have anyone in Portland?	Do we have anyone in Portland?	3163300	1471999908441	1471999908576	 	32
6174	66495	Do we have anyone in Portland?	Do we have anyone in Portland?	3163301	1471999908605	1471999908774	w	87
6174	66495	Do we have anyone in Portland?	Do we have anyone in Portland?	3163310	1471999908710	1471999908838	e	69
6174	66495	Do we have anyone in Portland?	Do we have anyone in Portland?	3163312	1471999908811	1471999908897	 	32
6174	66495	Do we have anyone in Portland?	Do we have anyone in Portland?	3163316	1471999908947	1471999909066	h	72
6174	66495	Do we have anyone in Portland?	Do we have anyone in Portland?	3163318	1471999909019	1471999909096	a	65
6174	66495	Do we have anyone in Portland?	Do we have anyone in Portland?	3163320	1471999909180	1471999909339	v	86
6174	66495	Do we have anyone in Portland?	Do we have anyone in Portland?	3163340	1471999909290	1471999909446	e	69
6174	66495	Do we have anyone in Portland?	Do we have anyone in Portland?	3163342	1471999909356	1471999909463	 	32
6174	66495	Do we have anyone in Portland?	Do we have anyone in Portland?	3163346	1471999909580	1471999909706	a	65
6174	66495	Do we have anyone in Portland?	Do we have anyone in Portland?	3163349	1471999909762	1471999909846	y	89
6174	66495	Do we have anyone in Portland?	Do we have anyone in Portland?	3163352	1471999909940	1471999910102	o	79
6174	66495	Do we have anyone in Portland?	Do we have anyone in Portland?	3163392	1471999910024	1471999910164	n	78
6174	66495	Do we have anyone in Portland?	Do we have anyone in Portland?	3163394	1471999910187	1471999910258	e	69
6174	66495	Do we have anyone in Portland?	Do we have anyone in Portland?	3163397	1471999910411	1471999910470	BKSP	8
6174	66495	Do we have anyone in Portland?	Do we have anyone in Portland?	3163399	1471999910542	1471999910603	BKSP	8
6174	66495	Do we have anyone in Portland?	Do we have anyone in Portland?	3163401	1471999910683	1471999910739	BKSP	8
6174	66495	Do we have anyone in Portland?	Do we have anyone in Portland?	3163403	1471999910806	1471999910910	BKSP	8
6174	66495	Do we have anyone in Portland?	Do we have anyone in Portland?	3163405	1471999911060	1471999911184	n	78
6174	66495	Do we have anyone in Portland?	Do we have anyone in Portland?	3163409	1471999911313	1471999911418	y	89
6174	66495	Do we have anyone in Portland?	Do we have anyone in Portland?	3163411	1471999911723	1471999911895	o	79
6174	66495	Do we have anyone in Portland?	Do we have anyone in Portland?	3163427	1471999911823	1471999911944	n	78
6174	66495	Do we have anyone in Portland?	Do we have anyone in Portland?	3163431	1471999911907	1471999912035	e	69
6174	66495	Do we have anyone in Portland?	Do we have anyone in Portland?	3163434	1471999912048	1471999912116	 	32
6174	66495	Do we have anyone in Portland?	Do we have anyone in Portland?	3163438	1471999912202	1471999912352	i	73
6174	66495	Do we have anyone in Portland?	Do we have anyone in Portland?	3163441	1471999912280	1471999912392	n	78
6174	66495	Do we have anyone in Portland?	Do we have anyone in Portland?	3163443	1471999912481	1471999912563	 	32
6174	66495	Do we have anyone in Portland?	Do we have anyone in Portland?	3163560	1471999912678	1471999912956	SHIFT	16
6174	66495	Do we have anyone in Portland?	Do we have anyone in Portland?	3163562	1471999912820	1471999912990	P	80
6174	66495	Do we have anyone in Portland?	Do we have anyone in Portland?	3163564	1471999914984	1471999915095	o	79
6174	66495	Do we have anyone in Portland?	Do we have anyone in Portland?	3163567	1471999915154	1471999915252	t	84
6174	66495	Do we have anyone in Portland?	Do we have anyone in Portland?	3163570	1471999915582	1471999915693	BKSP	8
6174	66495	Do we have anyone in Portland?	Do we have anyone in Portland?	3163573	1471999915687	1471999915757	r	82
6174	66495	Do we have anyone in Portland?	Do we have anyone in Portland?	3163578	1471999915876	1471999915967	t	84
6174	66495	Do we have anyone in Portland?	Do we have anyone in Portland?	3163609	1471999916258	1471999916390	l	76
6174	66495	Do we have anyone in Portland?	Do we have anyone in Portland?	3163611	1471999916412	1471999916541	a	65
6174	66495	Do we have anyone in Portland?	Do we have anyone in Portland?	3163614	1471999916535	1471999916584	n	78
6174	66495	Do we have anyone in Portland?	Do we have anyone in Portland?	3163618	1471999916703	1471999916813	d	68
6174	66495	Do we have anyone in Portland?	Do we have anyone in Portland?	3163621	1471999916903	1471999917089	SHIFT	16
6174	66495	Do we have anyone in Portland?	Do we have anyone in Portland?	3163684	1471999916995	1471999917155	?	191
6174	66505	Theresa, I changed the CIG fuel rate to.	Tberesa, I changed the CIG fuel rate to.	3163969	1471999924949	1471999925229	SHIFT	16
6174	66505	Theresa, I changed the CIG fuel rate to.	Tberesa, I changed the CIG fuel rate to.	3163964	1471999925095	1471999925205	T	84
6174	66505	Theresa, I changed the CIG fuel rate to.	Tberesa, I changed the CIG fuel rate to.	3163974	1471999925448	1471999925557	b	66
6174	66505	Theresa, I changed the CIG fuel rate to.	Tberesa, I changed the CIG fuel rate to.	3163977	1471999925562	1471999925687	e	69
6174	66505	Theresa, I changed the CIG fuel rate to.	Tberesa, I changed the CIG fuel rate to.	3164061	1471999925758	1471999925979	e	82
6174	66505	Theresa, I changed the CIG fuel rate to.	Tberesa, I changed the CIG fuel rate to.	3164063	1471999925961	1471999926073	e	69
6174	66505	Theresa, I changed the CIG fuel rate to.	Tberesa, I changed the CIG fuel rate to.	3164068	1471999926796	1471999926867	BKSP	8
6174	66505	Theresa, I changed the CIG fuel rate to.	Tberesa, I changed the CIG fuel rate to.	3164073	1471999926933	1471999927053	s	83
6174	66505	Theresa, I changed the CIG fuel rate to.	Tberesa, I changed the CIG fuel rate to.	3164079	1471999927227	1471999927343	a	65
6174	66505	Theresa, I changed the CIG fuel rate to.	Tberesa, I changed the CIG fuel rate to.	3164082	1471999927609	1471999927701	,	188
6174	66505	Theresa, I changed the CIG fuel rate to.	Tberesa, I changed the CIG fuel rate to.	3164088	1471999928000	1471999928205	SHIFT	16
6174	66505	Theresa, I changed the CIG fuel rate to.	Tberesa, I changed the CIG fuel rate to.	3164099	1471999928128	1471999928240	I	73
6174	66505	Theresa, I changed the CIG fuel rate to.	Tberesa, I changed the CIG fuel rate to.	3164103	1471999928346	1471999928450	 	32
6174	66505	Theresa, I changed the CIG fuel rate to.	Tberesa, I changed the CIG fuel rate to.	3164107	1471999928459	1471999928558	c	67
6174	66505	Theresa, I changed the CIG fuel rate to.	Tberesa, I changed the CIG fuel rate to.	3164110	1471999928539	1471999928622	h	72
6174	66505	Theresa, I changed the CIG fuel rate to.	Tberesa, I changed the CIG fuel rate to.	3164113	1471999928643	1471999928759	a	65
6174	66505	Theresa, I changed the CIG fuel rate to.	Tberesa, I changed the CIG fuel rate to.	3164142	1471999928733	1471999928856	n	78
6174	66505	Theresa, I changed the CIG fuel rate to.	Tberesa, I changed the CIG fuel rate to.	3164144	1471999928912	1471999929101	g	71
6174	66505	Theresa, I changed the CIG fuel rate to.	Tberesa, I changed the CIG fuel rate to.	3164146	1471999929037	1471999929176	e	69
6174	66505	Theresa, I changed the CIG fuel rate to.	Tberesa, I changed the CIG fuel rate to.	3164147	1471999929284	1471999929400	d	68
6174	66505	Theresa, I changed the CIG fuel rate to.	Tberesa, I changed the CIG fuel rate to.	3164148	1471999929396	1471999929489	 	32
6174	66505	Theresa, I changed the CIG fuel rate to.	Tberesa, I changed the CIG fuel rate to.	3164149	1471999929517	1471999929608	t	84
6174	66505	Theresa, I changed the CIG fuel rate to.	Tberesa, I changed the CIG fuel rate to.	3164206	1471999929613	1471999929712	h	72
6174	66505	Theresa, I changed the CIG fuel rate to.	Tberesa, I changed the CIG fuel rate to.	3164210	1471999929686	1471999929841	e	69
6174	66505	Theresa, I changed the CIG fuel rate to.	Tberesa, I changed the CIG fuel rate to.	3164213	1471999929827	1471999929980	 	32
6174	66505	Theresa, I changed the CIG fuel rate to.	Tberesa, I changed the CIG fuel rate to.	3164291	1471999930187	1471999931268	SHIFT	16
6174	66505	Theresa, I changed the CIG fuel rate to.	Tberesa, I changed the CIG fuel rate to.	3164218	1471999930530	1471999930650	C	67
6174	66505	Theresa, I changed the CIG fuel rate to.	Tberesa, I changed the CIG fuel rate to.	3164223	1471999930699	1471999930810	I	73
6174	66505	Theresa, I changed the CIG fuel rate to.	Tberesa, I changed the CIG fuel rate to.	3164289	1471999930883	1471999931004	G	71
6174	66505	Theresa, I changed the CIG fuel rate to.	Tberesa, I changed the CIG fuel rate to.	3164293	1471999931486	1471999931604	 	32
6174	66505	Theresa, I changed the CIG fuel rate to.	Tberesa, I changed the CIG fuel rate to.	3164295	1471999931649	1471999931759	f	70
6174	66505	Theresa, I changed the CIG fuel rate to.	Tberesa, I changed the CIG fuel rate to.	3164298	1471999931778	1471999931914	u	85
6174	66505	Theresa, I changed the CIG fuel rate to.	Tberesa, I changed the CIG fuel rate to.	3164301	1471999932089	1471999932151	e	69
6174	66505	Theresa, I changed the CIG fuel rate to.	Tberesa, I changed the CIG fuel rate to.	3164348	1471999932362	1471999932474	l	76
6174	66505	Theresa, I changed the CIG fuel rate to.	Tberesa, I changed the CIG fuel rate to.	3164352	1471999932692	1471999932812	 	32
6174	66505	Theresa, I changed the CIG fuel rate to.	Tberesa, I changed the CIG fuel rate to.	3164356	1471999932838	1471999932993	r	82
6174	66505	Theresa, I changed the CIG fuel rate to.	Tberesa, I changed the CIG fuel rate to.	3164362	1471999932940	1471999933058	e	69
6174	66505	Theresa, I changed the CIG fuel rate to.	Tberesa, I changed the CIG fuel rate to.	3164368	1471999933179	1471999933283	a	65
6174	66505	Theresa, I changed the CIG fuel rate to.	Tberesa, I changed the CIG fuel rate to.	3164386	1471999933608	1471999933682	BKSP	8
6174	66505	Theresa, I changed the CIG fuel rate to.	Tberesa, I changed the CIG fuel rate to.	3164389	1471999933771	1471999933870	BKSP	8
6174	66505	Theresa, I changed the CIG fuel rate to.	Tberesa, I changed the CIG fuel rate to.	3164392	1471999933851	1471999933927	a	65
6174	66505	Theresa, I changed the CIG fuel rate to.	Tberesa, I changed the CIG fuel rate to.	3164394	1471999934041	1471999934178	t	84
6174	66505	Theresa, I changed the CIG fuel rate to.	Tberesa, I changed the CIG fuel rate to.	3164396	1471999934105	1471999934262	e	69
6174	66505	Theresa, I changed the CIG fuel rate to.	Tberesa, I changed the CIG fuel rate to.	3164399	1471999934197	1471999934338	 	32
6174	66505	Theresa, I changed the CIG fuel rate to.	Tberesa, I changed the CIG fuel rate to.	3164401	1471999934376	1471999934479	t	84
6174	66505	Theresa, I changed the CIG fuel rate to.	Tberesa, I changed the CIG fuel rate to.	3164668	1471999934451	1471999934522	o	79
6174	66505	Theresa, I changed the CIG fuel rate to.	Tberesa, I changed the CIG fuel rate to.	3164669	1471999934775	1471999934900	.	190
6174	66505	Theresa, I changed the CIG fuel rate to.	Tberesa, I changed the CIG fuel rate to.	3164671	1471999936459	1471999936619	ARw_DOWN	40
6174	66505	Theresa, I changed the CIG fuel rate to.	Tberesa, I changed the CIG fuel rate to.	3164674	1471999936845	1471999937869	ARW_LEFT	37
6174	66505	Theresa, I changed the CIG fuel rate to.	Tberesa, I changed the CIG fuel rate to.	3164677	1471999938060	1471999938867	ARW_LEFT	37
6174	66505	Theresa, I changed the CIG fuel rate to.	Tberesa, I changed the CIG fuel rate to.	3164680	1471999939279	1471999939444	 	32
6174	66528	I was going to call you but I hate to bother your holiday.	I was going to call you, but I hate to bother your holiday.	3164927	1471999945723	1471999945922	SHIFT	16
6174	66528	I was going to call you but I hate to bother your holiday.	I was going to call you, but I hate to bother your holiday.	3164931	1471999945861	1471999945969	I	73
6174	66528	I was going to call you but I hate to bother your holiday.	I was going to call you, but I hate to bother your holiday.	3164937	1471999946073	1471999946191	 	32
6174	66528	I was going to call you but I hate to bother your holiday.	I was going to call you, but I hate to bother your holiday.	3164943	1471999947250	1471999947335	w	87
6174	66528	I was going to call you but I hate to bother your holiday.	I was going to call you, but I hate to bother your holiday.	3164945	1471999947368	1471999947569	a	65
6174	66528	I was going to call you but I hate to bother your holiday.	I was going to call you, but I hate to bother your holiday.	3164955	1471999947508	1471999947640	s	83
6174	66528	I was going to call you but I hate to bother your holiday.	I was going to call you, but I hate to bother your holiday.	3164957	1471999947628	1471999947780	 	32
6174	66528	I was going to call you but I hate to bother your holiday.	I was going to call you, but I hate to bother your holiday.	3164959	1471999947854	1471999947973	g	71
6174	66528	I was going to call you but I hate to bother your holiday.	I was going to call you, but I hate to bother your holiday.	3164963	1471999947983	1471999948185	o	79
6174	66528	I was going to call you but I hate to bother your holiday.	I was going to call you, but I hate to bother your holiday.	3164986	1471999948059	1471999948268	i	73
6174	66528	I was going to call you but I hate to bother your holiday.	I was going to call you, but I hate to bother your holiday.	3164989	1471999948169	1471999948306	n	78
6174	66528	I was going to call you but I hate to bother your holiday.	I was going to call you, but I hate to bother your holiday.	3164992	1471999948289	1471999948392	g	71
6174	66528	I was going to call you but I hate to bother your holiday.	I was going to call you, but I hate to bother your holiday.	3164994	1471999948416	1471999948528	 	32
6174	66528	I was going to call you but I hate to bother your holiday.	I was going to call you, but I hate to bother your holiday.	3164997	1471999948543	1471999948662	t	84
6174	66528	I was going to call you but I hate to bother your holiday.	I was going to call you, but I hate to bother your holiday.	3164999	1471999948635	1471999948761	o	79
6174	66528	I was going to call you but I hate to bother your holiday.	I was going to call you, but I hate to bother your holiday.	3165005	1471999948724	1471999948866	 	32
6174	66528	I was going to call you but I hate to bother your holiday.	I was going to call you, but I hate to bother your holiday.	3165008	1471999948834	1471999948948	c	67
6174	66528	I was going to call you but I hate to bother your holiday.	I was going to call you, but I hate to bother your holiday.	3165010	1471999948988	1471999949134	a	65
6174	66528	I was going to call you but I hate to bother your holiday.	I was going to call you, but I hate to bother your holiday.	3165012	1471999949080	1471999949152	l	76
6174	66528	I was going to call you but I hate to bother your holiday.	I was going to call you, but I hate to bother your holiday.	3165014	1471999949241	1471999949369	l	76
6174	66528	I was going to call you but I hate to bother your holiday.	I was going to call you, but I hate to bother your holiday.	3165041	1471999949349	1471999949480	 	32
6174	66528	I was going to call you but I hate to bother your holiday.	I was going to call you, but I hate to bother your holiday.	3165044	1471999949545	1471999949678	y	89
6174	66528	I was going to call you but I hate to bother your holiday.	I was going to call you, but I hate to bother your holiday.	3165046	1471999949718	1471999949867	o	79
6174	66528	I was going to call you but I hate to bother your holiday.	I was going to call you, but I hate to bother your holiday.	3165050	1471999949782	1471999949901	u	85
6174	66528	I was going to call you but I hate to bother your holiday.	I was going to call you, but I hate to bother your holiday.	3165055	1471999950077	1471999950192	,	188
6174	66528	I was going to call you but I hate to bother your holiday.	I was going to call you, but I hate to bother your holiday.	3165059	1471999950278	1471999950395	 	32
6174	66528	I was going to call you but I hate to bother your holiday.	I was going to call you, but I hate to bother your holiday.	3165109	1471999950499	1471999950679	b	66
6174	66528	I was going to call you but I hate to bother your holiday.	I was going to call you, but I hate to bother your holiday.	3165113	1471999950589	1471999950730	u	85
6174	66528	I was going to call you but I hate to bother your holiday.	I was going to call you, but I hate to bother your holiday.	3165116	1471999950712	1471999950837	t	84
6174	66528	I was going to call you but I hate to bother your holiday.	I was going to call you, but I hate to bother your holiday.	3165119	1471999950801	1471999950913	 	32
6174	66528	I was going to call you but I hate to bother your holiday.	I was going to call you, but I hate to bother your holiday.	3165121	1471999951230	1471999951414	SHIFT	16
6174	66528	I was going to call you but I hate to bother your holiday.	I was going to call you, but I hate to bother your holiday.	3165147	1471999951346	1471999951452	I	73
6174	66528	I was going to call you but I hate to bother your holiday.	I was going to call you, but I hate to bother your holiday.	3165151	1471999951564	1471999951658	 	32
6174	66528	I was going to call you but I hate to bother your holiday.	I was going to call you, but I hate to bother your holiday.	3165155	1471999951735	1471999951838	h	72
6174	66528	I was going to call you but I hate to bother your holiday.	I was going to call you, but I hate to bother your holiday.	3165159	1471999951829	1471999951922	a	65
6174	66528	I was going to call you but I hate to bother your holiday.	I was going to call you, but I hate to bother your holiday.	3165160	1471999952041	1471999952215	t	84
6174	66528	I was going to call you but I hate to bother your holiday.	I was going to call you, but I hate to bother your holiday.	3165205	1471999952136	1471999952301	e	69
6174	66528	I was going to call you but I hate to bother your holiday.	I was going to call you, but I hate to bother your holiday.	3165208	1471999952268	1471999952414	 	32
6174	66528	I was going to call you but I hate to bother your holiday.	I was going to call you, but I hate to bother your holiday.	3165211	1471999952426	1471999952531	t	84
6174	66528	I was going to call you but I hate to bother your holiday.	I was going to call you, but I hate to bother your holiday.	3165215	1471999952599	1471999952732	o	79
6174	66528	I was going to call you but I hate to bother your holiday.	I was going to call you, but I hate to bother your holiday.	3165219	1471999952833	1471999952882	 	32
6174	66528	I was going to call you but I hate to bother your holiday.	I was going to call you, but I hate to bother your holiday.	3165221	1471999953087	1471999953275	b	66
6174	66528	I was going to call you but I hate to bother your holiday.	I was going to call you, but I hate to bother your holiday.	3165240	1471999953210	1471999953323	o	79
6174	66528	I was going to call you but I hate to bother your holiday.	I was going to call you, but I hate to bother your holiday.	3165243	1471999953336	1471999953440	t	84
6174	66528	I was going to call you but I hate to bother your holiday.	I was going to call you, but I hate to bother your holiday.	3165247	1471999953415	1471999953540	h	72
6174	66528	I was going to call you but I hate to bother your holiday.	I was going to call you, but I hate to bother your holiday.	3165250	1471999953555	1471999953750	e	69
6174	66528	I was going to call you but I hate to bother your holiday.	I was going to call you, but I hate to bother your holiday.	3165254	1471999953655	1471999953782	r	82
6174	66528	I was going to call you but I hate to bother your holiday.	I was going to call you, but I hate to bother your holiday.	3165266	1471999953768	1471999953884	 	32
6174	66528	I was going to call you but I hate to bother your holiday.	I was going to call you, but I hate to bother your holiday.	3165267	1471999954006	1471999954096	y	89
6174	66528	I was going to call you but I hate to bother your holiday.	I was going to call you, but I hate to bother your holiday.	3165269	1471999954152	1471999954299	o	79
6174	66528	I was going to call you but I hate to bother your holiday.	I was going to call you, but I hate to bother your holiday.	3165271	1471999954216	1471999954342	u	85
6174	66528	I was going to call you but I hate to bother your holiday.	I was going to call you, but I hate to bother your holiday.	3165273	1471999954350	1471999954458	r	82
6174	66528	I was going to call you but I hate to bother your holiday.	I was going to call you, but I hate to bother your holiday.	3165344	1471999954453	1471999954587	 	32
6174	66528	I was going to call you but I hate to bother your holiday.	I was going to call you, but I hate to bother your holiday.	3165347	1471999955025	1471999955263	SHIFT	16
6174	66528	I was going to call you but I hate to bother your holiday.	I was going to call you, but I hate to bother your holiday.	3165350	1471999955201	1471999955358	H	72
6174	66528	I was going to call you but I hate to bother your holiday.	I was going to call you, but I hate to bother your holiday.	3165355	1471999955790	1471999955882	BKSP	8
6174	66528	I was going to call you but I hate to bother your holiday.	I was going to call you, but I hate to bother your holiday.	3165361	1471999956120	1471999956272	h	72
6174	66528	I was going to call you but I hate to bother your holiday.	I was going to call you, but I hate to bother your holiday.	3165364	1471999956247	1471999956332	o	79
6174	66528	I was going to call you but I hate to bother your holiday.	I was going to call you, but I hate to bother your holiday.	3165367	1471999956441	1471999956604	l	76
6174	66528	I was going to call you but I hate to bother your holiday.	I was going to call you, but I hate to bother your holiday.	3165752	1471999956563	1471999956737	i	73
6174	66528	I was going to call you but I hate to bother your holiday.	I was going to call you, but I hate to bother your holiday.	3165755	1471999956706	1471999956802	d	68
6174	66528	I was going to call you but I hate to bother your holiday.	I was going to call you, but I hate to bother your holiday.	3165757	1471999956883	1471999957010	a	65
6174	66528	I was going to call you but I hate to bother your holiday.	I was going to call you, but I hate to bother your holiday.	3165760	1471999957054	1471999957200	y	89
6174	66528	I was going to call you but I hate to bother your holiday.	I was going to call you, but I hate to bother your holiday.	3165764	1471999957450	1471999957556	.	190
6174	66549	US vessels will form two separate training units.	US vessles will form two separate training units.	3166007	1471999968861	1471999969218	SHIFT	16
6174	66549	US vessels will form two separate training units.	US vessles will form two separate training units.	3166009	1471999969144	1471999969275	U	85
6174	66549	US vessels will form two separate training units.	US vessles will form two separate training units.	3166014	1471999969284	1471999969433	s	83
6174	66549	US vessels will form two separate training units.	US vessles will form two separate training units.	3166019	1471999969836	1471999969906	BKSP	8
6174	66549	US vessels will form two separate training units.	US vessles will form two separate training units.	3166020	1471999970065	1471999970232	SHIFT	16
6174	66549	US vessels will form two separate training units.	US vessles will form two separate training units.	3166025	1471999970163	1471999970286	S	83
6174	66549	US vessels will form two separate training units.	US vessles will form two separate training units.	3166029	1471999970354	1471999970514	 	32
6174	66549	US vessels will form two separate training units.	US vessles will form two separate training units.	3166032	1471999970522	1471999970686	v	86
6174	66549	US vessels will form two separate training units.	US vessles will form two separate training units.	3166099	1471999970618	1471999970786	e	69
6174	66549	US vessels will form two separate training units.	US vessles will form two separate training units.	3166101	1471999970805	1471999970867	l	76
6174	66549	US vessels will form two separate training units.	US vessles will form two separate training units.	3166103	1471999970954	1471999971042	l	76
6174	66549	US vessels will form two separate training units.	US vessles will form two separate training units.	3166106	1471999971367	1471999971429	BKSP	8
6174	66549	US vessels will form two separate training units.	US vessles will form two separate training units.	3166109	1471999971526	1471999971607	BKSP	8
6174	66549	US vessels will form two separate training units.	US vessles will form two separate training units.	3166115	1471999971625	1471999971741	s	83
6174	66549	US vessels will form two separate training units.	US vessles will form two separate training units.	3166121	1471999971815	1471999971925	e	69
6174	66549	US vessels will form two separate training units.	US vessles will form two separate training units.	3166126	1471999972342	1471999972408	BKSP	8
6174	66549	US vessels will form two separate training units.	US vessles will form two separate training units.	3166134	1471999972445	1471999972568	s	83
6174	66549	US vessels will form two separate training units.	US vessles will form two separate training units.	3166177	1471999972665	1471999972779	l	76
6174	66549	US vessels will form two separate training units.	US vessles will form two separate training units.	3166180	1471999972775	1471999972889	e	69
6174	66549	US vessels will form two separate training units.	US vessles will form two separate training units.	3166182	1471999972940	1471999973100	s	83
6174	66549	US vessels will form two separate training units.	US vessles will form two separate training units.	3166185	1471999973166	1471999973306	 	32
6174	66549	US vessels will form two separate training units.	US vessles will form two separate training units.	3166188	1471999973417	1471999973528	w	87
6174	66549	US vessels will form two separate training units.	US vessles will form two separate training units.	3166226	1471999973488	1471999973575	i	73
6174	66549	US vessels will form two separate training units.	US vessles will form two separate training units.	3166232	1471999973654	1471999973724	l	76
6174	66549	US vessels will form two separate training units.	US vessles will form two separate training units.	3166237	1471999973799	1471999973908	l	76
6174	66549	US vessels will form two separate training units.	US vessles will form two separate training units.	3166242	1471999973943	1471999974076	 	32
6174	66549	US vessels will form two separate training units.	US vessles will form two separate training units.	3166248	1471999974066	1471999974141	f	70
6174	66549	US vessels will form two separate training units.	US vessles will form two separate training units.	3166253	1471999974244	1471999974350	r	82
6174	66549	US vessels will form two separate training units.	US vessles will form two separate training units.	3166304	1471999974314	1471999974450	o	79
6174	66549	US vessels will form two separate training units.	US vessles will form two separate training units.	3166308	1471999974650	1471999974702	BKSP	8
6174	66549	US vessels will form two separate training units.	US vessles will form two separate training units.	3166314	1471999974778	1471999974861	BKSP	8
6174	66549	US vessels will form two separate training units.	US vessles will form two separate training units.	3166319	1471999975011	1471999975089	o	79
6174	66549	US vessels will form two separate training units.	US vessles will form two separate training units.	3166325	1471999975108	1471999975222	r	82
6174	66549	US vessels will form two separate training units.	US vessles will form two separate training units.	3166329	1471999975219	1471999975359	 	32
6174	66549	US vessels will form two separate training units.	US vessles will form two separate training units.	3166333	1471999975349	1471999975459	t	84
6174	66549	US vessels will form two separate training units.	US vessles will form two separate training units.	3166336	1471999975533	1471999975678	w	87
6174	66549	US vessels will form two separate training units.	US vessles will form two separate training units.	3166555	1471999975670	1471999975772	o	79
6174	66549	US vessels will form two separate training units.	US vessles will form two separate training units.	3166557	1471999975879	1471999975963	 	32
6174	66549	US vessels will form two separate training units.	US vessles will form two separate training units.	3166559	1471999975961	1471999976033	s	83
6174	66549	US vessels will form two separate training units.	US vessles will form two separate training units.	3166563	1471999976793	1471999976857	BKSP	8
6174	66549	US vessels will form two separate training units.	US vessles will form two separate training units.	3166566	1471999976949	1471999977028	BKSP	8
6174	66549	US vessels will form two separate training units.	US vessles will form two separate training units.	3166571	1471999977119	1471999977172	BKSP	8
6174	66549	US vessels will form two separate training units.	US vessles will form two separate training units.	3166576	1471999977272	1471999977330	BKSP	8
6174	66549	US vessels will form two separate training units.	US vessles will form two separate training units.	3166580	1471999977432	1471999977485	BKSP	8
6174	66549	US vessels will form two separate training units.	US vessles will form two separate training units.	3166584	1471999977591	1471999977689	BKSP	8
6174	66549	US vessels will form two separate training units.	US vessles will form two separate training units.	3166589	1471999978065	1471999978098	,	188
6174	66549	US vessels will form two separate training units.	US vessles will form two separate training units.	3166591	1471999978252	1471999978331	 	32
6174	66549	US vessels will form two separate training units.	US vessles will form two separate training units.	3166595	1471999978563	1471999978619	BKSP	8
6174	66549	US vessels will form two separate training units.	US vessles will form two separate training units.	3166598	1471999978705	1471999978799	BKSP	8
6174	66549	US vessels will form two separate training units.	US vessles will form two separate training units.	3166602	1471999979540	1471999979600	,	188
6174	66549	US vessels will form two separate training units.	US vessles will form two separate training units.	3166763	1471999980133	1471999980214	BKSP	8
6174	66549	US vessels will form two separate training units.	US vessles will form two separate training units.	3166767	1471999980366	1471999980424	,	188
6174	66549	US vessels will form two separate training units.	US vessles will form two separate training units.	3166770	1471999980576	1471999980700	 	32
6174	66549	US vessels will form two separate training units.	US vessles will form two separate training units.	3166773	1471999980967	1471999981024	BKSP	8
6174	66549	US vessels will form two separate training units.	US vessles will form two separate training units.	3166774	1471999981119	1471999981177	BKSP	8
6174	66549	US vessels will form two separate training units.	US vessles will form two separate training units.	3166778	1471999981242	1471999981322	BKSP	8
6174	66549	US vessels will form two separate training units.	US vessles will form two separate training units.	3166783	1471999981977	1471999982091	r	82
6174	66549	US vessels will form two separate training units.	US vessles will form two separate training units.	3166789	1471999982087	1471999982216	m	77
6174	66549	US vessels will form two separate training units.	US vessles will form two separate training units.	3166795	1471999982746	1471999982918	 	32
6174	66549	US vessels will form two separate training units.	US vessles will form two separate training units.	3166856	1471999982905	1471999983014	t	84
6174	66549	US vessels will form two separate training units.	US vessles will form two separate training units.	3166862	1471999983154	1471999983299	w	87
6174	66549	US vessels will form two separate training units.	US vessles will form two separate training units.	3166866	1471999983441	1471999983545	o	79
6174	66549	US vessels will form two separate training units.	US vessles will form two separate training units.	3166870	1471999983727	1471999983847	 	32
6174	66549	US vessels will form two separate training units.	US vessles will form two separate training units.	3166874	1471999983947	1471999984038	s	83
6174	66549	US vessels will form two separate training units.	US vessles will form two separate training units.	3166878	1471999984239	1471999984328	e	69
6174	66549	US vessels will form two separate training units.	US vessles will form two separate training units.	3166935	1471999984397	1471999984535	p	80
6174	66549	US vessels will form two separate training units.	US vessles will form two separate training units.	3166938	1471999984849	1471999984957	a	65
6174	66549	US vessels will form two separate training units.	US vessles will form two separate training units.	3166944	1471999985048	1471999985161	r	82
6174	66549	US vessels will form two separate training units.	US vessles will form two separate training units.	3166951	1471999985281	1471999985474	a	65
6174	66549	US vessels will form two separate training units.	US vessles will form two separate training units.	3166957	1471999985709	1471999985887	t	84
6174	66549	US vessels will form two separate training units.	US vessles will form two separate training units.	3167016	1471999985771	1471999985923	e	69
6174	66549	US vessels will form two separate training units.	US vessles will form two separate training units.	3167017	1471999986007	1471999986159	 	32
6174	66549	US vessels will form two separate training units.	US vessles will form two separate training units.	3167018	1471999986358	1471999986433	t	84
6174	66549	US vessels will form two separate training units.	US vessles will form two separate training units.	3167021	1471999986622	1471999986727	r	82
6174	66549	US vessels will form two separate training units.	US vessles will form two separate training units.	3167025	1471999986845	1471999986983	a	65
6174	66549	US vessels will form two separate training units.	US vessles will form two separate training units.	3167030	1471999987011	1471999987209	i	73
6174	66549	US vessels will form two separate training units.	US vessles will form two separate training units.	3167061	1471999987123	1471999987268	n	78
6174	66549	US vessels will form two separate training units.	US vessles will form two separate training units.	3167062	1471999987356	1471999987547	i	73
6174	66549	US vessels will form two separate training units.	US vessles will form two separate training units.	3167063	1471999987471	1471999987639	n	78
6174	66549	US vessels will form two separate training units.	US vessles will form two separate training units.	3167064	1471999987705	1471999987858	g	71
6174	66549	US vessels will form two separate training units.	US vessles will form two separate training units.	3167065	1471999988176	1471999988285	 	32
6174	66549	US vessels will form two separate training units.	US vessles will form two separate training units.	3167066	1471999988392	1471999988544	u	85
6174	66549	US vessels will form two separate training units.	US vessles will form two separate training units.	3167170	1471999988496	1471999988595	n	78
6174	66549	US vessels will form two separate training units.	US vessles will form two separate training units.	3167174	1471999988671	1471999988831	i	73
6174	66549	US vessels will form two separate training units.	US vessles will form two separate training units.	3167176	1471999988791	1471999988880	t	84
6174	66549	US vessels will form two separate training units.	US vessles will form two separate training units.	3167180	1471999989032	1471999989182	s	83
6174	66549	US vessels will form two separate training units.	US vessles will form two separate training units.	3167184	1471999989150	1471999989292	.	190
6174	66580	Please call tomorrow if possible.	Please call tomorrow if possible.	3167541	1471999997672	1471999997935	SHIFT	16
6174	66580	Please call tomorrow if possible.	Please call tomorrow if possible.	3167542	1471999997838	1471999997940	P	80
6174	66580	Please call tomorrow if possible.	Please call tomorrow if possible.	3167543	1471999998063	1471999998177	l	76
6174	66580	Please call tomorrow if possible.	Please call tomorrow if possible.	3167544	1471999998173	1471999998270	e	69
6174	66580	Please call tomorrow if possible.	Please call tomorrow if possible.	3167545	1471999998339	1471999998511	a	65
6174	66580	Please call tomorrow if possible.	Please call tomorrow if possible.	3167560	1471999998427	1471999998555	s	83
6174	66580	Please call tomorrow if possible.	Please call tomorrow if possible.	3167563	1471999998641	1471999998761	e	69
6174	66580	Please call tomorrow if possible.	Please call tomorrow if possible.	3167569	1471999998765	1471999998876	 	32
6174	66580	Please call tomorrow if possible.	Please call tomorrow if possible.	3167576	1471999998887	1471999999038	c	67
6174	66580	Please call tomorrow if possible.	Please call tomorrow if possible.	3167629	1471999999056	1471999999211	a	65
6174	66580	Please call tomorrow if possible.	Please call tomorrow if possible.	3167586	1471999999157	1471999999201	l	76
6174	66580	Please call tomorrow if possible.	Please call tomorrow if possible.	3167632	1471999999289	1471999999394	l	76
6174	66580	Please call tomorrow if possible.	Please call tomorrow if possible.	3167635	1471999999442	1471999999566	 	32
6174	66580	Please call tomorrow if possible.	Please call tomorrow if possible.	3167636	1471999999574	1471999999663	t	84
6174	66580	Please call tomorrow if possible.	Please call tomorrow if possible.	3167637	1471999999688	1471999999822	o	79
6174	66580	Please call tomorrow if possible.	Please call tomorrow if possible.	3167657	1471999999755	1471999999865	m	77
6174	66580	Please call tomorrow if possible.	Please call tomorrow if possible.	3167660	1471999999912	1472000000028	o	79
6174	66580	Please call tomorrow if possible.	Please call tomorrow if possible.	3167664	1472000000044	1472000000122	r	82
6174	66580	Please call tomorrow if possible.	Please call tomorrow if possible.	3167667	1472000000184	1472000000282	r	82
6174	66580	Please call tomorrow if possible.	Please call tomorrow if possible.	3167670	1472000000289	1472000000413	o	79
6174	66580	Please call tomorrow if possible.	Please call tomorrow if possible.	3167722	1472000000393	1472000000559	w	87
6174	66580	Please call tomorrow if possible.	Please call tomorrow if possible.	3167729	1472000000577	1472000000713	 	32
6174	66580	Please call tomorrow if possible.	Please call tomorrow if possible.	3167733	1472000000906	1472000001018	i	73
6174	66580	Please call tomorrow if possible.	Please call tomorrow if possible.	3167740	1472000001043	1472000001163	f	70
6174	66580	Please call tomorrow if possible.	Please call tomorrow if possible.	3167745	1472000001131	1472000001273	 	32
6174	66580	Please call tomorrow if possible.	Please call tomorrow if possible.	3167748	1472000001477	1472000001558	p	80
6174	66580	Please call tomorrow if possible.	Please call tomorrow if possible.	3167792	1472000002310	1472000002430	o	79
6174	66580	Please call tomorrow if possible.	Please call tomorrow if possible.	3167796	1472000002536	1472000002627	s	83
6174	66580	Please call tomorrow if possible.	Please call tomorrow if possible.	3167801	1472000002709	1472000002848	s	83
6174	66580	Please call tomorrow if possible.	Please call tomorrow if possible.	3167807	1472000002834	1472000003021	i	73
6174	66580	Please call tomorrow if possible.	Please call tomorrow if possible.	3167893	1472000002935	1472000003151	b	66
6174	66580	Please call tomorrow if possible.	Please call tomorrow if possible.	3167896	1472000003123	1472000003288	l	76
6174	66580	Please call tomorrow if possible.	Please call tomorrow if possible.	3167900	1472000003268	1472000003385	e	69
6174	66580	Please call tomorrow if possible.	Please call tomorrow if possible.	3167903	1472000003420	1472000003562	.	190
6174	66594	His abilities will be limited if he does play Sunday.	His abilities will be limited if he does play Sunday	3168170	1472000009886	1472000010147	SHIFT	16
6174	66594	His abilities will be limited if he does play Sunday.	His abilities will be limited if he does play Sunday	3168176	1472000010039	1472000010209	H	72
6174	66594	His abilities will be limited if he does play Sunday.	His abilities will be limited if he does play Sunday	3168180	1472000010254	1472000010372	i	73
6174	66594	His abilities will be limited if he does play Sunday.	His abilities will be limited if he does play Sunday	3168185	1472000010360	1472000010496	s	83
6174	66594	His abilities will be limited if he does play Sunday.	His abilities will be limited if he does play Sunday	3168189	1472000010492	1472000010616	 	32
6174	66594	His abilities will be limited if he does play Sunday.	His abilities will be limited if he does play Sunday	3168193	1472000010668	1472000010790	a	65
6174	66594	His abilities will be limited if he does play Sunday.	His abilities will be limited if he does play Sunday	3168224	1472000010810	1472000010925	b	66
6174	66594	His abilities will be limited if he does play Sunday.	His abilities will be limited if he does play Sunday	3168228	1472000011072	1472000011178	i	73
6174	66594	His abilities will be limited if he does play Sunday.	His abilities will be limited if he does play Sunday	3168231	1472000011259	1472000011403	l	76
6174	66594	His abilities will be limited if he does play Sunday.	His abilities will be limited if he does play Sunday	3168237	1472000011392	1472000011530	i	73
6174	66594	His abilities will be limited if he does play Sunday.	His abilities will be limited if he does play Sunday	3168241	1472000011649	1472000011764	t	84
6174	66594	His abilities will be limited if he does play Sunday.	His abilities will be limited if he does play Sunday	3168272	1472000011797	1472000011918	i	73
6174	66594	His abilities will be limited if he does play Sunday.	His abilities will be limited if he does play Sunday	3168274	1472000011928	1472000012062	e	69
6174	66594	His abilities will be limited if he does play Sunday.	His abilities will be limited if he does play Sunday	3168276	1472000012167	1472000012305	s	83
6174	66594	His abilities will be limited if he does play Sunday.	His abilities will be limited if he does play Sunday	3168280	1472000012300	1472000012397	 	32
6174	66594	His abilities will be limited if he does play Sunday.	His abilities will be limited if he does play Sunday	3168283	1472000012449	1472000012568	w	87
6174	66594	His abilities will be limited if he does play Sunday.	His abilities will be limited if he does play Sunday	3168321	1472000012506	1472000012594	i	73
6174	66594	His abilities will be limited if he does play Sunday.	His abilities will be limited if he does play Sunday	3168322	1472000012669	1472000012742	l	76
6174	66594	His abilities will be limited if he does play Sunday.	His abilities will be limited if he does play Sunday	3168323	1472000012822	1472000012917	l	76
6174	66594	His abilities will be limited if he does play Sunday.	His abilities will be limited if he does play Sunday	3168324	1472000012905	1472000013016	 	32
6174	66594	His abilities will be limited if he does play Sunday.	His abilities will be limited if he does play Sunday	3168325	1472000013108	1472000013221	b	66
6174	66594	His abilities will be limited if he does play Sunday.	His abilities will be limited if he does play Sunday	3168351	1472000013206	1472000013322	e	69
6174	66594	His abilities will be limited if he does play Sunday.	His abilities will be limited if he does play Sunday	3168353	1472000013318	1472000013414	 	32
6174	66594	His abilities will be limited if he does play Sunday.	His abilities will be limited if he does play Sunday	3168354	1472000013494	1472000013628	l	76
6174	66594	His abilities will be limited if he does play Sunday.	His abilities will be limited if he does play Sunday	3168355	1472000013560	1472000013697	i	73
6174	66594	His abilities will be limited if he does play Sunday.	His abilities will be limited if he does play Sunday	3168356	1472000013783	1472000013933	m	77
6174	66594	His abilities will be limited if he does play Sunday.	His abilities will be limited if he does play Sunday	3168404	1472000013915	1472000014058	i	73
6174	66594	His abilities will be limited if he does play Sunday.	His abilities will be limited if he does play Sunday	3168408	1472000014073	1472000014205	t	84
6174	66594	His abilities will be limited if he does play Sunday.	His abilities will be limited if he does play Sunday	3168411	1472000014211	1472000014329	e	69
6174	66594	His abilities will be limited if he does play Sunday.	His abilities will be limited if he does play Sunday	3168415	1472000014441	1472000014550	d	68
6174	66594	His abilities will be limited if he does play Sunday.	His abilities will be limited if he does play Sunday	3168420	1472000014613	1472000014721	 	32
6174	66594	His abilities will be limited if he does play Sunday.	His abilities will be limited if he does play Sunday	3168424	1472000014790	1472000014905	i	73
6174	66594	His abilities will be limited if he does play Sunday.	His abilities will be limited if he does play Sunday	3168455	1472000014986	1472000015113	f	70
6174	66594	His abilities will be limited if he does play Sunday.	His abilities will be limited if he does play Sunday	3168459	1472000015141	1472000015242	 	32
6174	66594	His abilities will be limited if he does play Sunday.	His abilities will be limited if he does play Sunday	3168462	1472000015342	1472000015439	h	72
6174	66594	His abilities will be limited if he does play Sunday.	His abilities will be limited if he does play Sunday	3168465	1472000015471	1472000015570	e	69
6174	66594	His abilities will be limited if he does play Sunday.	His abilities will be limited if he does play Sunday	3168466	1472000015680	1472000015778	 	32
6174	66594	His abilities will be limited if he does play Sunday.	His abilities will be limited if he does play Sunday	3168481	1472000015845	1472000015954	d	68
6174	66594	His abilities will be limited if he does play Sunday.	His abilities will be limited if he does play Sunday	3168484	1472000015974	1472000016096	o	79
6174	66594	His abilities will be limited if he does play Sunday.	His abilities will be limited if he does play Sunday	3168488	1472000016094	1472000016189	w	87
6174	66594	His abilities will be limited if he does play Sunday.	His abilities will be limited if he does play Sunday	3168492	1472000016301	1472000016441	s	83
6174	66594	His abilities will be limited if he does play Sunday.	His abilities will be limited if he does play Sunday	3168580	1472000016424	1472000016531	 	32
6174	66594	His abilities will be limited if he does play Sunday.	His abilities will be limited if he does play Sunday	3168584	1472000016632	1472000016707	p	80
6174	66594	His abilities will be limited if he does play Sunday.	His abilities will be limited if he does play Sunday	3168588	1472000016836	1472000016935	l	76
6174	66594	His abilities will be limited if he does play Sunday.	His abilities will be limited if he does play Sunday	3168590	1472000016950	1472000017066	a	65
6174	66594	His abilities will be limited if he does play Sunday.	His abilities will be limited if he does play Sunday	3168592	1472000017105	1472000017239	y	89
6174	66594	His abilities will be limited if he does play Sunday.	His abilities will be limited if he does play Sunday	3168594	1472000017948	1472000018037	 	32
6174	66594	His abilities will be limited if he does play Sunday.	His abilities will be limited if he does play Sunday	3168665	1472000018235	1472000018741	SHIFT	16
6174	66594	His abilities will be limited if he does play Sunday.	His abilities will be limited if he does play Sunday	3168668	1472000018609	1472000018756	S	83
6174	66594	His abilities will be limited if he does play Sunday.	His abilities will be limited if he does play Sunday	3168673	1472000018851	1472000019066	u	85
6174	66594	His abilities will be limited if he does play Sunday.	His abilities will be limited if he does play Sunday	3168677	1472000018996	1472000019151	n	78
6174	66594	His abilities will be limited if he does play Sunday.	His abilities will be limited if he does play Sunday	3168684	1472000019080	1472000019173	d	68
6174	66594	His abilities will be limited if he does play Sunday.	His abilities will be limited if he does play Sunday	3168687	1472000019244	1472000019393	a	65
6174	66594	His abilities will be limited if he does play Sunday.	His abilities will be limited if he does play Sunday	3169123	1472000019330	1472000019468	y	89
6174	66594	His abilities will be limited if he does play Sunday.	His abilities will be limited if he does play Sunday	3169126	1472000023499	1472000023575	ARW_RIGHT	39
6174	66594	His abilities will be limited if he does play Sunday.	His abilities will be limited if he does play Sunday	3169127	1472000023836	1472000023905	\	220
6174	66594	His abilities will be limited if he does play Sunday.	His abilities will be limited if he does play Sunday	3169130	1472000024052	1472000024162	e	69
6174	66594	His abilities will be limited if he does play Sunday.	His abilities will be limited if he does play Sunday	3169133	1472000025080	1472000025155	BKSP	8
6174	66594	His abilities will be limited if he does play Sunday.	His abilities will be limited if he does play Sunday	3169136	1472000025252	1472000025327	BKSP	8
6174	66594	His abilities will be limited if he does play Sunday.	His abilities will be limited if he does play Sunday	3169137	1472000025407	1472000025456	BKSP	8
6174	66594	His abilities will be limited if he does play Sunday.	His abilities will be limited if he does play Sunday	3169140	1472000025477	1472000025579	e	69
