PARTICIPANT_ID	TEST_SECTION_ID	SENTENCE	USER_INPUT	KEYSTROKE_ID	PRESS_TIME	RELEASE_TIME	LETTER	KEYCODE
6201	66642	We can work around these plans if you prefer.	We can work around these plans if you prefer.	3170525	1472000054881	1472000055677	SHIFT	16
6201	66642	We can work around these plans if you prefer.	We can work around these plans if you prefer.	3170520	1472000055276	1472000055402	w	87
6201	66642	We can work around these plans if you prefer.	We can work around these plans if you prefer.	3170524	1472000055519	1472000055634	e	69
6201	66642	We can work around these plans if you prefer.	We can work around these plans if you prefer.	3170528	1472000056443	1472000056555	 	32
6201	66642	We can work around these plans if you prefer.	We can work around these plans if you prefer.	3170531	1472000056622	1472000056749	C	67
6201	66642	We can work around these plans if you prefer.	We can work around these plans if you prefer.	3170534	1472000056872	1472000057040	A	65
6201	66642	We can work around these plans if you prefer.	We can work around these plans if you prefer.	3170583	1472000057071	1472000057174	N	78
6201	66642	We can work around these plans if you prefer.	We can work around these plans if you prefer.	3170586	1472000057297	1472000057380	 	32
6201	66642	We can work around these plans if you prefer.	We can work around these plans if you prefer.	3170589	1472000057570	1472000057703	W	87
6201	66642	We can work around these plans if you prefer.	We can work around these plans if you prefer.	3170594	1472000057838	1472000057930	O	79
6201	66642	We can work around these plans if you prefer.	We can work around these plans if you prefer.	3170598	1472000058170	1472000058277	R	82
6201	66642	We can work around these plans if you prefer.	We can work around these plans if you prefer.	3170677	1472000058507	1472000058612	K	75
6201	66642	We can work around these plans if you prefer.	We can work around these plans if you prefer.	3170678	1472000058892	1472000059017	 	32
6201	66642	We can work around these plans if you prefer.	We can work around these plans if you prefer.	3170680	1472000059470	1472000059625	A	65
6201	66642	We can work around these plans if you prefer.	We can work around these plans if you prefer.	3170681	1472000059723	1472000059819	R	82
6201	66642	We can work around these plans if you prefer.	We can work around these plans if you prefer.	3170682	1472000059983	1472000060117	O	79
6201	66642	We can work around these plans if you prefer.	We can work around these plans if you prefer.	3170731	1472000060215	1472000060282	U	85
6201	66642	We can work around these plans if you prefer.	We can work around these plans if you prefer.	3170732	1472000060434	1472000060524	N	78
6201	66642	We can work around these plans if you prefer.	We can work around these plans if you prefer.	3170734	1472000060641	1472000060756	D	68
6201	66642	We can work around these plans if you prefer.	We can work around these plans if you prefer.	3170736	1472000060890	1472000061020	 	32
6201	66642	We can work around these plans if you prefer.	We can work around these plans if you prefer.	3170739	1472000061116	1472000061214	T	84
6201	66642	We can work around these plans if you prefer.	We can work around these plans if you prefer.	3170974	1472000061280	1472000061372	H	72
6201	66642	We can work around these plans if you prefer.	We can work around these plans if you prefer.	3170977	1472000061485	1472000061598	I	73
6201	66642	We can work around these plans if you prefer.	We can work around these plans if you prefer.	3170981	1472000061758	1472000061896	S	83
6201	66642	We can work around these plans if you prefer.	We can work around these plans if you prefer.	3170985	1472000062641	1472000062717	BKSP	8
6201	66642	We can work around these plans if you prefer.	We can work around these plans if you prefer.	3170988	1472000062840	1472000062928	BKSP	8
6201	66642	We can work around these plans if you prefer.	We can work around these plans if you prefer.	3170991	1472000063081	1472000064544	BKSP	8
6201	66642	We can work around these plans if you prefer.	We can work around these plans if you prefer.	3170996	1472000065196	1472000065313	CAPS_LOCK	20
6201	66642	We can work around these plans if you prefer.	We can work around these plans if you prefer.	3171001	1472000065977	1472000066232	SHIFT	16
6201	66642	We can work around these plans if you prefer.	We can work around these plans if you prefer.	3171005	1472000066170	1472000066288	W	87
6201	66642	We can work around these plans if you prefer.	We can work around these plans if you prefer.	3171008	1472000066394	1472000066504	e	69
6201	66642	We can work around these plans if you prefer.	We can work around these plans if you prefer.	3171031	1472000066680	1472000066779	 	32
6201	66642	We can work around these plans if you prefer.	We can work around these plans if you prefer.	3171033	1472000066815	1472000066904	c	67
6201	66642	We can work around these plans if you prefer.	We can work around these plans if you prefer.	3171035	1472000067052	1472000067184	a	65
6201	66642	We can work around these plans if you prefer.	We can work around these plans if you prefer.	3171037	1472000067200	1472000067292	n	78
6201	66642	We can work around these plans if you prefer.	We can work around these plans if you prefer.	3171038	1472000067410	1472000067518	 	32
6201	66642	We can work around these plans if you prefer.	We can work around these plans if you prefer.	3171099	1472000067670	1472000067790	w	87
6201	66642	We can work around these plans if you prefer.	We can work around these plans if you prefer.	3171101	1472000067888	1472000067977	o	79
6201	66642	We can work around these plans if you prefer.	We can work around these plans if you prefer.	3171105	1472000068093	1472000068177	r	82
6201	66642	We can work around these plans if you prefer.	We can work around these plans if you prefer.	3171109	1472000068369	1472000068466	k	75
6201	66642	We can work around these plans if you prefer.	We can work around these plans if you prefer.	3171111	1472000068712	1472000068831	 	32
6201	66642	We can work around these plans if you prefer.	We can work around these plans if you prefer.	3171181	1472000069534	1472000069664	a	65
6201	66642	We can work around these plans if you prefer.	We can work around these plans if you prefer.	3171182	1472000069838	1472000069913	r	82
6201	66642	We can work around these plans if you prefer.	We can work around these plans if you prefer.	3171183	1472000070088	1472000070220	o	79
6201	66642	We can work around these plans if you prefer.	We can work around these plans if you prefer.	3171186	1472000070307	1472000070360	u	85
6201	66642	We can work around these plans if you prefer.	We can work around these plans if you prefer.	3171189	1472000070529	1472000070611	n	78
6201	66642	We can work around these plans if you prefer.	We can work around these plans if you prefer.	3171266	1472000070764	1472000070869	d	68
6201	66642	We can work around these plans if you prefer.	We can work around these plans if you prefer.	3171268	1472000071110	1472000071229	 	32
6201	66642	We can work around these plans if you prefer.	We can work around these plans if you prefer.	3171273	1472000071744	1472000071814	t	84
6201	66642	We can work around these plans if you prefer.	We can work around these plans if you prefer.	3171276	1472000071936	1472000072012	h	72
6201	66642	We can work around these plans if you prefer.	We can work around these plans if you prefer.	3171283	1472000072047	1472000072135	e	69
6201	66642	We can work around these plans if you prefer.	We can work around these plans if you prefer.	3171355	1472000072293	1472000072378	s	83
6201	66642	We can work around these plans if you prefer.	We can work around these plans if you prefer.	3171358	1472000072466	1472000072562	e	69
6201	66642	We can work around these plans if you prefer.	We can work around these plans if you prefer.	3171360	1472000072642	1472000072732	 	32
6201	66642	We can work around these plans if you prefer.	We can work around these plans if you prefer.	3171365	1472000073040	1472000073123	p	80
6201	66642	We can work around these plans if you prefer.	We can work around these plans if you prefer.	3171370	1472000073316	1472000073405	l	76
6201	66642	We can work around these plans if you prefer.	We can work around these plans if you prefer.	3171426	1472000073463	1472000073600	a	65
6201	66642	We can work around these plans if you prefer.	We can work around these plans if you prefer.	3171430	1472000073738	1472000073844	n	78
6201	66642	We can work around these plans if you prefer.	We can work around these plans if you prefer.	3171436	1472000074243	1472000074348	s	83
6201	66642	We can work around these plans if you prefer.	We can work around these plans if you prefer.	3171440	1472000074561	1472000074692	 	32
6201	66642	We can work around these plans if you prefer.	We can work around these plans if you prefer.	3171445	1472000075053	1472000075159	i	73
6201	66642	We can work around these plans if you prefer.	We can work around these plans if you prefer.	3171504	1472000075279	1472000075403	f	70
6201	66642	We can work around these plans if you prefer.	We can work around these plans if you prefer.	3171507	1472000075426	1472000075562	 	32
6201	66642	We can work around these plans if you prefer.	We can work around these plans if you prefer.	3171511	1472000075699	1472000075788	y	89
6201	66642	We can work around these plans if you prefer.	We can work around these plans if you prefer.	3171515	1472000075886	1472000076038	o	79
6201	66642	We can work around these plans if you prefer.	We can work around these plans if you prefer.	3171516	1472000076111	1472000076232	u	85
6201	66642	We can work around these plans if you prefer.	We can work around these plans if you prefer.	3171573	1472000076345	1472000076446	 	32
6201	66642	We can work around these plans if you prefer.	We can work around these plans if you prefer.	3171576	1472000076941	1472000077032	p	80
6201	66642	We can work around these plans if you prefer.	We can work around these plans if you prefer.	3171579	1472000077196	1472000077306	r	82
6201	66642	We can work around these plans if you prefer.	We can work around these plans if you prefer.	3171582	1472000077386	1472000077480	e	69
6201	66642	We can work around these plans if you prefer.	We can work around these plans if you prefer.	3171586	1472000077596	1472000077679	f	70
6201	66642	We can work around these plans if you prefer.	We can work around these plans if you prefer.	3171662	1472000077780	1472000077905	e	69
6201	66642	We can work around these plans if you prefer.	We can work around these plans if you prefer.	3171665	1472000078003	1472000078109	r	82
6201	66642	We can work around these plans if you prefer.	We can work around these plans if you prefer.	3171667	1472000079161	1472000079249	.	190
6201	66675	Apparently, BP is using the correct pricing.	Apparently, BP is using the correct pricing.	3171874	1472000082358	1472000082776	SHIFT	16
6201	66675	Apparently, BP is using the correct pricing.	Apparently, BP is using the correct pricing.	3171877	1472000082693	1472000082850	A	65
6201	66675	Apparently, BP is using the correct pricing.	Apparently, BP is using the correct pricing.	3171881	1472000083031	1472000083124	p	80
6201	66675	Apparently, BP is using the correct pricing.	Apparently, BP is using the correct pricing.	3171884	1472000083246	1472000083314	a	80
6201	66675	Apparently, BP is using the correct pricing.	Apparently, BP is using the correct pricing.	3171888	1472000083598	1472000083687	r	82
6201	66675	Apparently, BP is using the correct pricing.	Apparently, BP is using the correct pricing.	3171971	1472000084103	1472000084163	e	69
6201	66675	Apparently, BP is using the correct pricing.	Apparently, BP is using the correct pricing.	3171974	1472000084616	1472000084705	n	78
6201	66675	Apparently, BP is using the correct pricing.	Apparently, BP is using the correct pricing.	3171980	1472000084889	1472000084948	t	84
6201	66675	Apparently, BP is using the correct pricing.	Apparently, BP is using the correct pricing.	3171985	1472000085511	1472000085631	l	76
6201	66675	Apparently, BP is using the correct pricing.	Apparently, BP is using the correct pricing.	3171988	1472000085822	1472000085889	y	89
6201	66675	Apparently, BP is using the correct pricing.	Apparently, BP is using the correct pricing.	3172123	1472000087376	1472000087483	,	188
6201	66675	Apparently, BP is using the correct pricing.	Apparently, BP is using the correct pricing.	3172128	1472000087598	1472000087737	 	32
6201	66675	Apparently, BP is using the correct pricing.	Apparently, BP is using the correct pricing.	3172143	1472000088181	1472000088968	SHIFT	16
6201	66675	Apparently, BP is using the correct pricing.	Apparently, BP is using the correct pricing.	3172134	1472000088373	1472000088481	B	66
6201	66675	Apparently, BP is using the correct pricing.	Apparently, BP is using the correct pricing.	3172137	1472000088803	1472000088896	P	80
6201	66675	Apparently, BP is using the correct pricing.	Apparently, BP is using the correct pricing.	3172148	1472000089211	1472000089349	 	32
6201	66675	Apparently, BP is using the correct pricing.	Apparently, BP is using the correct pricing.	3172216	1472000089864	1472000089978	i	73
6201	66675	Apparently, BP is using the correct pricing.	Apparently, BP is using the correct pricing.	3172220	1472000090130	1472000090268	s	83
6201	66675	Apparently, BP is using the correct pricing.	Apparently, BP is using the correct pricing.	3172225	1472000090309	1472000090463	 	32
6201	66675	Apparently, BP is using the correct pricing.	Apparently, BP is using the correct pricing.	3172232	1472000090582	1472000090675	u	85
6201	66675	Apparently, BP is using the correct pricing.	Apparently, BP is using the correct pricing.	3172237	1472000090797	1472000090949	s	83
6201	66675	Apparently, BP is using the correct pricing.	Apparently, BP is using the correct pricing.	3172331	1472000090918	1472000091022	i	73
6201	66675	Apparently, BP is using the correct pricing.	Apparently, BP is using the correct pricing.	3172335	1472000091172	1472000091274	n	78
6201	66675	Apparently, BP is using the correct pricing.	Apparently, BP is using the correct pricing.	3172339	1472000091414	1472000091522	g	71
6201	66675	Apparently, BP is using the correct pricing.	Apparently, BP is using the correct pricing.	3172344	1472000091731	1472000091887	 	32
6201	66675	Apparently, BP is using the correct pricing.	Apparently, BP is using the correct pricing.	3172348	1472000092186	1472000092296	t	84
6201	66675	Apparently, BP is using the correct pricing.	Apparently, BP is using the correct pricing.	3172350	1472000092325	1472000092443	h	72
6201	66675	Apparently, BP is using the correct pricing.	Apparently, BP is using the correct pricing.	3172391	1472000092461	1472000092574	e	69
6201	66675	Apparently, BP is using the correct pricing.	Apparently, BP is using the correct pricing.	3172394	1472000092562	1472000092683	 	32
6201	66675	Apparently, BP is using the correct pricing.	Apparently, BP is using the correct pricing.	3172399	1472000092828	1472000092927	c	67
6201	66675	Apparently, BP is using the correct pricing.	Apparently, BP is using the correct pricing.	3172402	1472000093069	1472000093163	o	79
6201	66675	Apparently, BP is using the correct pricing.	Apparently, BP is using the correct pricing.	3172406	1472000093276	1472000093351	r	82
6201	66675	Apparently, BP is using the correct pricing.	Apparently, BP is using the correct pricing.	3172485	1472000093452	1472000093549	r	82
6201	66675	Apparently, BP is using the correct pricing.	Apparently, BP is using the correct pricing.	3172490	1472000093637	1472000093749	e	69
6201	66675	Apparently, BP is using the correct pricing.	Apparently, BP is using the correct pricing.	3172497	1472000093919	1472000094035	c	67
6201	66675	Apparently, BP is using the correct pricing.	Apparently, BP is using the correct pricing.	3172502	1472000094222	1472000094310	t	84
6201	66675	Apparently, BP is using the correct pricing.	Apparently, BP is using the correct pricing.	3172508	1472000094561	1472000094700	 	32
6201	66675	Apparently, BP is using the correct pricing.	Apparently, BP is using the correct pricing.	3172576	1472000095261	1472000095375	p	80
6201	66675	Apparently, BP is using the correct pricing.	Apparently, BP is using the correct pricing.	3172580	1472000095472	1472000095563	r	82
6201	66675	Apparently, BP is using the correct pricing.	Apparently, BP is using the correct pricing.	3172584	1472000095762	1472000095860	i	73
6201	66675	Apparently, BP is using the correct pricing.	Apparently, BP is using the correct pricing.	3172588	1472000095968	1472000096129	c	67
6201	66675	Apparently, BP is using the correct pricing.	Apparently, BP is using the correct pricing.	3172592	1472000096168	1472000096261	i	73
6201	66675	Apparently, BP is using the correct pricing.	Apparently, BP is using the correct pricing.	3172671	1472000096460	1472000096544	n	78
6201	66675	Apparently, BP is using the correct pricing.	Apparently, BP is using the correct pricing.	3172673	1472000096635	1472000096749	g	71
6201	66675	Apparently, BP is using the correct pricing.	Apparently, BP is using the correct pricing.	3172675	1472000097062	1472000097126	,	188
6201	66675	Apparently, BP is using the correct pricing.	Apparently, BP is using the correct pricing.	3172677	1472000097574	1472000097637	BKSP	8
6201	66675	Apparently, BP is using the correct pricing.	Apparently, BP is using the correct pricing.	3172679	1472000097982	1472000098045	.	190
6201	66696	There were 75 evacuees on one plane and 73 on the other.	There were 75 evacuess on one plane and 73 on the other.	3172973	1472000102803	1472000103191	SHIFT	16
6201	66696	There were 75 evacuees on one plane and 73 on the other.	There were 75 evacuess on one plane and 73 on the other.	3172970	1472000103017	1472000103080	T	84
6201	66696	There were 75 evacuees on one plane and 73 on the other.	There were 75 evacuess on one plane and 73 on the other.	3172976	1472000103222	1472000103290	h	72
6201	66696	There were 75 evacuees on one plane and 73 on the other.	There were 75 evacuess on one plane and 73 on the other.	3172977	1472000103425	1472000103536	e	69
6201	66696	There were 75 evacuees on one plane and 73 on the other.	There were 75 evacuess on one plane and 73 on the other.	3172978	1472000103610	1472000103720	r	82
6201	66696	There were 75 evacuees on one plane and 73 on the other.	There were 75 evacuess on one plane and 73 on the other.	3172979	1472000103790	1472000103892	e	69
6201	66696	There were 75 evacuees on one plane and 73 on the other.	There were 75 evacuess on one plane and 73 on the other.	3173001	1472000103993	1472000104106	 	32
6201	66696	There were 75 evacuees on one plane and 73 on the other.	There were 75 evacuess on one plane and 73 on the other.	3173003	1472000104136	1472000104229	w	87
6201	66696	There were 75 evacuees on one plane and 73 on the other.	There were 75 evacuess on one plane and 73 on the other.	3173005	1472000104346	1472000104433	e	69
6201	66696	There were 75 evacuees on one plane and 73 on the other.	There were 75 evacuess on one plane and 73 on the other.	3173008	1472000104534	1472000104642	r	82
6201	66696	There were 75 evacuees on one plane and 73 on the other.	There were 75 evacuess on one plane and 73 on the other.	3173010	1472000104730	1472000104821	e	69
6201	66696	There were 75 evacuees on one plane and 73 on the other.	There were 75 evacuess on one plane and 73 on the other.	3173069	1472000104987	1472000105144	 	32
6201	66696	There were 75 evacuees on one plane and 73 on the other.	There were 75 evacuess on one plane and 73 on the other.	3173071	1472000105527	1472000105603	7	55
6201	66696	There were 75 evacuees on one plane and 73 on the other.	There were 75 evacuess on one plane and 73 on the other.	3173072	1472000105846	1472000105923	5	53
6201	66696	There were 75 evacuees on one plane and 73 on the other.	There were 75 evacuess on one plane and 73 on the other.	3173074	1472000106022	1472000106157	 	32
6201	66696	There were 75 evacuees on one plane and 73 on the other.	There were 75 evacuess on one plane and 73 on the other.	3173075	1472000106320	1472000106431	e	69
6201	66696	There were 75 evacuees on one plane and 73 on the other.	There were 75 evacuess on one plane and 73 on the other.	3173109	1472000106631	1472000106737	v	86
6201	66696	There were 75 evacuees on one plane and 73 on the other.	There were 75 evacuess on one plane and 73 on the other.	3173111	1472000106850	1472000106988	a	65
6201	66696	There were 75 evacuees on one plane and 73 on the other.	There were 75 evacuess on one plane and 73 on the other.	3173113	1472000107084	1472000107202	c	67
6201	66696	There were 75 evacuees on one plane and 73 on the other.	There were 75 evacuess on one plane and 73 on the other.	3173115	1472000107405	1472000107476	u	85
6201	66696	There were 75 evacuees on one plane and 73 on the other.	There were 75 evacuess on one plane and 73 on the other.	3173117	1472000107596	1472000107681	u	85
6201	66696	There were 75 evacuees on one plane and 73 on the other.	There were 75 evacuess on one plane and 73 on the other.	3173220	1472000108058	1472000108146	e	69
6201	66696	There were 75 evacuees on one plane and 73 on the other.	There were 75 evacuess on one plane and 73 on the other.	3173221	1472000109032	1472000109135	BKSP	8
6201	66696	There were 75 evacuees on one plane and 73 on the other.	There were 75 evacuess on one plane and 73 on the other.	3173222	1472000109800	1472000109865	BKSP	8
6201	66696	There were 75 evacuees on one plane and 73 on the other.	There were 75 evacuess on one plane and 73 on the other.	3173225	1472000110032	1472000110108	e	69
6201	66696	There were 75 evacuees on one plane and 73 on the other.	There were 75 evacuess on one plane and 73 on the other.	3173227	1472000110302	1472000110376	s	83
6201	66696	There were 75 evacuees on one plane and 73 on the other.	There were 75 evacuess on one plane and 73 on the other.	3173229	1472000110496	1472000110590	s	83
6201	66696	There were 75 evacuees on one plane and 73 on the other.	There were 75 evacuess on one plane and 73 on the other.	3173233	1472000110781	1472000110900	 	32
6201	66696	There were 75 evacuees on one plane and 73 on the other.	There were 75 evacuess on one plane and 73 on the other.	3173280	1472000111285	1472000111393	o	79
6201	66696	There were 75 evacuees on one plane and 73 on the other.	There were 75 evacuess on one plane and 73 on the other.	3173284	1472000111601	1472000111630	n	78
6201	66696	There were 75 evacuees on one plane and 73 on the other.	There were 75 evacuess on one plane and 73 on the other.	3173287	1472000111712	1472000111844	 	32
6201	66696	There were 75 evacuees on one plane and 73 on the other.	There were 75 evacuess on one plane and 73 on the other.	3173291	1472000111920	1472000112006	o	79
6201	66696	There were 75 evacuees on one plane and 73 on the other.	There were 75 evacuess on one plane and 73 on the other.	3173296	1472000112165	1472000112266	n	78
6201	66696	There were 75 evacuees on one plane and 73 on the other.	There were 75 evacuess on one plane and 73 on the other.	3173342	1472000112376	1472000112504	e	69
6201	66696	There were 75 evacuees on one plane and 73 on the other.	There were 75 evacuess on one plane and 73 on the other.	3173347	1472000112531	1472000112634	 	32
6201	66696	There were 75 evacuees on one plane and 73 on the other.	There were 75 evacuess on one plane and 73 on the other.	3173350	1472000113022	1472000113117	p	80
6201	66696	There were 75 evacuees on one plane and 73 on the other.	There were 75 evacuess on one plane and 73 on the other.	3173355	1472000113266	1472000113376	l	76
6201	66696	There were 75 evacuees on one plane and 73 on the other.	There were 75 evacuess on one plane and 73 on the other.	3173359	1472000113496	1472000113619	a	65
6201	66696	There were 75 evacuees on one plane and 73 on the other.	There were 75 evacuess on one plane and 73 on the other.	3173396	1472000113706	1472000113810	n	78
6201	66696	There were 75 evacuees on one plane and 73 on the other.	There were 75 evacuess on one plane and 73 on the other.	3173399	1472000113849	1472000113954	e	69
6201	66696	There were 75 evacuees on one plane and 73 on the other.	There were 75 evacuess on one plane and 73 on the other.	3173402	1472000114092	1472000114213	 	32
6201	66696	There were 75 evacuees on one plane and 73 on the other.	There were 75 evacuess on one plane and 73 on the other.	3173403	1472000114497	1472000114641	a	65
6201	66696	There were 75 evacuees on one plane and 73 on the other.	There were 75 evacuess on one plane and 73 on the other.	3173404	1472000114785	1472000114866	n	78
6201	66696	There were 75 evacuees on one plane and 73 on the other.	There were 75 evacuess on one plane and 73 on the other.	3173481	1472000114927	1472000115049	d	68
6201	66696	There were 75 evacuees on one plane and 73 on the other.	There were 75 evacuess on one plane and 73 on the other.	3173484	1472000115128	1472000115254	 	32
6201	66696	There were 75 evacuees on one plane and 73 on the other.	There were 75 evacuess on one plane and 73 on the other.	3173489	1472000115764	1472000115855	7	55
6201	66696	There were 75 evacuees on one plane and 73 on the other.	There were 75 evacuess on one plane and 73 on the other.	3173492	1472000116166	1472000116236	3	51
6201	66696	There were 75 evacuees on one plane and 73 on the other.	There were 75 evacuess on one plane and 73 on the other.	3173495	1472000116701	1472000116800	 	32
6201	66696	There were 75 evacuees on one plane and 73 on the other.	There were 75 evacuess on one plane and 73 on the other.	3173524	1472000117292	1472000117414	o	79
6201	66696	There were 75 evacuees on one plane and 73 on the other.	There were 75 evacuess on one plane and 73 on the other.	3173525	1472000117518	1472000117623	n	78
6201	66696	There were 75 evacuees on one plane and 73 on the other.	There were 75 evacuess on one plane and 73 on the other.	3173528	1472000117718	1472000117842	 	32
6201	66696	There were 75 evacuees on one plane and 73 on the other.	There were 75 evacuess on one plane and 73 on the other.	3173532	1472000117869	1472000117987	t	84
6201	66696	There were 75 evacuees on one plane and 73 on the other.	There were 75 evacuess on one plane and 73 on the other.	3173571	1472000117975	1472000118077	h	72
6201	66696	There were 75 evacuees on one plane and 73 on the other.	There were 75 evacuess on one plane and 73 on the other.	3173573	1472000118089	1472000118204	e	69
6201	66696	There were 75 evacuees on one plane and 73 on the other.	There were 75 evacuess on one plane and 73 on the other.	3173575	1472000118200	1472000118305	 	32
6201	66696	There were 75 evacuees on one plane and 73 on the other.	There were 75 evacuess on one plane and 73 on the other.	3173578	1472000118494	1472000118664	o	79
6201	66696	There were 75 evacuees on one plane and 73 on the other.	There were 75 evacuess on one plane and 73 on the other.	3173580	1472000118897	1472000118991	t	84
6201	66696	There were 75 evacuees on one plane and 73 on the other.	There were 75 evacuess on one plane and 73 on the other.	3173583	1472000119123	1472000119208	h	72
6201	66696	There were 75 evacuees on one plane and 73 on the other.	There were 75 evacuess on one plane and 73 on the other.	3173627	1472000119252	1472000119394	e	69
6201	66696	There were 75 evacuees on one plane and 73 on the other.	There were 75 evacuess on one plane and 73 on the other.	3173629	1472000119472	1472000119596	r	82
6201	66696	There were 75 evacuees on one plane and 73 on the other.	There were 75 evacuess on one plane and 73 on the other.	3173632	1472000119983	1472000120075	.	190
6201	66716	It will probably be tomorrow.	It will probably be tomorrow.	3174084	1472000129740	1472000130049	SHIFT	16
6201	66716	It will probably be tomorrow.	It will probably be tomorrow.	3174088	1472000130239	1472000130320	t	84
6201	66716	It will probably be tomorrow.	It will probably be tomorrow.	3174092	1472000130381	1472000130490	 	32
6201	66716	It will probably be tomorrow.	It will probably be tomorrow.	3174096	1472000130624	1472000130725	w	87
6201	66716	It will probably be tomorrow.	It will probably be tomorrow.	3174099	1472000130851	1472000130925	i	73
6201	66716	It will probably be tomorrow.	It will probably be tomorrow.	3174101	1472000131079	1472000131169	l	76
6201	66716	It will probably be tomorrow.	It will probably be tomorrow.	3174140	1472000131242	1472000131350	l	76
6201	66716	It will probably be tomorrow.	It will probably be tomorrow.	3174143	1472000131417	1472000131546	 	32
6201	66716	It will probably be tomorrow.	It will probably be tomorrow.	3174144	1472000131967	1472000132051	p	80
6201	66716	It will probably be tomorrow.	It will probably be tomorrow.	3174145	1472000132148	1472000132248	r	82
6201	66716	It will probably be tomorrow.	It will probably be tomorrow.	3174147	1472000132376	1472000132466	o	79
6201	66716	It will probably be tomorrow.	It will probably be tomorrow.	3174183	1472000132675	1472000132749	b	66
6201	66716	It will probably be tomorrow.	It will probably be tomorrow.	3174185	1472000132821	1472000132930	a	65
6201	66716	It will probably be tomorrow.	It will probably be tomorrow.	3174190	1472000132995	1472000133054	b	66
6201	66716	It will probably be tomorrow.	It will probably be tomorrow.	3174194	1472000133160	1472000133225	a	65
6201	66716	It will probably be tomorrow.	It will probably be tomorrow.	3174199	1472000133275	1472000133387	l	76
6201	66716	It will probably be tomorrow.	It will probably be tomorrow.	3174363	1472000135195	1472000135275	BKSP	8
6201	66716	It will probably be tomorrow.	It will probably be tomorrow.	3174369	1472000135405	1472000135499	BKSP	8
6201	66716	It will probably be tomorrow.	It will probably be tomorrow.	3174373	1472000136176	1472000136288	l	76
6201	66716	It will probably be tomorrow.	It will probably be tomorrow.	3174377	1472000136467	1472000136552	y	89
6201	66716	It will probably be tomorrow.	It will probably be tomorrow.	3174380	1472000136666	1472000136773	 	32
6201	66716	It will probably be tomorrow.	It will probably be tomorrow.	3174383	1472000136881	1472000136963	b	66
6201	66716	It will probably be tomorrow.	It will probably be tomorrow.	3174385	1472000137043	1472000137182	e	69
6201	66716	It will probably be tomorrow.	It will probably be tomorrow.	3174399	1472000137188	1472000137286	 	32
6201	66716	It will probably be tomorrow.	It will probably be tomorrow.	3174402	1472000137334	1472000137417	t	84
6201	66716	It will probably be tomorrow.	It will probably be tomorrow.	3174405	1472000137495	1472000137587	o	79
6201	66716	It will probably be tomorrow.	It will probably be tomorrow.	3174407	1472000137726	1472000137825	m	77
6201	66716	It will probably be tomorrow.	It will probably be tomorrow.	3174410	1472000137948	1472000138049	o	79
6201	66716	It will probably be tomorrow.	It will probably be tomorrow.	3174436	1472000138269	1472000138350	r	82
6201	66716	It will probably be tomorrow.	It will probably be tomorrow.	3174438	1472000138437	1472000138531	r	82
6201	66716	It will probably be tomorrow.	It will probably be tomorrow.	3174441	1472000138655	1472000138756	o	79
6201	66716	It will probably be tomorrow.	It will probably be tomorrow.	3174444	1472000138885	1472000139006	w	87
6201	66716	It will probably be tomorrow.	It will probably be tomorrow.	3174448	1472000139793	1472000139878	.	190
6201	66738	We need to bring them along slowly.	We need to bring them along slowly.	3174769	1472000145647	1472000145983	SHIFT	16
6201	66738	We need to bring them along slowly.	We need to bring them along slowly.	3174766	1472000145873	1472000145968	W	87
6201	66738	We need to bring them along slowly.	We need to bring them along slowly.	3174774	1472000146093	1472000146191	e	69
6201	66738	We need to bring them along slowly.	We need to bring them along slowly.	3174778	1472000146319	1472000146432	 	32
6201	66738	We need to bring them along slowly.	We need to bring them along slowly.	3174782	1472000146543	1472000146610	n	78
6201	66738	We need to bring them along slowly.	We need to bring them along slowly.	3174785	1472000146665	1472000146726	e	69
6201	66738	We need to bring them along slowly.	We need to bring them along slowly.	3174832	1472000146837	1472000146926	e	69
6201	66738	We need to bring them along slowly.	We need to bring them along slowly.	3174835	1472000147019	1472000147139	d	68
6201	66738	We need to bring them along slowly.	We need to bring them along slowly.	3174838	1472000147206	1472000147319	 	32
6201	66738	We need to bring them along slowly.	We need to bring them along slowly.	3174840	1472000147331	1472000147433	t	84
6201	66738	We need to bring them along slowly.	We need to bring them along slowly.	3174841	1472000147480	1472000147568	o	79
6201	66738	We need to bring them along slowly.	We need to bring them along slowly.	3174906	1472000147660	1472000147778	 	32
6201	66738	We need to bring them along slowly.	We need to bring them along slowly.	3174911	1472000147821	1472000147894	b	66
6201	66738	We need to bring them along slowly.	We need to bring them along slowly.	3174915	1472000148064	1472000148161	r	82
6201	66738	We need to bring them along slowly.	We need to bring them along slowly.	3174917	1472000148247	1472000148337	i	73
6201	66738	We need to bring them along slowly.	We need to bring them along slowly.	3174920	1472000148452	1472000148549	n	78
6201	66738	We need to bring them along slowly.	We need to bring them along slowly.	3174932	1472000148568	1472000148669	g	71
6201	66738	We need to bring them along slowly.	We need to bring them along slowly.	3174934	1472000148707	1472000148806	 	32
6201	66738	We need to bring them along slowly.	We need to bring them along slowly.	3174939	1472000148842	1472000148942	t	84
6201	66738	We need to bring them along slowly.	We need to bring them along slowly.	3174944	1472000148954	1472000149019	h	72
6201	66738	We need to bring them along slowly.	We need to bring them along slowly.	3174951	1472000149109	1472000149215	e	69
6201	66738	We need to bring them along slowly.	We need to bring them along slowly.	3175096	1472000149262	1472000149362	m	77
6201	66738	We need to bring them along slowly.	We need to bring them along slowly.	3175099	1472000151084	1472000151193	 	32
6201	66738	We need to bring them along slowly.	We need to bring them along slowly.	3175102	1472000151504	1472000151629	a	65
6201	66738	We need to bring them along slowly.	We need to bring them along slowly.	3175105	1472000151740	1472000151820	l	76
6201	66738	We need to bring them along slowly.	We need to bring them along slowly.	3175109	1472000151948	1472000152035	o	79
6201	66738	We need to bring them along slowly.	We need to bring them along slowly.	3175142	1472000152115	1472000152224	n	78
6201	66738	We need to bring them along slowly.	We need to bring them along slowly.	3175143	1472000152245	1472000152352	g	71
6201	66738	We need to bring them along slowly.	We need to bring them along slowly.	3175144	1472000152358	1472000152466	 	32
6201	66738	We need to bring them along slowly.	We need to bring them along slowly.	3175146	1472000152779	1472000152908	s	83
6201	66738	We need to bring them along slowly.	We need to bring them along slowly.	3175148	1472000152961	1472000153046	l	76
6201	66738	We need to bring them along slowly.	We need to bring them along slowly.	3175319	1472000153223	1472000153306	o	79
6201	66738	We need to bring them along slowly.	We need to bring them along slowly.	3175323	1472000153525	1472000153553	w	87
6201	66738	We need to bring them along slowly.	We need to bring them along slowly.	3175326	1472000154677	1472000154751	l	76
6201	66738	We need to bring them along slowly.	We need to bring them along slowly.	3175334	1472000154999	1472000155071	y	89
6201	66738	We need to bring them along slowly.	We need to bring them along slowly.	3175339	1472000156316	1472000156382	.	190
6201	66756	I'm glad you are involved!	I'm glad you are involved!	3175670	1472000160238	1472000160646	SHIFT	16
6201	66756	I'm glad you are involved!	I'm glad you are involved!	3175668	1472000160522	1472000160579	I	73
6201	66756	I'm glad you are involved!	I'm glad you are involved!	3175673	1472000161218	1472000161286	'	222
6201	66756	I'm glad you are involved!	I'm glad you are involved!	3175676	1472000161716	1472000161802	m	77
6201	66756	I'm glad you are involved!	I'm glad you are involved!	3175680	1472000161942	1472000162047	 	32
6201	66756	I'm glad you are involved!	I'm glad you are involved!	3175683	1472000162365	1472000162431	g	71
6201	66756	I'm glad you are involved!	I'm glad you are involved!	3175740	1472000162922	1472000162994	l	76
6201	66756	I'm glad you are involved!	I'm glad you are involved!	3175743	1472000163031	1472000163166	a	65
6201	66756	I'm glad you are involved!	I'm glad you are involved!	3175748	1472000163269	1472000163370	d	68
6201	66756	I'm glad you are involved!	I'm glad you are involved!	3175753	1472000163442	1472000163564	 	32
6201	66756	I'm glad you are involved!	I'm glad you are involved!	3175758	1472000163870	1472000163959	y	89
6201	66756	I'm glad you are involved!	I'm glad you are involved!	3175825	1472000164064	1472000164196	o	79
6201	66756	I'm glad you are involved!	I'm glad you are involved!	3175831	1472000164297	1472000164379	u	85
6201	66756	I'm glad you are involved!	I'm glad you are involved!	3175837	1472000164800	1472000164897	 	32
6201	66756	I'm glad you are involved!	I'm glad you are involved!	3175844	1472000165095	1472000165222	a	65
6201	66756	I'm glad you are involved!	I'm glad you are involved!	3175849	1472000165360	1472000165445	r	82
6201	66756	I'm glad you are involved!	I'm glad you are involved!	3175889	1472000165522	1472000165623	e	69
6201	66756	I'm glad you are involved!	I'm glad you are involved!	3175891	1472000165710	1472000165821	 	32
6201	66756	I'm glad you are involved!	I'm glad you are involved!	3175893	1472000165916	1472000166016	i	73
6201	66756	I'm glad you are involved!	I'm glad you are involved!	3175895	1472000166140	1472000166222	n	78
6201	66756	I'm glad you are involved!	I'm glad you are involved!	3175898	1472000166345	1472000166488	v	86
6201	66756	I'm glad you are involved!	I'm glad you are involved!	3175959	1472000166571	1472000166631	o	79
6201	66756	I'm glad you are involved!	I'm glad you are involved!	3175963	1472000166794	1472000166864	l	76
6201	66756	I'm glad you are involved!	I'm glad you are involved!	3175967	1472000167111	1472000167228	v	86
6201	66756	I'm glad you are involved!	I'm glad you are involved!	3175974	1472000167359	1472000167451	e	69
6201	66756	I'm glad you are involved!	I'm glad you are involved!	3175981	1472000167582	1472000167680	d	68
6201	66756	I'm glad you are involved!	I'm glad you are involved!	3176184	1472000168804	1472000169443	SHIFT	16
6201	66756	I'm glad you are involved!	I'm glad you are involved!	3176180	1472000169347	1472000169438	!	49
6201	66775	Thank you for your call.	Thank you for your call.	3177540	1472000192874	1472000193321	SHIFT	16
6201	66775	Thank you for your call.	Thank you for your call.	3177537	1472000193264	1472000193269	T	84
6201	66775	Thank you for your call.	Thank you for your call.	3177544	1472000193421	1472000193504	h	72
6201	66775	Thank you for your call.	Thank you for your call.	3177548	1472000193698	1472000193852	a	65
6201	66775	Thank you for your call.	Thank you for your call.	3177552	1472000195412	1472000195494	n	78
6201	66775	Thank you for your call.	Thank you for your call.	3177556	1472000195617	1472000195727	k	75
6201	66775	Thank you for your call.	Thank you for your call.	3177604	1472000195846	1472000195977	 	32
6201	66775	Thank you for your call.	Thank you for your call.	3177606	1472000196085	1472000196173	y	89
6201	66775	Thank you for your call.	Thank you for your call.	3177608	1472000196277	1472000196412	o	79
6201	66775	Thank you for your call.	Thank you for your call.	3177613	1472000196503	1472000196585	u	85
6201	66775	Thank you for your call.	Thank you for your call.	3177617	1472000196791	1472000196903	 	32
6201	66775	Thank you for your call.	Thank you for your call.	3177723	1472000197796	1472000197983	f	70
6201	66775	Thank you for your call.	Thank you for your call.	3177726	1472000198109	1472000198185	o	79
6201	66775	Thank you for your call.	Thank you for your call.	3177731	1472000198191	1472000198305	r	82
6201	66775	Thank you for your call.	Thank you for your call.	3177736	1472000198567	1472000198702	 	32
6201	66775	Thank you for your call.	Thank you for your call.	3177741	1472000199566	1472000199658	y	89
6201	66775	Thank you for your call.	Thank you for your call.	3177801	1472000199727	1472000199876	o	79
6201	66775	Thank you for your call.	Thank you for your call.	3177805	1472000199913	1472000200009	u	85
6201	66775	Thank you for your call.	Thank you for your call.	3177809	1472000200106	1472000200236	r	82
6201	66775	Thank you for your call.	Thank you for your call.	3177812	1472000200221	1472000200320	 	32
6201	66775	Thank you for your call.	Thank you for your call.	3177818	1472000200452	1472000200553	c	67
6201	66775	Thank you for your call.	Thank you for your call.	3177895	1472000200680	1472000200828	a	65
6201	66775	Thank you for your call.	Thank you for your call.	3177899	1472000200901	1472000200975	l	76
6201	66775	Thank you for your call.	Thank you for your call.	3177907	1472000201077	1472000201147	l	76
6201	66775	Thank you for your call.	Thank you for your call.	3177913	1472000201346	1472000201422	.	190
6201	66815	I wasn't as prepared as I will be this year.	I wasn't as prepared as I will be this year.	3178365	1472000206928	1472000207246	SHIFT	16
6201	66815	I wasn't as prepared as I will be this year.	I wasn't as prepared as I will be this year.	3178368	1472000207151	1472000207256	I	73
6201	66815	I wasn't as prepared as I will be this year.	I wasn't as prepared as I will be this year.	3178375	1472000207385	1472000207511	 	32
6201	66815	I wasn't as prepared as I will be this year.	I wasn't as prepared as I will be this year.	3178380	1472000207919	1472000208032	w	87
6201	66815	I wasn't as prepared as I will be this year.	I wasn't as prepared as I will be this year.	3178386	1472000208188	1472000208311	a	65
6201	66815	I wasn't as prepared as I will be this year.	I wasn't as prepared as I will be this year.	3178393	1472000208414	1472000208550	s	83
6201	66815	I wasn't as prepared as I will be this year.	I wasn't as prepared as I will be this year.	3178477	1472000208616	1472000208746	n	78
6201	66815	I wasn't as prepared as I will be this year.	I wasn't as prepared as I will be this year.	3178480	1472000209356	1472000209475	'	222
6201	66815	I wasn't as prepared as I will be this year.	I wasn't as prepared as I will be this year.	3178486	1472000209675	1472000209791	t	84
6201	66815	I wasn't as prepared as I will be this year.	I wasn't as prepared as I will be this year.	3178489	1472000209909	1472000210042	 	32
6201	66815	I wasn't as prepared as I will be this year.	I wasn't as prepared as I will be this year.	3178497	1472000210146	1472000210276	a	65
6201	66815	I wasn't as prepared as I will be this year.	I wasn't as prepared as I will be this year.	3178654	1472000210365	1472000210471	s	83
6201	66815	I wasn't as prepared as I will be this year.	I wasn't as prepared as I will be this year.	3178659	1472000210500	1472000210591	 	32
6201	66815	I wasn't as prepared as I will be this year.	I wasn't as prepared as I will be this year.	3178666	1472000211928	1472000212024	p	80
6201	66815	I wasn't as prepared as I will be this year.	I wasn't as prepared as I will be this year.	3178670	1472000212614	1472000212704	r	82
6201	66815	I wasn't as prepared as I will be this year.	I wasn't as prepared as I will be this year.	3178672	1472000212783	1472000212898	e	69
6201	66815	I wasn't as prepared as I will be this year.	I wasn't as prepared as I will be this year.	3178720	1472000213185	1472000213251	p	80
6201	66815	I wasn't as prepared as I will be this year.	I wasn't as prepared as I will be this year.	3178722	1472000213306	1472000213404	a	65
6201	66815	I wasn't as prepared as I will be this year.	I wasn't as prepared as I will be this year.	3178725	1472000213494	1472000213588	r	82
6201	66815	I wasn't as prepared as I will be this year.	I wasn't as prepared as I will be this year.	3178730	1472000213673	1472000213758	e	69
6201	66815	I wasn't as prepared as I will be this year.	I wasn't as prepared as I will be this year.	3178734	1472000213879	1472000213971	d	68
6201	66815	I wasn't as prepared as I will be this year.	I wasn't as prepared as I will be this year.	3178807	1472000214185	1472000214288	 	32
6201	66815	I wasn't as prepared as I will be this year.	I wasn't as prepared as I will be this year.	3178812	1472000214423	1472000214540	a	65
6201	66815	I wasn't as prepared as I will be this year.	I wasn't as prepared as I will be this year.	3178815	1472000214660	1472000214752	s	83
6201	66815	I wasn't as prepared as I will be this year.	I wasn't as prepared as I will be this year.	3178819	1472000214885	1472000214988	 	32
6201	66815	I wasn't as prepared as I will be this year.	I wasn't as prepared as I will be this year.	3178824	1472000215095	1472000215357	SHIFT	16
6201	66815	I wasn't as prepared as I will be this year.	I wasn't as prepared as I will be this year.	3178879	1472000215303	1472000215379	I	73
6201	66815	I wasn't as prepared as I will be this year.	I wasn't as prepared as I will be this year.	3178880	1472000215498	1472000215587	 	32
6201	66815	I wasn't as prepared as I will be this year.	I wasn't as prepared as I will be this year.	3178881	1472000215698	1472000215808	w	87
6201	66815	I wasn't as prepared as I will be this year.	I wasn't as prepared as I will be this year.	3178882	1472000215848	1472000215915	i	73
6201	66815	I wasn't as prepared as I will be this year.	I wasn't as prepared as I will be this year.	3178884	1472000216089	1472000216174	l	76
6201	66815	I wasn't as prepared as I will be this year.	I wasn't as prepared as I will be this year.	3178886	1472000216281	1472000216394	l	76
6201	66815	I wasn't as prepared as I will be this year.	I wasn't as prepared as I will be this year.	3178961	1472000216503	1472000216632	 	32
6201	66815	I wasn't as prepared as I will be this year.	I wasn't as prepared as I will be this year.	3178965	1472000217210	1472000217296	b	66
6201	66815	I wasn't as prepared as I will be this year.	I wasn't as prepared as I will be this year.	3178968	1472000217384	1472000217534	e	69
6201	66815	I wasn't as prepared as I will be this year.	I wasn't as prepared as I will be this year.	3178971	1472000217536	1472000217599	 	32
6201	66815	I wasn't as prepared as I will be this year.	I wasn't as prepared as I will be this year.	3178974	1472000217740	1472000217805	t	84
6201	66815	I wasn't as prepared as I will be this year.	I wasn't as prepared as I will be this year.	3179013	1472000217971	1472000218066	h	72
6201	66815	I wasn't as prepared as I will be this year.	I wasn't as prepared as I will be this year.	3179016	1472000218144	1472000218232	i	73
6201	66815	I wasn't as prepared as I will be this year.	I wasn't as prepared as I will be this year.	3179019	1472000218283	1472000218406	s	83
6201	66815	I wasn't as prepared as I will be this year.	I wasn't as prepared as I will be this year.	3179023	1472000218394	1472000218514	 	32
6201	66815	I wasn't as prepared as I will be this year.	I wasn't as prepared as I will be this year.	3179028	1472000218625	1472000218704	y	89
6201	66815	I wasn't as prepared as I will be this year.	I wasn't as prepared as I will be this year.	3179150	1472000218744	1472000218843	e	69
6201	66815	I wasn't as prepared as I will be this year.	I wasn't as prepared as I will be this year.	3179153	1472000218986	1472000219093	a	65
6201	66815	I wasn't as prepared as I will be this year.	I wasn't as prepared as I will be this year.	3179157	1472000219182	1472000219266	r	82
6201	66815	I wasn't as prepared as I will be this year.	I wasn't as prepared as I will be this year.	3179161	1472000220206	1472000220287	.	190
6201	66848	Mixed signals from Washington had convinced China.	Mixed signals from Washington had convinced China.	3179463	1472000224475	1472000224802	SHIFT	16
6201	66848	Mixed signals from Washington had convinced China.	Mixed signals from Washington had convinced China.	3179459	1472000224635	1472000224729	M	77
6201	66848	Mixed signals from Washington had convinced China.	Mixed signals from Washington had convinced China.	3179467	1472000224911	1472000224991	i	73
6201	66848	Mixed signals from Washington had convinced China.	Mixed signals from Washington had convinced China.	3179471	1472000225298	1472000225376	x	88
6201	66848	Mixed signals from Washington had convinced China.	Mixed signals from Washington had convinced China.	3179474	1472000225563	1472000225647	e	69
6201	66848	Mixed signals from Washington had convinced China.	Mixed signals from Washington had convinced China.	3179479	1472000225790	1472000225870	d	68
6201	66848	Mixed signals from Washington had convinced China.	Mixed signals from Washington had convinced China.	3179523	1472000226027	1472000226143	 	32
6201	66848	Mixed signals from Washington had convinced China.	Mixed signals from Washington had convinced China.	3179524	1472000226209	1472000226309	s	83
6201	66848	Mixed signals from Washington had convinced China.	Mixed signals from Washington had convinced China.	3179526	1472000226426	1472000226512	i	73
6201	66848	Mixed signals from Washington had convinced China.	Mixed signals from Washington had convinced China.	3179529	1472000226667	1472000226735	g	71
6201	66848	Mixed signals from Washington had convinced China.	Mixed signals from Washington had convinced China.	3179532	1472000226884	1472000226965	n	78
6201	66848	Mixed signals from Washington had convinced China.	Mixed signals from Washington had convinced China.	3179651	1472000227104	1472000227229	a	65
6201	66848	Mixed signals from Washington had convinced China.	Mixed signals from Washington had convinced China.	3179653	1472000227341	1472000227418	l	76
6201	66848	Mixed signals from Washington had convinced China.	Mixed signals from Washington had convinced China.	3179657	1472000228013	1472000228099	s	83
6201	66848	Mixed signals from Washington had convinced China.	Mixed signals from Washington had convinced China.	3179659	1472000228275	1472000228405	 	32
6201	66848	Mixed signals from Washington had convinced China.	Mixed signals from Washington had convinced China.	3179663	1472000228684	1472000228771	f	70
6201	66848	Mixed signals from Washington had convinced China.	Mixed signals from Washington had convinced China.	3179716	1472000228891	1472000228983	r	82
6201	66848	Mixed signals from Washington had convinced China.	Mixed signals from Washington had convinced China.	3179720	1472000229010	1472000229115	o	79
6201	66848	Mixed signals from Washington had convinced China.	Mixed signals from Washington had convinced China.	3179728	1472000229241	1472000229363	m	77
6201	66848	Mixed signals from Washington had convinced China.	Mixed signals from Washington had convinced China.	3179735	1472000229437	1472000229550	 	32
6201	66848	Mixed signals from Washington had convinced China.	Mixed signals from Washington had convinced China.	3179740	1472000229695	1472000229878	SHIFT	16
6201	66848	Mixed signals from Washington had convinced China.	Mixed signals from Washington had convinced China.	3179806	1472000229798	1472000229895	W	87
6201	66848	Mixed signals from Washington had convinced China.	Mixed signals from Washington had convinced China.	3179809	1472000230031	1472000230138	a	65
6201	66848	Mixed signals from Washington had convinced China.	Mixed signals from Washington had convinced China.	3179814	1472000230249	1472000230360	s	83
6201	66848	Mixed signals from Washington had convinced China.	Mixed signals from Washington had convinced China.	3179818	1472000230444	1472000230522	h	72
6201	66848	Mixed signals from Washington had convinced China.	Mixed signals from Washington had convinced China.	3179822	1472000230608	1472000230705	i	73
6201	66848	Mixed signals from Washington had convinced China.	Mixed signals from Washington had convinced China.	3179827	1472000230816	1472000230910	n	78
6201	66848	Mixed signals from Washington had convinced China.	Mixed signals from Washington had convinced China.	3179875	1472000230929	1472000231021	g	71
6201	66848	Mixed signals from Washington had convinced China.	Mixed signals from Washington had convinced China.	3179876	1472000231187	1472000231284	t	84
6201	66848	Mixed signals from Washington had convinced China.	Mixed signals from Washington had convinced China.	3179877	1472000231396	1472000231499	o	79
6201	66848	Mixed signals from Washington had convinced China.	Mixed signals from Washington had convinced China.	3179880	1472000231707	1472000231811	n	78
6201	66848	Mixed signals from Washington had convinced China.	Mixed signals from Washington had convinced China.	3179884	1472000232008	1472000232145	 	32
6201	66848	Mixed signals from Washington had convinced China.	Mixed signals from Washington had convinced China.	3179946	1472000232597	1472000232678	h	72
6201	66848	Mixed signals from Washington had convinced China.	Mixed signals from Washington had convinced China.	3179952	1472000232777	1472000232912	a	65
6201	66848	Mixed signals from Washington had convinced China.	Mixed signals from Washington had convinced China.	3179957	1472000232993	1472000233086	d	68
6201	66848	Mixed signals from Washington had convinced China.	Mixed signals from Washington had convinced China.	3179962	1472000233135	1472000233256	 	32
6201	66848	Mixed signals from Washington had convinced China.	Mixed signals from Washington had convinced China.	3179970	1472000233480	1472000233582	c	67
6201	66848	Mixed signals from Washington had convinced China.	Mixed signals from Washington had convinced China.	3180034	1472000233683	1472000233805	o	79
6201	66848	Mixed signals from Washington had convinced China.	Mixed signals from Washington had convinced China.	3180036	1472000233928	1472000234012	n	78
6201	66848	Mixed signals from Washington had convinced China.	Mixed signals from Washington had convinced China.	3180042	1472000234158	1472000234255	v	86
6201	66848	Mixed signals from Washington had convinced China.	Mixed signals from Washington had convinced China.	3180049	1472000234425	1472000234486	i	73
6201	66848	Mixed signals from Washington had convinced China.	Mixed signals from Washington had convinced China.	3180056	1472000234626	1472000234715	n	78
6201	66848	Mixed signals from Washington had convinced China.	Mixed signals from Washington had convinced China.	3180163	1472000234987	1472000235110	c	67
6201	66848	Mixed signals from Washington had convinced China.	Mixed signals from Washington had convinced China.	3180165	1472000235261	1472000235347	e	69
6201	66848	Mixed signals from Washington had convinced China.	Mixed signals from Washington had convinced China.	3180168	1472000235495	1472000235591	d	68
6201	66848	Mixed signals from Washington had convinced China.	Mixed signals from Washington had convinced China.	3180170	1472000235819	1472000235944	 	32
6201	66848	Mixed signals from Washington had convinced China.	Mixed signals from Washington had convinced China.	3180173	1472000236373	1472000236581	SHIFT	16
6201	66848	Mixed signals from Washington had convinced China.	Mixed signals from Washington had convinced China.	3180250	1472000236535	1472000236663	C	67
6201	66848	Mixed signals from Washington had convinced China.	Mixed signals from Washington had convinced China.	3180255	1472000236830	1472000236910	h	72
6201	66848	Mixed signals from Washington had convinced China.	Mixed signals from Washington had convinced China.	3180260	1472000236988	1472000237085	i	73
6201	66848	Mixed signals from Washington had convinced China.	Mixed signals from Washington had convinced China.	3180264	1472000237200	1472000237279	n	78
6201	66848	Mixed signals from Washington had convinced China.	Mixed signals from Washington had convinced China.	3180267	1472000237447	1472000237575	a	65
6201	66848	Mixed signals from Washington had convinced China.	Mixed signals from Washington had convinced China.	3180269	1472000237742	1472000237839	.	190
6201	66871	Kay Mann is going to take the lead on this.	Kay Mann is going to take the lead on this.	3180721	1472000241530	1472000242213	SHIFT	16
6201	66871	Kay Mann is going to take the lead on this.	Kay Mann is going to take the lead on this.	3180718	1472000242090	1472000242192	K	75
6201	66871	Kay Mann is going to take the lead on this.	Kay Mann is going to take the lead on this.	3180725	1472000242441	1472000242579	a	65
6201	66871	Kay Mann is going to take the lead on this.	Kay Mann is going to take the lead on this.	3180731	1472000243455	1472000243547	y	89
6201	66871	Kay Mann is going to take the lead on this.	Kay Mann is going to take the lead on this.	3180738	1472000243732	1472000243853	 	32
6201	66871	Kay Mann is going to take the lead on this.	Kay Mann is going to take the lead on this.	3180742	1472000244381	1472000244670	SHIFT	16
6201	66871	Kay Mann is going to take the lead on this.	Kay Mann is going to take the lead on this.	3180826	1472000244563	1472000244689	M	77
6201	66871	Kay Mann is going to take the lead on this.	Kay Mann is going to take the lead on this.	3180828	1472000244869	1472000245044	a	65
6201	66871	Kay Mann is going to take the lead on this.	Kay Mann is going to take the lead on this.	3180834	1472000245172	1472000245248	n	78
6201	66871	Kay Mann is going to take the lead on this.	Kay Mann is going to take the lead on this.	3180838	1472000245416	1472000245511	n	78
6201	66871	Kay Mann is going to take the lead on this.	Kay Mann is going to take the lead on this.	3180842	1472000245641	1472000245784	 	32
6201	66871	Kay Mann is going to take the lead on this.	Kay Mann is going to take the lead on this.	3180845	1472000246084	1472000246162	i	73
6201	66871	Kay Mann is going to take the lead on this.	Kay Mann is going to take the lead on this.	3180880	1472000246233	1472000246353	s	83
6201	66871	Kay Mann is going to take the lead on this.	Kay Mann is going to take the lead on this.	3180883	1472000246343	1472000246447	 	32
6201	66871	Kay Mann is going to take the lead on this.	Kay Mann is going to take the lead on this.	3180887	1472000246535	1472000246662	g	71
6201	66871	Kay Mann is going to take the lead on this.	Kay Mann is going to take the lead on this.	3180892	1472000246703	1472000246813	o	79
6201	66871	Kay Mann is going to take the lead on this.	Kay Mann is going to take the lead on this.	3180900	1472000246905	1472000246974	i	73
6201	66871	Kay Mann is going to take the lead on this.	Kay Mann is going to take the lead on this.	3180999	1472000247134	1472000247217	n	78
6201	66871	Kay Mann is going to take the lead on this.	Kay Mann is going to take the lead on this.	3181003	1472000247304	1472000247428	g	71
6201	66871	Kay Mann is going to take the lead on this.	Kay Mann is going to take the lead on this.	3181011	1472000247623	1472000247742	 	32
6201	66871	Kay Mann is going to take the lead on this.	Kay Mann is going to take the lead on this.	3181016	1472000248252	1472000248374	t	84
6201	66871	Kay Mann is going to take the lead on this.	Kay Mann is going to take the lead on this.	3181021	1472000248462	1472000248579	o	79
6201	66871	Kay Mann is going to take the lead on this.	Kay Mann is going to take the lead on this.	3181066	1472000248615	1472000248730	 	32
6201	66871	Kay Mann is going to take the lead on this.	Kay Mann is going to take the lead on this.	3181071	1472000248686	1472000248789	t	84
6201	66871	Kay Mann is going to take the lead on this.	Kay Mann is going to take the lead on this.	3181076	1472000248910	1472000249071	a	65
6201	66871	Kay Mann is going to take the lead on this.	Kay Mann is going to take the lead on this.	3181079	1472000249131	1472000249235	k	75
6201	66871	Kay Mann is going to take the lead on this.	Kay Mann is going to take the lead on this.	3181082	1472000249326	1472000249444	e	69
6201	66871	Kay Mann is going to take the lead on this.	Kay Mann is going to take the lead on this.	3181144	1472000249646	1472000249799	 	32
6201	66871	Kay Mann is going to take the lead on this.	Kay Mann is going to take the lead on this.	3181148	1472000249988	1472000250102	t	84
6201	66871	Kay Mann is going to take the lead on this.	Kay Mann is going to take the lead on this.	3181153	1472000250141	1472000250257	h	72
6201	66871	Kay Mann is going to take the lead on this.	Kay Mann is going to take the lead on this.	3181156	1472000250245	1472000250364	e	69
6201	66871	Kay Mann is going to take the lead on this.	Kay Mann is going to take the lead on this.	3181160	1472000250370	1472000250470	 	32
6201	66871	Kay Mann is going to take the lead on this.	Kay Mann is going to take the lead on this.	3181225	1472000250594	1472000250696	l	76
6201	66871	Kay Mann is going to take the lead on this.	Kay Mann is going to take the lead on this.	3181231	1472000250663	1472000250769	e	69
6201	66871	Kay Mann is going to take the lead on this.	Kay Mann is going to take the lead on this.	3181239	1472000250906	1472000251032	a	65
6201	66871	Kay Mann is going to take the lead on this.	Kay Mann is going to take the lead on this.	3181244	1472000251354	1472000251436	d	68
6201	66871	Kay Mann is going to take the lead on this.	Kay Mann is going to take the lead on this.	3181248	1472000251708	1472000251811	 	32
6201	66871	Kay Mann is going to take the lead on this.	Kay Mann is going to take the lead on this.	3181297	1472000252202	1472000252316	o	79
6201	66871	Kay Mann is going to take the lead on this.	Kay Mann is going to take the lead on this.	3181299	1472000252433	1472000252529	n	78
6201	66871	Kay Mann is going to take the lead on this.	Kay Mann is going to take the lead on this.	3181304	1472000252630	1472000252783	 	32
6201	66871	Kay Mann is going to take the lead on this.	Kay Mann is going to take the lead on this.	3181308	1472000252852	1472000252977	t	84
6201	66871	Kay Mann is going to take the lead on this.	Kay Mann is going to take the lead on this.	3181314	1472000253024	1472000253117	h	72
6201	66871	Kay Mann is going to take the lead on this.	Kay Mann is going to take the lead on this.	3181355	1472000253200	1472000253298	i	73
6201	66871	Kay Mann is going to take the lead on this.	Kay Mann is going to take the lead on this.	3181356	1472000253386	1472000253551	s	83
6201	66871	Kay Mann is going to take the lead on this.	Kay Mann is going to take the lead on this.	3181357	1472000253688	1472000253775	.	190
6201	66888	New switches can also be added to the Paging System.	New switches can also be added tot he Paging System.	3181918	1472000262151	1472000262449	SHIFT	16
6201	66888	New switches can also be added to the Paging System.	New switches can also be added tot he Paging System.	3181917	1472000262325	1472000262408	N	78
6201	66888	New switches can also be added to the Paging System.	New switches can also be added tot he Paging System.	3181920	1472000262681	1472000262763	e	69
6201	66888	New switches can also be added to the Paging System.	New switches can also be added tot he Paging System.	3181924	1472000262884	1472000262996	w	87
6201	66888	New switches can also be added to the Paging System.	New switches can also be added tot he Paging System.	3181928	1472000263133	1472000263258	 	32
6201	66888	New switches can also be added to the Paging System.	New switches can also be added tot he Paging System.	3181931	1472000263318	1472000263435	s	83
6201	66888	New switches can also be added to the Paging System.	New switches can also be added tot he Paging System.	3181988	1472000263565	1472000263642	t	84
6201	66888	New switches can also be added to the Paging System.	New switches can also be added tot he Paging System.	3181991	1472000264095	1472000264245	w	87
6201	66888	New switches can also be added to the Paging System.	New switches can also be added tot he Paging System.	3181999	1472000264342	1472000264407	i	73
6201	66888	New switches can also be added to the Paging System.	New switches can also be added tot he Paging System.	3182005	1472000264486	1472000264556	t	84
6201	66888	New switches can also be added to the Paging System.	New switches can also be added tot he Paging System.	3182010	1472000264822	1472000264900	c	67
6201	66888	New switches can also be added to the Paging System.	New switches can also be added tot he Paging System.	3182083	1472000264997	1472000265079	h	72
6201	66888	New switches can also be added to the Paging System.	New switches can also be added tot he Paging System.	3182086	1472000265152	1472000265240	e	69
6201	66888	New switches can also be added to the Paging System.	New switches can also be added tot he Paging System.	3182089	1472000265658	1472000265764	s	83
6201	66888	New switches can also be added to the Paging System.	New switches can also be added tot he Paging System.	3182093	1472000265996	1472000266111	 	32
6201	66888	New switches can also be added to the Paging System.	New switches can also be added tot he Paging System.	3182096	1472000266524	1472000266612	x	88
6201	66888	New switches can also be added to the Paging System.	New switches can also be added tot he Paging System.	3182162	1472000267178	1472000267268	BKSP	8
6201	66888	New switches can also be added to the Paging System.	New switches can also be added tot he Paging System.	3182163	1472000267419	1472000267514	c	67
6201	66888	New switches can also be added to the Paging System.	New switches can also be added tot he Paging System.	3182164	1472000267640	1472000267774	a	65
6201	66888	New switches can also be added to the Paging System.	New switches can also be added tot he Paging System.	3182165	1472000268209	1472000268306	n	78
6201	66888	New switches can also be added to the Paging System.	New switches can also be added tot he Paging System.	3182166	1472000268402	1472000268497	 	32
6201	66888	New switches can also be added to the Paging System.	New switches can also be added tot he Paging System.	3182168	1472000268555	1472000268671	a	65
6201	66888	New switches can also be added to the Paging System.	New switches can also be added tot he Paging System.	3182276	1472000268763	1472000268880	l	76
6201	66888	New switches can also be added to the Paging System.	New switches can also be added tot he Paging System.	3182278	1472000268979	1472000269109	s	83
6201	66888	New switches can also be added to the Paging System.	New switches can also be added tot he Paging System.	3182282	1472000269233	1472000269342	o	79
6201	66888	New switches can also be added to the Paging System.	New switches can also be added tot he Paging System.	3182286	1472000269541	1472000269675	 	32
6201	66888	New switches can also be added to the Paging System.	New switches can also be added tot he Paging System.	3182289	1472000270518	1472000270575	b	66
6201	66888	New switches can also be added to the Paging System.	New switches can also be added tot he Paging System.	3182338	1472000270668	1472000270781	e	69
6201	66888	New switches can also be added to the Paging System.	New switches can also be added tot he Paging System.	3182343	1472000270857	1472000270975	 	32
6201	66888	New switches can also be added to the Paging System.	New switches can also be added tot he Paging System.	3182348	1472000270999	1472000271106	a	65
6201	66888	New switches can also be added to the Paging System.	New switches can also be added tot he Paging System.	3182351	1472000271333	1472000271419	d	68
6201	66888	New switches can also be added to the Paging System.	New switches can also be added tot he Paging System.	3182354	1472000271501	1472000271584	d	68
6201	66888	New switches can also be added to the Paging System.	New switches can also be added tot he Paging System.	3182431	1472000271706	1472000271789	e	69
6201	66888	New switches can also be added to the Paging System.	New switches can also be added tot he Paging System.	3182438	1472000271931	1472000272034	d	68
6201	66888	New switches can also be added to the Paging System.	New switches can also be added tot he Paging System.	3182443	1472000272282	1472000272398	 	32
6201	66888	New switches can also be added to the Paging System.	New switches can also be added tot he Paging System.	3182448	1472000272627	1472000272747	t	84
6201	66888	New switches can also be added to the Paging System.	New switches can also be added tot he Paging System.	3182452	1472000272765	1472000272880	o	79
6201	66888	New switches can also be added to the Paging System.	New switches can also be added tot he Paging System.	3182468	1472000272941	1472000273084	 	32
6201	66888	New switches can also be added to the Paging System.	New switches can also be added tot he Paging System.	3182466	1472000272969	1472000273074	t	84
6201	66888	New switches can also be added to the Paging System.	New switches can also be added tot he Paging System.	3182472	1472000273190	1472000273289	h	72
6201	66888	New switches can also be added to the Paging System.	New switches can also be added tot he Paging System.	3182475	1472000273253	1472000273377	e	69
6201	66888	New switches can also be added to the Paging System.	New switches can also be added tot he Paging System.	3182478	1472000273403	1472000273499	 	32
6201	66888	New switches can also be added to the Paging System.	New switches can also be added tot he Paging System.	3182567	1472000273789	1472000273893	p	80
6201	66888	New switches can also be added to the Paging System.	New switches can also be added tot he Paging System.	3182570	1472000273955	1472000274091	a	65
6201	66888	New switches can also be added to the Paging System.	New switches can also be added tot he Paging System.	3182574	1472000274303	1472000274412	g	71
6201	66888	New switches can also be added to the Paging System.	New switches can also be added tot he Paging System.	3182577	1472000274534	1472000274625	i	73
6201	66888	New switches can also be added to the Paging System.	New switches can also be added tot he Paging System.	3182578	1472000274772	1472000274880	n	78
6201	66888	New switches can also be added to the Paging System.	New switches can also be added tot he Paging System.	3182947	1472000275062	1472000275164	g	71
6201	66888	New switches can also be added to the Paging System.	New switches can also be added tot he Paging System.	3182949	1472000275427	1472000275557	 	32
6201	66888	New switches can also be added to the Paging System.	New switches can also be added tot he Paging System.	3182952	1472000278358	1472000280406	BKSP	8
6201	66888	New switches can also be added to the Paging System.	New switches can also be added tot he Paging System.	3182954	1472000280610	1472000280672	BKSP	8
6201	66888	New switches can also be added to the Paging System.	New switches can also be added tot he Paging System.	3182956	1472000280794	1472000280863	BKSP	8
6201	66888	New switches can also be added to the Paging System.	New switches can also be added tot he Paging System.	3182958	1472000281026	1472000281031	BKSP	8
6201	66888	New switches can also be added to the Paging System.	New switches can also be added tot he Paging System.	3182962	1472000281173	1472000281214	BKSP	8
6201	66888	New switches can also be added to the Paging System.	New switches can also be added tot he Paging System.	3182966	1472000281356	1472000281433	BKSP	8
6201	66888	New switches can also be added to the Paging System.	New switches can also be added tot he Paging System.	3182969	1472000281556	1472000281613	BKSP	8
6201	66888	New switches can also be added to the Paging System.	New switches can also be added tot he Paging System.	3182974	1472000281748	1472000281820	BKSP	8
6201	66888	New switches can also be added to the Paging System.	New switches can also be added tot he Paging System.	3182979	1472000282562	1472000282781	w	87
6201	66888	New switches can also be added to the Paging System.	New switches can also be added tot he Paging System.	3182982	1472000282783	1472000282852	i	73
6201	66888	New switches can also be added to the Paging System.	New switches can also be added tot he Paging System.	3182987	1472000282889	1472000282992	t	84
6201	66888	New switches can also be added to the Paging System.	New switches can also be added tot he Paging System.	3183037	1472000283320	1472000283465	c	67
6201	66888	New switches can also be added to the Paging System.	New switches can also be added tot he Paging System.	3183038	1472000283517	1472000283607	h	72
6201	66888	New switches can also be added to the Paging System.	New switches can also be added tot he Paging System.	3183040	1472000283658	1472000283751	e	69
6201	66888	New switches can also be added to the Paging System.	New switches can also be added tot he Paging System.	3183042	1472000284147	1472000284219	s	83
6201	66888	New switches can also be added to the Paging System.	New switches can also be added tot he Paging System.	3183046	1472000284653	1472000284783	 	32
6201	66888	New switches can also be added to the Paging System.	New switches can also be added tot he Paging System.	3183096	1472000285424	1472000285535	c	67
6201	66888	New switches can also be added to the Paging System.	New switches can also be added tot he Paging System.	3183100	1472000285622	1472000285785	a	65
6201	66888	New switches can also be added to the Paging System.	New switches can also be added tot he Paging System.	3183106	1472000285769	1472000285888	n	78
6201	66888	New switches can also be added to the Paging System.	New switches can also be added tot he Paging System.	3183114	1472000285958	1472000286119	 	32
6201	66888	New switches can also be added to the Paging System.	New switches can also be added tot he Paging System.	3183118	1472000286123	1472000286188	a	65
6201	66888	New switches can also be added to the Paging System.	New switches can also be added tot he Paging System.	3183199	1472000286257	1472000286390	l	76
6201	66888	New switches can also be added to the Paging System.	New switches can also be added tot he Paging System.	3183203	1472000286443	1472000286592	s	83
6201	66888	New switches can also be added to the Paging System.	New switches can also be added tot he Paging System.	3183208	1472000286674	1472000286807	o	79
6201	66888	New switches can also be added to the Paging System.	New switches can also be added tot he Paging System.	3183212	1472000287009	1472000287172	 	32
6201	66888	New switches can also be added to the Paging System.	New switches can also be added tot he Paging System.	3183213	1472000287576	1472000287668	b	66
6201	66888	New switches can also be added to the Paging System.	New switches can also be added tot he Paging System.	3183254	1472000287715	1472000287844	e	69
6201	66888	New switches can also be added to the Paging System.	New switches can also be added tot he Paging System.	3183257	1472000287869	1472000288000	 	32
6201	66888	New switches can also be added to the Paging System.	New switches can also be added tot he Paging System.	3183260	1472000288078	1472000288193	a	65
6201	66888	New switches can also be added to the Paging System.	New switches can also be added tot he Paging System.	3183266	1472000288534	1472000288605	d	68
6201	66888	New switches can also be added to the Paging System.	New switches can also be added tot he Paging System.	3183270	1472000288709	1472000288779	d	68
6201	66888	New switches can also be added to the Paging System.	New switches can also be added tot he Paging System.	3183303	1472000288906	1472000288981	e	69
6201	66888	New switches can also be added to the Paging System.	New switches can also be added tot he Paging System.	3183306	1472000289133	1472000289225	d	68
6201	66888	New switches can also be added to the Paging System.	New switches can also be added tot he Paging System.	3183309	1472000289488	1472000289637	 	32
6201	66888	New switches can also be added to the Paging System.	New switches can also be added tot he Paging System.	3183312	1472000289891	1472000290005	t	84
6201	66888	New switches can also be added to the Paging System.	New switches can also be added tot he Paging System.	3183337	1472000289992	1472000290116	o	79
6201	66888	New switches can also be added to the Paging System.	New switches can also be added tot he Paging System.	3183338	1472000290165	1472000290262	t	84
6201	66888	New switches can also be added to the Paging System.	New switches can also be added tot he Paging System.	3183339	1472000290186	1472000290314	 	32
6201	66888	New switches can also be added to the Paging System.	New switches can also be added tot he Paging System.	3183340	1472000290423	1472000290519	h	72
6201	66888	New switches can also be added to the Paging System.	New switches can also be added tot he Paging System.	3183341	1472000290495	1472000290611	e	69
6201	66888	New switches can also be added to the Paging System.	New switches can also be added tot he Paging System.	3183342	1472000290788	1472000290947	 	32
6201	66888	New switches can also be added to the Paging System.	New switches can also be added tot he Paging System.	3183444	1472000291698	1472000292058	SHIFT	16
6201	66888	New switches can also be added to the Paging System.	New switches can also be added tot he Paging System.	3183441	1472000291925	1472000292028	P	80
6201	66888	New switches can also be added to the Paging System.	New switches can also be added tot he Paging System.	3183446	1472000292329	1472000292451	a	65
6201	66888	New switches can also be added to the Paging System.	New switches can also be added tot he Paging System.	3183450	1472000292624	1472000292731	g	71
6201	66888	New switches can also be added to the Paging System.	New switches can also be added tot he Paging System.	3183453	1472000292813	1472000292890	i	73
6201	66888	New switches can also be added to the Paging System.	New switches can also be added tot he Paging System.	3183457	1472000293020	1472000293126	n	78
6201	66888	New switches can also be added to the Paging System.	New switches can also be added tot he Paging System.	3183569	1472000293196	1472000293289	g	71
6201	66888	New switches can also be added to the Paging System.	New switches can also be added tot he Paging System.	3183572	1472000293524	1472000293641	 	32
6201	66888	New switches can also be added to the Paging System.	New switches can also be added tot he Paging System.	3183573	1472000294249	1472000294690	SHIFT	16
6201	66888	New switches can also be added to the Paging System.	New switches can also be added tot he Paging System.	3183575	1472000294677	1472000294781	S	83
6201	66888	New switches can also be added to the Paging System.	New switches can also be added tot he Paging System.	3183578	1472000295022	1472000295088	y	89
6201	66888	New switches can also be added to the Paging System.	New switches can also be added tot he Paging System.	3183583	1472000295126	1472000295258	s	83
6201	66888	New switches can also be added to the Paging System.	New switches can also be added tot he Paging System.	3183665	1472000295389	1472000295481	t	84
6201	66888	New switches can also be added to the Paging System.	New switches can also be added tot he Paging System.	3183670	1472000295585	1472000295705	e	69
6201	66888	New switches can also be added to the Paging System.	New switches can also be added tot he Paging System.	3183676	1472000295816	1472000295892	m	77
6201	66888	New switches can also be added to the Paging System.	New switches can also be added tot he Paging System.	3183681	1472000296251	1472000296332	.	190
6201	66937	Where are they hitting the books at?	Where are they hitting the books at?	3183895	1472000299518	1472000299888	SHIFT	16
6201	66937	Where are they hitting the books at?	Where are they hitting the books at?	3183897	1472000299862	1472000299964	W	87
6201	66937	Where are they hitting the books at?	Where are they hitting the books at?	3183900	1472000300225	1472000300299	h	72
6201	66937	Where are they hitting the books at?	Where are they hitting the books at?	3183903	1472000300337	1472000300441	e	69
6201	66937	Where are they hitting the books at?	Where are they hitting the books at?	3183908	1472000300523	1472000300637	r	82
6201	66937	Where are they hitting the books at?	Where are they hitting the books at?	3183912	1472000300712	1472000300820	e	69
6201	66937	Where are they hitting the books at?	Where are they hitting the books at?	3183971	1472000300973	1472000301100	 	32
6201	66937	Where are they hitting the books at?	Where are they hitting the books at?	3183975	1472000301573	1472000301679	a	65
6201	66937	Where are they hitting the books at?	Where are they hitting the books at?	3183979	1472000301817	1472000301912	r	82
6201	66937	Where are they hitting the books at?	Where are they hitting the books at?	3183985	1472000301991	1472000302085	e	69
6201	66937	Where are they hitting the books at?	Where are they hitting the books at?	3183990	1472000302154	1472000302265	 	32
6201	66937	Where are they hitting the books at?	Where are they hitting the books at?	3184032	1472000302274	1472000302351	t	84
6201	66937	Where are they hitting the books at?	Where are they hitting the books at?	3184034	1472000302428	1472000302512	h	72
6201	66937	Where are they hitting the books at?	Where are they hitting the books at?	3184039	1472000302521	1472000302646	e	69
6201	66937	Where are they hitting the books at?	Where are they hitting the books at?	3184043	1472000302683	1472000302766	y	89
6201	66937	Where are they hitting the books at?	Where are they hitting the books at?	3184047	1472000302891	1472000303000	 	32
6201	66937	Where are they hitting the books at?	Where are they hitting the books at?	3184082	1472000303055	1472000303144	h	72
6201	66937	Where are they hitting the books at?	Where are they hitting the books at?	3184084	1472000303263	1472000303334	i	73
6201	66937	Where are they hitting the books at?	Where are they hitting the books at?	3184087	1472000303434	1472000303502	t	84
6201	66937	Where are they hitting the books at?	Where are they hitting the books at?	3184090	1472000303596	1472000303698	t	84
6201	66937	Where are they hitting the books at?	Where are they hitting the books at?	3184093	1472000303757	1472000303849	i	73
6201	66937	Where are they hitting the books at?	Where are they hitting the books at?	3184137	1472000303981	1472000304081	n	78
6201	66937	Where are they hitting the books at?	Where are they hitting the books at?	3184140	1472000304217	1472000304320	g	71
6201	66937	Where are they hitting the books at?	Where are they hitting the books at?	3184144	1472000304592	1472000304733	 	32
6201	66937	Where are they hitting the books at?	Where are they hitting the books at?	3184146	1472000304954	1472000305066	t	84
6201	66937	Where are they hitting the books at?	Where are they hitting the books at?	3184149	1472000305108	1472000305212	h	72
6201	66937	Where are they hitting the books at?	Where are they hitting the books at?	3184179	1472000305221	1472000305330	e	69
6201	66937	Where are they hitting the books at?	Where are they hitting the books at?	3184180	1472000305381	1472000305493	 	32
6201	66937	Where are they hitting the books at?	Where are they hitting the books at?	3184181	1472000305559	1472000305644	b	66
6201	66937	Where are they hitting the books at?	Where are they hitting the books at?	3184182	1472000306019	1472000306082	o	79
6201	66937	Where are they hitting the books at?	Where are they hitting the books at?	3184183	1472000306163	1472000306229	o	79
6201	66937	Where are they hitting the books at?	Where are they hitting the books at?	3184227	1472000306398	1472000306477	k	75
6201	66937	Where are they hitting the books at?	Where are they hitting the books at?	3184229	1472000306716	1472000306850	s	83
6201	66937	Where are they hitting the books at?	Where are they hitting the books at?	3184231	1472000307266	1472000307353	 	32
6201	66937	Where are they hitting the books at?	Where are they hitting the books at?	3184233	1472000307859	1472000307938	a	65
6201	66937	Where are they hitting the books at?	Where are they hitting the books at?	3184234	1472000308071	1472000308156	t	84
6201	66937	Where are they hitting the books at?	Where are they hitting the books at?	3184286	1472000308631	1472000308877	SHIFT	16
6201	66937	Where are they hitting the books at?	Where are they hitting the books at?	3184289	1472000308852	1472000308938	?	191
6201	66955	I would like it paid through I Buy It.	I would like it paid through I buy It.	3184590	1472000312973	1472000313438	SHIFT	16
6201	66955	I would like it paid through I Buy It.	I would like it paid through I buy It.	3184587	1472000313284	1472000313367	I	73
6201	66955	I would like it paid through I Buy It.	I would like it paid through I buy It.	3184594	1472000313505	1472000313607	 	32
6201	66955	I would like it paid through I Buy It.	I would like it paid through I buy It.	3184597	1472000313761	1472000313882	w	87
6201	66955	I would like it paid through I Buy It.	I would like it paid through I buy It.	3184601	1472000313946	1472000314069	o	79
6201	66955	I would like it paid through I Buy It.	I would like it paid through I buy It.	3184605	1472000314143	1472000314211	u	85
6201	66955	I would like it paid through I Buy It.	I would like it paid through I buy It.	3184650	1472000314325	1472000314432	l	76
6201	66955	I would like it paid through I Buy It.	I would like it paid through I buy It.	3184656	1472000314466	1472000314568	d	68
6201	66955	I would like it paid through I Buy It.	I would like it paid through I buy It.	3184660	1472000314647	1472000314755	 	32
6201	66955	I would like it paid through I Buy It.	I would like it paid through I buy It.	3184666	1472000314863	1472000314954	l	76
6201	66955	I would like it paid through I Buy It.	I would like it paid through I buy It.	3184670	1472000315079	1472000315133	i	73
6201	66955	I would like it paid through I Buy It.	I would like it paid through I buy It.	3184704	1472000315261	1472000315345	k	75
6201	66955	I would like it paid through I Buy It.	I would like it paid through I buy It.	3184711	1472000315376	1472000315465	e	69
6201	66955	I would like it paid through I Buy It.	I would like it paid through I buy It.	3184715	1472000315549	1472000315662	 	32
6201	66955	I would like it paid through I Buy It.	I would like it paid through I buy It.	3184720	1472000315795	1472000315882	i	73
6201	66955	I would like it paid through I Buy It.	I would like it paid through I buy It.	3184724	1472000315980	1472000316088	t	84
6201	66955	I would like it paid through I Buy It.	I would like it paid through I buy It.	3184814	1472000316398	1472000316512	 	32
6201	66955	I would like it paid through I Buy It.	I would like it paid through I buy It.	3184818	1472000317387	1472000317499	p	80
6201	66955	I would like it paid through I Buy It.	I would like it paid through I buy It.	3184822	1472000317557	1472000317703	a	65
6201	66955	I would like it paid through I Buy It.	I would like it paid through I buy It.	3184828	1472000317750	1472000317831	i	73
6201	66955	I would like it paid through I Buy It.	I would like it paid through I buy It.	3184835	1472000318009	1472000318116	d	68
6201	66955	I would like it paid through I Buy It.	I would like it paid through I buy It.	3184894	1472000318384	1472000318516	 	32
6201	66955	I would like it paid through I Buy It.	I would like it paid through I buy It.	3184898	1472000318883	1472000318973	t	84
6201	66955	I would like it paid through I Buy It.	I would like it paid through I buy It.	3184899	1472000318985	1472000319064	h	72
6201	66955	I would like it paid through I Buy It.	I would like it paid through I buy It.	3184904	1472000319219	1472000319288	r	82
6201	66955	I would like it paid through I Buy It.	I would like it paid through I buy It.	3184905	1472000319453	1472000319588	o	79
6201	66955	I would like it paid through I Buy It.	I would like it paid through I buy It.	3184976	1472000319696	1472000319764	u	85
6201	66955	I would like it paid through I Buy It.	I would like it paid through I buy It.	3184978	1472000319825	1472000319948	g	71
6201	66955	I would like it paid through I Buy It.	I would like it paid through I buy It.	3184981	1472000320112	1472000320213	h	72
6201	66955	I would like it paid through I Buy It.	I would like it paid through I buy It.	3184985	1472000320516	1472000320673	 	32
6201	66955	I would like it paid through I Buy It.	I would like it paid through I buy It.	3184988	1472000320924	1472000321209	SHIFT	16
6201	66955	I would like it paid through I Buy It.	I would like it paid through I buy It.	3185005	1472000321167	1472000321252	I	73
6201	66955	I would like it paid through I Buy It.	I would like it paid through I buy It.	3185008	1472000321379	1472000321516	 	32
6201	66955	I would like it paid through I Buy It.	I would like it paid through I buy It.	3185012	1472000321629	1472000321717	b	66
6201	66955	I would like it paid through I Buy It.	I would like it paid through I buy It.	3185017	1472000321839	1472000321954	u	85
6201	66955	I would like it paid through I Buy It.	I would like it paid through I buy It.	3185020	1472000322059	1472000322158	y	89
6201	66955	I would like it paid through I Buy It.	I would like it paid through I buy It.	3185026	1472000322342	1472000322470	 	32
6201	66955	I would like it paid through I Buy It.	I would like it paid through I buy It.	3185136	1472000323165	1472000324480	SHIFT	16
6201	66955	I would like it paid through I Buy It.	I would like it paid through I buy It.	3185134	1472000324304	1472000324398	I	73
6201	66955	I would like it paid through I Buy It.	I would like it paid through I buy It.	3185139	1472000324903	1472000325034	t	84
6201	66955	I would like it paid through I Buy It.	I would like it paid through I buy It.	3185140	1472000325261	1472000325379	.	190
6201	66971	I can return earlier.	I can return earlier.	3185426	1472000330052	1472000330577	SHIFT	16
6201	66971	I can return earlier.	I can return earlier.	3185423	1472000330443	1472000330537	I	73
6201	66971	I can return earlier.	I can return earlier.	3185430	1472000330654	1472000330770	 	32
6201	66971	I can return earlier.	I can return earlier.	3185431	1472000330934	1472000331027	c	67
6201	66971	I can return earlier.	I can return earlier.	3185434	1472000331142	1472000331277	a	65
6201	66971	I can return earlier.	I can return earlier.	3185436	1472000331376	1472000331467	n	78
6201	66971	I can return earlier.	I can return earlier.	3185482	1472000331588	1472000331692	 	32
6201	66971	I can return earlier.	I can return earlier.	3185487	1472000331760	1472000331847	r	82
6201	66971	I can return earlier.	I can return earlier.	3185492	1472000331931	1472000332027	e	69
6201	66971	I can return earlier.	I can return earlier.	3185497	1472000332142	1472000332215	t	84
6201	66971	I can return earlier.	I can return earlier.	3185502	1472000332333	1472000332405	u	85
6201	66971	I can return earlier.	I can return earlier.	3185566	1472000332450	1472000332556	r	82
6201	66971	I can return earlier.	I can return earlier.	3185567	1472000332657	1472000332731	n	78
6201	66971	I can return earlier.	I can return earlier.	3185568	1472000332912	1472000333082	 	32
6201	66971	I can return earlier.	I can return earlier.	3185569	1472000333166	1472000333266	e	69
6201	66971	I can return earlier.	I can return earlier.	3185570	1472000333418	1472000333531	a	65
6201	66971	I can return earlier.	I can return earlier.	3185615	1472000333615	1472000333690	r	82
6201	66971	I can return earlier.	I can return earlier.	3185618	1472000333742	1472000333872	l	76
6201	66971	I can return earlier.	I can return earlier.	3185621	1472000334056	1472000334087	i	73
6201	66971	I can return earlier.	I can return earlier.	3185624	1472000334199	1472000334291	e	69
6201	66971	I can return earlier.	I can return earlier.	3185630	1472000334471	1472000334542	r	82
6201	66971	I can return earlier.	I can return earlier.	3185653	1472000334926	1472000335006	.	190
6201	66978	Get with David Lund.	Get with David Lund.	3185947	1472000339318	1472000340032	SHIFT	16
6201	66978	Get with David Lund.	Get with David Lund.	3185944	1472000339932	1472000340010	G	71
6201	66978	Get with David Lund.	Get with David Lund.	3185950	1472000340240	1472000340362	e	69
6201	66978	Get with David Lund.	Get with David Lund.	3185955	1472000340413	1472000340514	t	84
6201	66978	Get with David Lund.	Get with David Lund.	3185958	1472000340688	1472000340801	 	32
6201	66978	Get with David Lund.	Get with David Lund.	3185963	1472000341558	1472000341711	w	87
6201	66978	Get with David Lund.	Get with David Lund.	3186017	1472000341800	1472000341885	i	73
6201	66978	Get with David Lund.	Get with David Lund.	3186022	1472000341975	1472000342075	t	84
6201	66978	Get with David Lund.	Get with David Lund.	3186028	1472000342168	1472000342249	h	72
6201	66978	Get with David Lund.	Get with David Lund.	3186033	1472000342368	1472000342491	 	32
6201	66978	Get with David Lund.	Get with David Lund.	3186038	1472000342671	1472000342892	SHIFT	16
6201	66978	Get with David Lund.	Get with David Lund.	3186084	1472000342793	1472000342903	D	68
6201	66978	Get with David Lund.	Get with David Lund.	3186086	1472000342990	1472000343117	a	65
6201	66978	Get with David Lund.	Get with David Lund.	3186089	1472000343182	1472000343293	v	86
6201	66978	Get with David Lund.	Get with David Lund.	3186091	1472000343436	1472000343541	i	73
6201	66978	Get with David Lund.	Get with David Lund.	3186095	1472000343745	1472000343847	d	68
6201	66978	Get with David Lund.	Get with David Lund.	3186099	1472000344087	1472000344205	 	32
6201	66978	Get with David Lund.	Get with David Lund.	3186177	1472000344656	1472000344949	SHIFT	16
6201	66978	Get with David Lund.	Get with David Lund.	3186182	1472000344901	1472000344995	L	76
6201	66978	Get with David Lund.	Get with David Lund.	3186184	1472000345194	1472000345258	u	85
6201	66978	Get with David Lund.	Get with David Lund.	3186185	1472000345418	1472000345481	n	78
6201	66978	Get with David Lund.	Get with David Lund.	3186186	1472000345646	1472000345807	d	68
6201	66978	Get with David Lund.	Get with David Lund.	3186188	1472000345992	1472000346072	.	190
