PARTICIPANT_ID	TEST_SECTION_ID	SENTENCE	USER_INPUT	KEYSTROKE_ID	PRESS_TIME	RELEASE_TIME	LETTER	KEYCODE
6204	66602	I think Tim wants to move quickly.	I think Tim wants to move quickly.	3168804	1472000132665	1472000133274	SHIFT	16
6204	66602	I think Tim wants to move quickly.	I think Tim wants to move quickly.	3168809	1472000133296	1472000133437	SHIFT	16
6204	66602	I think Tim wants to move quickly.	I think Tim wants to move quickly.	3168816	1472000137665	1472000137952	SHIFT	16
6204	66602	I think Tim wants to move quickly.	I think Tim wants to move quickly.	3168812	1472000137823	1472000137872	I	73
6204	66602	I think Tim wants to move quickly.	I think Tim wants to move quickly.	3168821	1472000138199	1472000138294	 	32
6204	66602	I think Tim wants to move quickly.	I think Tim wants to move quickly.	3168829	1472000139619	1472000139684	t	84
6204	66602	I think Tim wants to move quickly.	I think Tim wants to move quickly.	3168832	1472000140050	1472000140105	h	72
6204	66602	I think Tim wants to move quickly.	I think Tim wants to move quickly.	3168836	1472000140351	1472000140409	i	73
6204	66602	I think Tim wants to move quickly.	I think Tim wants to move quickly.	3168948	1472000140636	1472000140692	n	78
6204	66602	I think Tim wants to move quickly.	I think Tim wants to move quickly.	3168951	1472000140811	1472000140892	k	75
6204	66602	I think Tim wants to move quickly.	I think Tim wants to move quickly.	3168955	1472000140951	1472000141034	 	32
6204	66602	I think Tim wants to move quickly.	I think Tim wants to move quickly.	3168959	1472000141274	1472000141679	SHIFT	16
6204	66602	I think Tim wants to move quickly.	I think Tim wants to move quickly.	3168962	1472000141654	1472000141695	R	82
6204	66602	I think Tim wants to move quickly.	I think Tim wants to move quickly.	3168966	1472000141783	1472000141890	SHIFT	16
6204	66602	I think Tim wants to move quickly.	I think Tim wants to move quickly.	3168971	1472000142479	1472000142574	BKSP	8
6204	66602	I think Tim wants to move quickly.	I think Tim wants to move quickly.	3169041	1472000142630	1472000142995	SHIFT	16
6204	66602	I think Tim wants to move quickly.	I think Tim wants to move quickly.	3168976	1472000142752	1472000142874	T	84
6204	66602	I think Tim wants to move quickly.	I think Tim wants to move quickly.	3169042	1472000143144	1472000143202	i	73
6204	66602	I think Tim wants to move quickly.	I think Tim wants to move quickly.	3169043	1472000143331	1472000143399	m	77
6204	66602	I think Tim wants to move quickly.	I think Tim wants to move quickly.	3169044	1472000143474	1472000143559	 	32
6204	66602	I think Tim wants to move quickly.	I think Tim wants to move quickly.	3169045	1472000143747	1472000144106	SHIFT	16
6204	66602	I think Tim wants to move quickly.	I think Tim wants to move quickly.	3169046	1472000144328	1472000144418	w	87
6204	66602	I think Tim wants to move quickly.	I think Tim wants to move quickly.	3169047	1472000144766	1472000144820	n	78
6204	66602	I think Tim wants to move quickly.	I think Tim wants to move quickly.	3169121	1472000145195	1472000145283	BKSP	8
6204	66602	I think Tim wants to move quickly.	I think Tim wants to move quickly.	3169124	1472000145379	1472000145454	a	65
6204	66602	I think Tim wants to move quickly.	I think Tim wants to move quickly.	3169128	1472000145535	1472000145592	n	78
6204	66602	I think Tim wants to move quickly.	I think Tim wants to move quickly.	3169131	1472000146238	1472000146305	t	84
6204	66602	I think Tim wants to move quickly.	I think Tim wants to move quickly.	3169134	1472000146364	1472000146451	s	83
6204	66602	I think Tim wants to move quickly.	I think Tim wants to move quickly.	3169138	1472000146517	1472000146570	 	32
6204	66602	I think Tim wants to move quickly.	I think Tim wants to move quickly.	3169202	1472000147427	1472000147497	t	84
6204	66602	I think Tim wants to move quickly.	I think Tim wants to move quickly.	3169207	1472000147538	1472000147599	o	79
6204	66602	I think Tim wants to move quickly.	I think Tim wants to move quickly.	3169209	1472000147670	1472000147753	 	32
6204	66602	I think Tim wants to move quickly.	I think Tim wants to move quickly.	3169213	1472000147957	1472000148023	m	77
6204	66602	I think Tim wants to move quickly.	I think Tim wants to move quickly.	3169216	1472000148154	1472000148223	o	79
6204	66602	I think Tim wants to move quickly.	I think Tim wants to move quickly.	3169283	1472000148662	1472000148716	v	86
6204	66602	I think Tim wants to move quickly.	I think Tim wants to move quickly.	3169285	1472000148789	1472000148854	e	69
6204	66602	I think Tim wants to move quickly.	I think Tim wants to move quickly.	3169287	1472000148913	1472000148968	 	32
6204	66602	I think Tim wants to move quickly.	I think Tim wants to move quickly.	3169290	1472000149408	1472000149474	q	81
6204	66602	I think Tim wants to move quickly.	I think Tim wants to move quickly.	3169294	1472000149639	1472000149692	u	85
6204	66602	I think Tim wants to move quickly.	I think Tim wants to move quickly.	3169475	1472000149806	1472000149871	i	73
6204	66602	I think Tim wants to move quickly.	I think Tim wants to move quickly.	3169478	1472000151900	1472000151976	c	67
6204	66602	I think Tim wants to move quickly.	I think Tim wants to move quickly.	3169483	1472000152143	1472000152205	k	75
6204	66602	I think Tim wants to move quickly.	I think Tim wants to move quickly.	3169488	1472000152985	1472000153048	l	76
6204	66602	I think Tim wants to move quickly.	I think Tim wants to move quickly.	3169492	1472000153134	1472000153205	t	84
6204	66602	I think Tim wants to move quickly.	I think Tim wants to move quickly.	3169825	1472000154408	1472000154524	BKSP	8
6204	66602	I think Tim wants to move quickly.	I think Tim wants to move quickly.	3169827	1472000154596	1472000154675	BKSP	8
6204	66602	I think Tim wants to move quickly.	I think Tim wants to move quickly.	3169830	1472000156463	1472000156528	l	76
6204	66602	I think Tim wants to move quickly.	I think Tim wants to move quickly.	3169833	1472000156958	1472000157031	y	89
6204	66602	I think Tim wants to move quickly.	I think Tim wants to move quickly.	3169835	1472000158518	1472000158585	.	190
6204	66633	Maybe stuff we do more of next year.	Maybe stuff we do next of next year.	3170256	1472000166922	1472000167231	SHIFT	16
6204	66633	Maybe stuff we do more of next year.	Maybe stuff we do next of next year.	3170252	1472000167074	1472000167121	M	77
6204	66633	Maybe stuff we do more of next year.	Maybe stuff we do next of next year.	3170259	1472000167682	1472000167750	a	65
6204	66633	Maybe stuff we do more of next year.	Maybe stuff we do next of next year.	3170265	1472000168001	1472000168058	b	66
6204	66633	Maybe stuff we do more of next year.	Maybe stuff we do next of next year.	3170272	1472000168615	1472000168677	y	89
6204	66633	Maybe stuff we do more of next year.	Maybe stuff we do next of next year.	3170276	1472000168777	1472000168839	e	69
6204	66633	Maybe stuff we do more of next year.	Maybe stuff we do next of next year.	3170578	1472000168893	1472000168941	 	32
6204	66633	Maybe stuff we do more of next year.	Maybe stuff we do next of next year.	3170580	1472000169660	1472000169671	s	83
6204	66633	Maybe stuff we do more of next year.	Maybe stuff we do next of next year.	3170581	1472000171951	1472000172049	BKSP	8
6204	66633	Maybe stuff we do more of next year.	Maybe stuff we do next of next year.	3170582	1472000172140	1472000172227	BKSP	8
6204	66633	Maybe stuff we do more of next year.	Maybe stuff we do next of next year.	3170584	1472000172301	1472000172390	BKSP	8
6204	66633	Maybe stuff we do more of next year.	Maybe stuff we do next of next year.	3170588	1472000172462	1472000172543	BKSP	8
6204	66633	Maybe stuff we do more of next year.	Maybe stuff we do next of next year.	3170591	1472000172642	1472000172733	BKSP	8
6204	66633	Maybe stuff we do more of next year.	Maybe stuff we do next of next year.	3170596	1472000174500	1472000174561	y	89
6204	66633	Maybe stuff we do more of next year.	Maybe stuff we do next of next year.	3170600	1472000174808	1472000174873	b	66
6204	66633	Maybe stuff we do more of next year.	Maybe stuff we do next of next year.	3170603	1472000174940	1472000175004	e	69
6204	66633	Maybe stuff we do more of next year.	Maybe stuff we do next of next year.	3170688	1472000175065	1472000175122	 	32
6204	66633	Maybe stuff we do more of next year.	Maybe stuff we do next of next year.	3170694	1472000176271	1472000176354	s	83
6204	66633	Maybe stuff we do more of next year.	Maybe stuff we do next of next year.	3170697	1472000176556	1472000176631	t	84
6204	66633	Maybe stuff we do more of next year.	Maybe stuff we do next of next year.	3170704	1472000176890	1472000176955	u	85
6204	66633	Maybe stuff we do more of next year.	Maybe stuff we do next of next year.	3170711	1472000177324	1472000177400	f	70
6204	66633	Maybe stuff we do more of next year.	Maybe stuff we do next of next year.	3170751	1472000177492	1472000177568	f	70
6204	66633	Maybe stuff we do more of next year.	Maybe stuff we do next of next year.	3170753	1472000177670	1472000177736	 	32
6204	66633	Maybe stuff we do more of next year.	Maybe stuff we do next of next year.	3170754	1472000178343	1472000178430	w	87
6204	66633	Maybe stuff we do more of next year.	Maybe stuff we do next of next year.	3170756	1472000178484	1472000178562	e	69
6204	66633	Maybe stuff we do more of next year.	Maybe stuff we do next of next year.	3170757	1472000178643	1472000178706	 	32
6204	66633	Maybe stuff we do more of next year.	Maybe stuff we do next of next year.	3170812	1472000178968	1472000179038	d	68
6204	66633	Maybe stuff we do more of next year.	Maybe stuff we do next of next year.	3170814	1472000179095	1472000179163	o	79
6204	66633	Maybe stuff we do more of next year.	Maybe stuff we do next of next year.	3170817	1472000179304	1472000179383	 	32
6204	66633	Maybe stuff we do more of next year.	Maybe stuff we do next of next year.	3170822	1472000179705	1472000179763	n	78
6204	66633	Maybe stuff we do more of next year.	Maybe stuff we do next of next year.	3170827	1472000179847	1472000179909	e	69
6204	66633	Maybe stuff we do more of next year.	Maybe stuff we do next of next year.	3170918	1472000180344	1472000180408	x	88
6204	66633	Maybe stuff we do more of next year.	Maybe stuff we do next of next year.	3170922	1472000180527	1472000180578	t	84
6204	66633	Maybe stuff we do more of next year.	Maybe stuff we do next of next year.	3170927	1472000180736	1472000180810	 	32
6204	66633	Maybe stuff we do more of next year.	Maybe stuff we do next of next year.	3170935	1472000182201	1472000182264	o	79
6204	66633	Maybe stuff we do more of next year.	Maybe stuff we do next of next year.	3170943	1472000182332	1472000182407	f	70
6204	66633	Maybe stuff we do more of next year.	Maybe stuff we do next of next year.	3171071	1472000182469	1472000182527	 	32
6204	66633	Maybe stuff we do more of next year.	Maybe stuff we do next of next year.	3171075	1472000184472	1472000184534	n	78
6204	66633	Maybe stuff we do more of next year.	Maybe stuff we do next of next year.	3171081	1472000184602	1472000184659	e	69
6204	66633	Maybe stuff we do more of next year.	Maybe stuff we do next of next year.	3171086	1472000185185	1472000185254	x	88
6204	66633	Maybe stuff we do more of next year.	Maybe stuff we do next of next year.	3171091	1472000185310	1472000185392	t	84
6204	66633	Maybe stuff we do more of next year.	Maybe stuff we do next of next year.	3171150	1472000185513	1472000185603	 	32
6204	66633	Maybe stuff we do more of next year.	Maybe stuff we do next of next year.	3171153	1472000186228	1472000186294	y	89
6204	66633	Maybe stuff we do more of next year.	Maybe stuff we do next of next year.	3171157	1472000186382	1472000186461	e	69
6204	66633	Maybe stuff we do more of next year.	Maybe stuff we do next of next year.	3171159	1472000186566	1472000186689	a	65
6204	66633	Maybe stuff we do more of next year.	Maybe stuff we do next of next year.	3171163	1472000186761	1472000186837	r	82
6204	66633	Maybe stuff we do more of next year.	Maybe stuff we do next of next year.	3171180	1472000187155	1472000187207	.	190
6204	66666	No employment claims for gas or power.	No employment claims for gas of power.	3172309	1472000206190	1472000206966	SHIFT	16
6204	66666	No employment claims for gas or power.	No employment claims for gas of power.	3172318	1472000207445	1472000208055	SHIFT	16
6204	66666	No employment claims for gas or power.	No employment claims for gas of power.	3172313	1472000207708	1472000207775	N	78
6204	66666	No employment claims for gas or power.	No employment claims for gas of power.	3172323	1472000208293	1472000208361	o	79
6204	66666	No employment claims for gas or power.	No employment claims for gas of power.	3172330	1472000208525	1472000208582	 	32
6204	66666	No employment claims for gas or power.	No employment claims for gas of power.	3172336	1472000208841	1472000208912	e	69
6204	66666	No employment claims for gas or power.	No employment claims for gas of power.	3172340	1472000208997	1472000209055	m	77
6204	66666	No employment claims for gas or power.	No employment claims for gas of power.	3172553	1472000210155	1472000210214	p	80
6204	66666	No employment claims for gas or power.	No employment claims for gas of power.	3172554	1472000210317	1472000210389	l	76
6204	66666	No employment claims for gas or power.	No employment claims for gas of power.	3172555	1472000210490	1472000210558	o	79
6204	66666	No employment claims for gas or power.	No employment claims for gas of power.	3172556	1472000211586	1472000211644	y	89
6204	66666	No employment claims for gas or power.	No employment claims for gas of power.	3172558	1472000212376	1472000212453	m	77
6204	66666	No employment claims for gas or power.	No employment claims for gas of power.	3172613	1472000212774	1472000212847	e	69
6204	66666	No employment claims for gas or power.	No employment claims for gas of power.	3172616	1472000212943	1472000213001	n	78
6204	66666	No employment claims for gas or power.	No employment claims for gas of power.	3172619	1472000213356	1472000213430	t	84
6204	66666	No employment claims for gas or power.	No employment claims for gas of power.	3172623	1472000213597	1472000213679	 	32
6204	66666	No employment claims for gas or power.	No employment claims for gas of power.	3172627	1472000214244	1472000214315	c	67
6204	66666	No employment claims for gas or power.	No employment claims for gas of power.	3172710	1472000214387	1472000214449	l	76
6204	66666	No employment claims for gas or power.	No employment claims for gas of power.	3172713	1472000215108	1472000215171	a	65
6204	66666	No employment claims for gas or power.	No employment claims for gas of power.	3172716	1472000215533	1472000215587	i	73
6204	66666	No employment claims for gas or power.	No employment claims for gas of power.	3172720	1472000215722	1472000215795	m	77
6204	66666	No employment claims for gas or power.	No employment claims for gas of power.	3172722	1472000215887	1472000215950	s	83
6204	66666	No employment claims for gas or power.	No employment claims for gas of power.	3172784	1472000216034	1472000216095	 	32
6204	66666	No employment claims for gas or power.	No employment claims for gas of power.	3172785	1472000216833	1472000216920	f	70
6204	66666	No employment claims for gas or power.	No employment claims for gas of power.	3172786	1472000216939	1472000217015	o	79
6204	66666	No employment claims for gas or power.	No employment claims for gas of power.	3172789	1472000217083	1472000217153	r	82
6204	66666	No employment claims for gas or power.	No employment claims for gas of power.	3172792	1472000217208	1472000217272	 	32
6204	66666	No employment claims for gas or power.	No employment claims for gas of power.	3172891	1472000217983	1472000218040	g	71
6204	66666	No employment claims for gas or power.	No employment claims for gas of power.	3172893	1472000218092	1472000218262	a	65
6204	66666	No employment claims for gas or power.	No employment claims for gas of power.	3172897	1472000218228	1472000218340	s	83
6204	66666	No employment claims for gas or power.	No employment claims for gas of power.	3172899	1472000218409	1472000218438	 	32
6204	66666	No employment claims for gas or power.	No employment claims for gas of power.	3172901	1472000219052	1472000219111	o	79
6204	66666	No employment claims for gas or power.	No employment claims for gas of power.	3172962	1472000219239	1472000219305	f	70
6204	66666	No employment claims for gas or power.	No employment claims for gas of power.	3172964	1472000219353	1472000219410	 	32
6204	66666	No employment claims for gas or power.	No employment claims for gas of power.	3172967	1472000219868	1472000219934	p	80
6204	66666	No employment claims for gas or power.	No employment claims for gas of power.	3172971	1472000220039	1472000220103	o	79
6204	66666	No employment claims for gas or power.	No employment claims for gas of power.	3172974	1472000220536	1472000220598	w	87
6204	66666	No employment claims for gas or power.	No employment claims for gas of power.	3173042	1472000220839	1472000220905	e	69
6204	66666	No employment claims for gas or power.	No employment claims for gas of power.	3173044	1472000221012	1472000221080	r	82
6204	66666	No employment claims for gas or power.	No employment claims for gas of power.	3173046	1472000221535	1472000221590	.	190
6204	66703	Is this the only time available?	Is this the only time available?	3173177	1472000225075	1472000225726	SHIFT	16
6204	66703	Is this the only time available?	Is this the only time available?	3173176	1472000225624	1472000225679	I	73
6204	66703	Is this the only time available?	Is this the only time available?	3173178	1472000225878	1472000225952	s	83
6204	66703	Is this the only time available?	Is this the only time available?	3173179	1472000226009	1472000226070	 	32
6204	66703	Is this the only time available?	Is this the only time available?	3173181	1472000226443	1472000226505	t	84
6204	66703	Is this the only time available?	Is this the only time available?	3173185	1472000226601	1472000226660	h	72
6204	66703	Is this the only time available?	Is this the only time available?	3173282	1472000226780	1472000226842	i	73
6204	66703	Is this the only time available?	Is this the only time available?	3173286	1472000227157	1472000227213	 	32
6204	66703	Is this the only time available?	Is this the only time available?	3173289	1472000227775	1472000227856	BKSP	8
6204	66703	Is this the only time available?	Is this the only time available?	3173295	1472000227979	1472000228049	BKSP	8
6204	66703	Is this the only time available?	Is this the only time available?	3173299	1472000228885	1472000228946	i	73
6204	66703	Is this the only time available?	Is this the only time available?	3173304	1472000228993	1472000229062	s	83
6204	66703	Is this the only time available?	Is this the only time available?	3173307	1472000229119	1472000229179	 	32
6204	66703	Is this the only time available?	Is this the only time available?	3173366	1472000229872	1472000229933	t	84
6204	66703	Is this the only time available?	Is this the only time available?	3173367	1472000230012	1472000230066	h	72
6204	66703	Is this the only time available?	Is this the only time available?	3173368	1472000230238	1472000230312	e	69
6204	66703	Is this the only time available?	Is this the only time available?	3173369	1472000230411	1472000230490	 	32
6204	66703	Is this the only time available?	Is this the only time available?	3173370	1472000231004	1472000231073	o	79
6204	66703	Is this the only time available?	Is this the only time available?	3173452	1472000231389	1472000231446	n	78
6204	66703	Is this the only time available?	Is this the only time available?	3173454	1472000231918	1472000231988	l	76
6204	66703	Is this the only time available?	Is this the only time available?	3173456	1472000232062	1472000232129	y	89
6204	66703	Is this the only time available?	Is this the only time available?	3173458	1472000232213	1472000232303	 	32
6204	66703	Is this the only time available?	Is this the only time available?	3173464	1472000233013	1472000233085	t	84
6204	66703	Is this the only time available?	Is this the only time available?	3173514	1472000233164	1472000233225	i	73
6204	66703	Is this the only time available?	Is this the only time available?	3173516	1472000233407	1472000233486	m	77
6204	66703	Is this the only time available?	Is this the only time available?	3173518	1472000233560	1472000233617	e	69
6204	66703	Is this the only time available?	Is this the only time available?	3173520	1472000233689	1472000233749	 	32
6204	66703	Is this the only time available?	Is this the only time available?	3173522	1472000234500	1472000234594	a	65
6204	66703	Is this the only time available?	Is this the only time available?	3173675	1472000234847	1472000234947	v	86
6204	66703	Is this the only time available?	Is this the only time available?	3173676	1472000236100	1472000236189	a	65
6204	66703	Is this the only time available?	Is this the only time available?	3173677	1472000236395	1472000236464	i	73
6204	66703	Is this the only time available?	Is this the only time available?	3173682	1472000236801	1472000236869	l	76
6204	66703	Is this the only time available?	Is this the only time available?	3173685	1472000238424	1472000238524	a	65
6204	66703	Is this the only time available?	Is this the only time available?	3173850	1472000238952	1472000239014	b	66
6204	66703	Is this the only time available?	Is this the only time available?	3173854	1472000239238	1472000239318	l	76
6204	66703	Is this the only time available?	Is this the only time available?	3173858	1472000239485	1472000239585	e	69
6204	66703	Is this the only time available?	Is this the only time available?	3173865	1472000240034	1472000242788	SHIFT	16
6204	66703	Is this the only time available?	Is this the only time available?	3173861	1472000242503	1472000242576	?	191
6204	66723	I am too, and we are working very hard to turn it around.	I am to, and we are working very hard to turn it around.	3174259	1472000245186	1472000245297	ARw_DOWN	40
6204	66723	I am too, and we are working very hard to turn it around.	I am to, and we are working very hard to turn it around.	3174261	1472000245444	1472000245530	ARW_UP	38
6204	66723	I am too, and we are working very hard to turn it around.	I am to, and we are working very hard to turn it around.	3174266	1472000245727	1472000245772	ARW_LEFT	37
6204	66723	I am too, and we are working very hard to turn it around.	I am to, and we are working very hard to turn it around.	3174271	1472000246392	1472000246513	ARW_RIGHT	39
6204	66723	I am too, and we are working very hard to turn it around.	I am to, and we are working very hard to turn it around.	3174279	1472000249334	1472000250689	SHIFT	16
6204	66723	I am too, and we are working very hard to turn it around.	I am to, and we are working very hard to turn it around.	3174275	1472000250539	1472000250599	I	73
6204	66723	I am too, and we are working very hard to turn it around.	I am to, and we are working very hard to turn it around.	3174283	1472000250802	1472000250911	 	32
6204	66723	I am too, and we are working very hard to turn it around.	I am to, and we are working very hard to turn it around.	3174285	1472000251315	1472000251409	a	65
6204	66723	I am too, and we are working very hard to turn it around.	I am to, and we are working very hard to turn it around.	3174287	1472000251466	1472000251527	m	77
6204	66723	I am too, and we are working very hard to turn it around.	I am to, and we are working very hard to turn it around.	3174289	1472000251666	1472000251736	 	32
6204	66723	I am too, and we are working very hard to turn it around.	I am to, and we are working very hard to turn it around.	3174388	1472000251834	1472000251913	t	84
6204	66723	I am too, and we are working very hard to turn it around.	I am to, and we are working very hard to turn it around.	3174389	1472000251961	1472000252021	o	79
6204	66723	I am too, and we are working very hard to turn it around.	I am to, and we are working very hard to turn it around.	3174390	1472000252130	1472000252208	 	32
6204	66723	I am too, and we are working very hard to turn it around.	I am to, and we are working very hard to turn it around.	3174391	1472000253971	1472000254044	BKSP	8
6204	66723	I am too, and we are working very hard to turn it around.	I am to, and we are working very hard to turn it around.	3174392	1472000254390	1472000254455	,	188
6204	66723	I am too, and we are working very hard to turn it around.	I am to, and we are working very hard to turn it around.	3174394	1472000254541	1472000254613	 	32
6204	66723	I am too, and we are working very hard to turn it around.	I am to, and we are working very hard to turn it around.	3174429	1472000254893	1472000254988	a	65
6204	66723	I am too, and we are working very hard to turn it around.	I am to, and we are working very hard to turn it around.	3174430	1472000255040	1472000255098	n	78
6204	66723	I am too, and we are working very hard to turn it around.	I am to, and we are working very hard to turn it around.	3174431	1472000255154	1472000255221	d	68
6204	66723	I am too, and we are working very hard to turn it around.	I am to, and we are working very hard to turn it around.	3174432	1472000255288	1472000255352	 	32
6204	66723	I am too, and we are working very hard to turn it around.	I am to, and we are working very hard to turn it around.	3174433	1472000256172	1472000256241	w	87
6204	66723	I am too, and we are working very hard to turn it around.	I am to, and we are working very hard to turn it around.	3174484	1472000256493	1472000256562	e	69
6204	66723	I am too, and we are working very hard to turn it around.	I am to, and we are working very hard to turn it around.	3174489	1472000256666	1472000256726	 	32
6204	66723	I am too, and we are working very hard to turn it around.	I am to, and we are working very hard to turn it around.	3174493	1472000256871	1472000256991	a	65
6204	66723	I am too, and we are working very hard to turn it around.	I am to, and we are working very hard to turn it around.	3174496	1472000257189	1472000257265	r	82
6204	66723	I am too, and we are working very hard to turn it around.	I am to, and we are working very hard to turn it around.	3174497	1472000257330	1472000257403	e	69
6204	66723	I am too, and we are working very hard to turn it around.	I am to, and we are working very hard to turn it around.	3174523	1472000257444	1472000257500	 	32
6204	66723	I am too, and we are working very hard to turn it around.	I am to, and we are working very hard to turn it around.	3174525	1472000257905	1472000257970	w	87
6204	66723	I am too, and we are working very hard to turn it around.	I am to, and we are working very hard to turn it around.	3174526	1472000258049	1472000258110	o	79
6204	66723	I am too, and we are working very hard to turn it around.	I am to, and we are working very hard to turn it around.	3174527	1472000258475	1472000258556	r	82
6204	66723	I am too, and we are working very hard to turn it around.	I am to, and we are working very hard to turn it around.	3174528	1472000258669	1472000258737	k	75
6204	66723	I am too, and we are working very hard to turn it around.	I am to, and we are working very hard to turn it around.	3174627	1472000258844	1472000258909	i	73
6204	66723	I am too, and we are working very hard to turn it around.	I am to, and we are working very hard to turn it around.	3174629	1472000259054	1472000259115	n	78
6204	66723	I am too, and we are working very hard to turn it around.	I am to, and we are working very hard to turn it around.	3174632	1472000259227	1472000259285	g	71
6204	66723	I am too, and we are working very hard to turn it around.	I am to, and we are working very hard to turn it around.	3174638	1472000260161	1472000260228	 	32
6204	66723	I am too, and we are working very hard to turn it around.	I am to, and we are working very hard to turn it around.	3174641	1472000260815	1472000260881	v	86
6204	66723	I am too, and we are working very hard to turn it around.	I am to, and we are working very hard to turn it around.	3174700	1472000260949	1472000261021	e	69
6204	66723	I am too, and we are working very hard to turn it around.	I am to, and we are working very hard to turn it around.	3174702	1472000261508	1472000261580	r	82
6204	66723	I am too, and we are working very hard to turn it around.	I am to, and we are working very hard to turn it around.	3174707	1472000261640	1472000261704	y	89
6204	66723	I am too, and we are working very hard to turn it around.	I am to, and we are working very hard to turn it around.	3174712	1472000261853	1472000261932	 	32
6204	66723	I am too, and we are working very hard to turn it around.	I am to, and we are working very hard to turn it around.	3174716	1472000262303	1472000262366	h	72
6204	66723	I am too, and we are working very hard to turn it around.	I am to, and we are working very hard to turn it around.	3174784	1472000262411	1472000262504	a	65
6204	66723	I am too, and we are working very hard to turn it around.	I am to, and we are working very hard to turn it around.	3174788	1472000262690	1472000262771	r	82
6204	66723	I am too, and we are working very hard to turn it around.	I am to, and we are working very hard to turn it around.	3174792	1472000262930	1472000263016	d	68
6204	66723	I am too, and we are working very hard to turn it around.	I am to, and we are working very hard to turn it around.	3174797	1472000263090	1472000263159	 	32
6204	66723	I am too, and we are working very hard to turn it around.	I am to, and we are working very hard to turn it around.	3174802	1472000263743	1472000263832	t	84
6204	66723	I am too, and we are working very hard to turn it around.	I am to, and we are working very hard to turn it around.	3174884	1472000263867	1472000263937	o	79
6204	66723	I am too, and we are working very hard to turn it around.	I am to, and we are working very hard to turn it around.	3174889	1472000264092	1472000264162	 	32
6204	66723	I am too, and we are working very hard to turn it around.	I am to, and we are working very hard to turn it around.	3174897	1472000264742	1472000264809	t	84
6204	66723	I am too, and we are working very hard to turn it around.	I am to, and we are working very hard to turn it around.	3174903	1472000264908	1472000264961	u	85
6204	66723	I am too, and we are working very hard to turn it around.	I am to, and we are working very hard to turn it around.	3174908	1472000265126	1472000265188	r	82
6204	66723	I am too, and we are working very hard to turn it around.	I am to, and we are working very hard to turn it around.	3174994	1472000265884	1472000265947	n	78
6204	66723	I am too, and we are working very hard to turn it around.	I am to, and we are working very hard to turn it around.	3175000	1472000266102	1472000266176	 	32
6204	66723	I am too, and we are working very hard to turn it around.	I am to, and we are working very hard to turn it around.	3175007	1472000266661	1472000266721	i	73
6204	66723	I am too, and we are working very hard to turn it around.	I am to, and we are working very hard to turn it around.	3175013	1472000266779	1472000266857	t	84
6204	66723	I am too, and we are working very hard to turn it around.	I am to, and we are working very hard to turn it around.	3175019	1472000266945	1472000267006	 	32
6204	66723	I am too, and we are working very hard to turn it around.	I am to, and we are working very hard to turn it around.	3175074	1472000267415	1472000267509	a	65
6204	66723	I am too, and we are working very hard to turn it around.	I am to, and we are working very hard to turn it around.	3175075	1472000267664	1472000267735	r	82
6204	66723	I am too, and we are working very hard to turn it around.	I am to, and we are working very hard to turn it around.	3175076	1472000267944	1472000268012	o	79
6204	66723	I am too, and we are working very hard to turn it around.	I am to, and we are working very hard to turn it around.	3175079	1472000268167	1472000268234	u	85
6204	66723	I am too, and we are working very hard to turn it around.	I am to, and we are working very hard to turn it around.	3175083	1472000268506	1472000268572	n	78
6204	66723	I am too, and we are working very hard to turn it around.	I am to, and we are working very hard to turn it around.	3175155	1472000268689	1472000268753	d	68
6204	66723	I am too, and we are working very hard to turn it around.	I am to, and we are working very hard to turn it around.	3175158	1472000269846	1472000269900	.	190
6204	66752	We just need a sitter.	We just need a sitter.	3175476	1472000274005	1472000274646	SHIFT	16
6204	66752	We just need a sitter.	We just need a sitter.	3175478	1472000274556	1472000274655	W	87
6204	66752	We just need a sitter.	We just need a sitter.	3175482	1472000274799	1472000274828	r	82
6204	66752	We just need a sitter.	We just need a sitter.	3175486	1472000274938	1472000274993	 	32
6204	66752	We just need a sitter.	We just need a sitter.	3175491	1472000275589	1472000275662	BKSP	8
6204	66752	We just need a sitter.	We just need a sitter.	3175496	1472000275862	1472000275942	BKSP	8
6204	66752	We just need a sitter.	We just need a sitter.	3175500	1472000276218	1472000276283	e	69
6204	66752	We just need a sitter.	We just need a sitter.	3175503	1472000276402	1472000276454	 	32
6204	66752	We just need a sitter.	We just need a sitter.	3175548	1472000276827	1472000276881	j	74
6204	66752	We just need a sitter.	We just need a sitter.	3175553	1472000276972	1472000277034	u	85
6204	66752	We just need a sitter.	We just need a sitter.	3175560	1472000277219	1472000277292	s	83
6204	66752	We just need a sitter.	We just need a sitter.	3175565	1472000277368	1472000277435	t	84
6204	66752	We just need a sitter.	We just need a sitter.	3175569	1472000277521	1472000277605	 	32
6204	66752	We just need a sitter.	We just need a sitter.	3175624	1472000277860	1472000277925	n	78
6204	66752	We just need a sitter.	We just need a sitter.	3175625	1472000278030	1472000278094	e	69
6204	66752	We just need a sitter.	We just need a sitter.	3175627	1472000278235	1472000278317	e	69
6204	66752	We just need a sitter.	We just need a sitter.	3175628	1472000278448	1472000278528	d	68
6204	66752	We just need a sitter.	We just need a sitter.	3175629	1472000278605	1472000278659	 	32
6204	66752	We just need a sitter.	We just need a sitter.	3175711	1472000278859	1472000278936	a	65
6204	66752	We just need a sitter.	We just need a sitter.	3175715	1472000279064	1472000279127	 	32
6204	66752	We just need a sitter.	We just need a sitter.	3175718	1472000279331	1472000279396	s	83
6204	66752	We just need a sitter.	We just need a sitter.	3175724	1472000279548	1472000279598	i	73
6204	66752	We just need a sitter.	We just need a sitter.	3175726	1472000280030	1472000280097	t	84
6204	66752	We just need a sitter.	We just need a sitter.	3175747	1472000280179	1472000280257	t	84
6204	66752	We just need a sitter.	We just need a sitter.	3175751	1472000280349	1472000280485	e	69
6204	66752	We just need a sitter.	We just need a sitter.	3175756	1472000280461	1472000280554	r	82
6204	66752	We just need a sitter.	We just need a sitter.	3175761	1472000280653	1472000280709	.	190
6204	66766	Will let you know how call goes in morning.	Will let you know how call goes in morning.	3176246	1472000287308	1472000288166	SHIFT	16
6204	66766	Will let you know how call goes in morning.	Will let you know how call goes in morning.	3176245	1472000288047	1472000288129	W	87
6204	66766	Will let you know how call goes in morning.	Will let you know how call goes in morning.	3176247	1472000288269	1472000288330	i	73
6204	66766	Will let you know how call goes in morning.	Will let you know how call goes in morning.	3176250	1472000288767	1472000288819	l	76
6204	66766	Will let you know how call goes in morning.	Will let you know how call goes in morning.	3176255	1472000288907	1472000288984	l	76
6204	66766	Will let you know how call goes in morning.	Will let you know how call goes in morning.	3176258	1472000289026	1472000289108	 	32
6204	66766	Will let you know how call goes in morning.	Will let you know how call goes in morning.	3176300	1472000289347	1472000289405	l	76
6204	66766	Will let you know how call goes in morning.	Will let you know how call goes in morning.	3176302	1472000289445	1472000289554	e	69
6204	66766	Will let you know how call goes in morning.	Will let you know how call goes in morning.	3176305	1472000289588	1472000289669	t	84
6204	66766	Will let you know how call goes in morning.	Will let you know how call goes in morning.	3176310	1472000289771	1472000289831	 	32
6204	66766	Will let you know how call goes in morning.	Will let you know how call goes in morning.	3176314	1472000290300	1472000290383	y	89
6204	66766	Will let you know how call goes in morning.	Will let you know how call goes in morning.	3176380	1472000290419	1472000290490	o	79
6204	66766	Will let you know how call goes in morning.	Will let you know how call goes in morning.	3176381	1472000290530	1472000290600	u	85
6204	66766	Will let you know how call goes in morning.	Will let you know how call goes in morning.	3176382	1472000290714	1472000290795	 	32
6204	66766	Will let you know how call goes in morning.	Will let you know how call goes in morning.	3176383	1472000291287	1472000291344	k	75
6204	66766	Will let you know how call goes in morning.	Will let you know how call goes in morning.	3176385	1472000291487	1472000291549	n	78
6204	66766	Will let you know how call goes in morning.	Will let you know how call goes in morning.	3176486	1472000291972	1472000292033	o	79
6204	66766	Will let you know how call goes in morning.	Will let you know how call goes in morning.	3176487	1472000292075	1472000292117	w	87
6204	66766	Will let you know how call goes in morning.	Will let you know how call goes in morning.	3176488	1472000292215	1472000292274	 	32
6204	66766	Will let you know how call goes in morning.	Will let you know how call goes in morning.	3176489	1472000293173	1472000293228	h	72
6204	66766	Will let you know how call goes in morning.	Will let you know how call goes in morning.	3176490	1472000293962	1472000294026	o	79
6204	66766	Will let you know how call goes in morning.	Will let you know how call goes in morning.	3176555	1472000294098	1472000294166	w	87
6204	66766	Will let you know how call goes in morning.	Will let you know how call goes in morning.	3176558	1472000294263	1472000294333	 	32
6204	66766	Will let you know how call goes in morning.	Will let you know how call goes in morning.	3176559	1472000294922	1472000295005	c	67
6204	66766	Will let you know how call goes in morning.	Will let you know how call goes in morning.	3176561	1472000295094	1472000295184	a	65
6204	66766	Will let you know how call goes in morning.	Will let you know how call goes in morning.	3176563	1472000295323	1472000295388	l	76
6204	66766	Will let you know how call goes in morning.	Will let you know how call goes in morning.	3176628	1472000295489	1472000295562	l	76
6204	66766	Will let you know how call goes in morning.	Will let you know how call goes in morning.	3176633	1472000295625	1472000295706	 	32
6204	66766	Will let you know how call goes in morning.	Will let you know how call goes in morning.	3176637	1472000296262	1472000296342	g	71
6204	66766	Will let you know how call goes in morning.	Will let you know how call goes in morning.	3176641	1472000296374	1472000296444	o	79
6204	66766	Will let you know how call goes in morning.	Will let you know how call goes in morning.	3176644	1472000296996	1472000297063	e	69
6204	66766	Will let you know how call goes in morning.	Will let you know how call goes in morning.	3176691	1472000297175	1472000297254	s	83
6204	66766	Will let you know how call goes in morning.	Will let you know how call goes in morning.	3176695	1472000297354	1472000297431	 	32
6204	66766	Will let you know how call goes in morning.	Will let you know how call goes in morning.	3176703	1472000298110	1472000298181	i	73
6204	66766	Will let you know how call goes in morning.	Will let you know how call goes in morning.	3176710	1472000298321	1472000298389	n	78
6204	66766	Will let you know how call goes in morning.	Will let you know how call goes in morning.	3176715	1472000298501	1472000298567	 	32
6204	66766	Will let you know how call goes in morning.	Will let you know how call goes in morning.	3176759	1472000298756	1472000298816	m	77
6204	66766	Will let you know how call goes in morning.	Will let you know how call goes in morning.	3176761	1472000298928	1472000299004	o	79
6204	66766	Will let you know how call goes in morning.	Will let you know how call goes in morning.	3176764	1472000299177	1472000299240	r	82
6204	66766	Will let you know how call goes in morning.	Will let you know how call goes in morning.	3176767	1472000299626	1472000299689	n	78
6204	66766	Will let you know how call goes in morning.	Will let you know how call goes in morning.	3176769	1472000299821	1472000299899	i	73
6204	66766	Will let you know how call goes in morning.	Will let you know how call goes in morning.	3176819	1472000300053	1472000300124	n	78
6204	66766	Will let you know how call goes in morning.	Will let you know how call goes in morning.	3176823	1472000300230	1472000300297	g	71
6204	66766	Will let you know how call goes in morning.	Will let you know how call goes in morning.	3176833	1472000300906	1472000300965	.	190
6204	66794	Jane, what about this Thursday for lunch?	Jane, what about this Thrusday for lunch?	3177260	1472000305019	1472000306490	SHIFT	16
6204	66794	Jane, what about this Thursday for lunch?	Jane, what about this Thrusday for lunch?	3177258	1472000306237	1472000306297	J	74
6204	66794	Jane, what about this Thursday for lunch?	Jane, what about this Thrusday for lunch?	3177264	1472000306826	1472000306919	a	65
6204	66794	Jane, what about this Thursday for lunch?	Jane, what about this Thrusday for lunch?	3177270	1472000307025	1472000307085	n	78
6204	66794	Jane, what about this Thursday for lunch?	Jane, what about this Thrusday for lunch?	3177280	1472000307160	1472000307236	e	69
6204	66794	Jane, what about this Thursday for lunch?	Jane, what about this Thrusday for lunch?	3177289	1472000308103	1472000308150	,	188
6204	66794	Jane, what about this Thursday for lunch?	Jane, what about this Thrusday for lunch?	3177402	1472000308724	1472000308782	 	32
6204	66794	Jane, what about this Thursday for lunch?	Jane, what about this Thrusday for lunch?	3177404	1472000309210	1472000309279	w	87
6204	66794	Jane, what about this Thursday for lunch?	Jane, what about this Thrusday for lunch?	3177406	1472000309742	1472000309802	h	72
6204	66794	Jane, what about this Thursday for lunch?	Jane, what about this Thrusday for lunch?	3177410	1472000309931	1472000310007	a	65
6204	66794	Jane, what about this Thursday for lunch?	Jane, what about this Thrusday for lunch?	3177414	1472000310069	1472000310137	t	84
6204	66794	Jane, what about this Thursday for lunch?	Jane, what about this Thrusday for lunch?	3177480	1472000310266	1472000310346	 	32
6204	66794	Jane, what about this Thursday for lunch?	Jane, what about this Thrusday for lunch?	3177483	1472000310904	1472000310968	t	84
6204	66794	Jane, what about this Thursday for lunch?	Jane, what about this Thrusday for lunch?	3177487	1472000311076	1472000311133	h	72
6204	66794	Jane, what about this Thursday for lunch?	Jane, what about this Thrusday for lunch?	3177492	1472000311261	1472000311335	i	73
6204	66794	Jane, what about this Thursday for lunch?	Jane, what about this Thrusday for lunch?	3177495	1472000311442	1472000311514	s	83
6204	66794	Jane, what about this Thursday for lunch?	Jane, what about this Thrusday for lunch?	3177783	1472000313404	1472000313505	 	32
6204	66794	Jane, what about this Thursday for lunch?	Jane, what about this Thrusday for lunch?	3177785	1472000314685	1472000314769	BKSP	8
6204	66794	Jane, what about this Thursday for lunch?	Jane, what about this Thrusday for lunch?	3177788	1472000314854	1472000314934	BKSP	8
6204	66794	Jane, what about this Thursday for lunch?	Jane, what about this Thrusday for lunch?	3177791	1472000315028	1472000315098	BKSP	8
6204	66794	Jane, what about this Thursday for lunch?	Jane, what about this Thrusday for lunch?	3177795	1472000315185	1472000315264	BKSP	8
6204	66794	Jane, what about this Thursday for lunch?	Jane, what about this Thrusday for lunch?	3177798	1472000315429	1472000315494	BKSP	8
6204	66794	Jane, what about this Thursday for lunch?	Jane, what about this Thrusday for lunch?	3177803	1472000316091	1472000316175	a	65
6204	66794	Jane, what about this Thursday for lunch?	Jane, what about this Thrusday for lunch?	3177807	1472000316641	1472000316715	b	66
6204	66794	Jane, what about this Thursday for lunch?	Jane, what about this Thrusday for lunch?	3177810	1472000316833	1472000316907	o	79
6204	66794	Jane, what about this Thursday for lunch?	Jane, what about this Thrusday for lunch?	3177816	1472000317065	1472000317138	u	85
6204	66794	Jane, what about this Thursday for lunch?	Jane, what about this Thrusday for lunch?	3177893	1472000317286	1472000317354	t	84
6204	66794	Jane, what about this Thursday for lunch?	Jane, what about this Thrusday for lunch?	3177896	1472000317462	1472000317550	 	32
6204	66794	Jane, what about this Thursday for lunch?	Jane, what about this Thrusday for lunch?	3177902	1472000318247	1472000318308	t	84
6204	66794	Jane, what about this Thursday for lunch?	Jane, what about this Thrusday for lunch?	3177906	1472000318405	1472000318465	h	72
6204	66794	Jane, what about this Thursday for lunch?	Jane, what about this Thrusday for lunch?	3177909	1472000318586	1472000318666	i	73
6204	66794	Jane, what about this Thursday for lunch?	Jane, what about this Thrusday for lunch?	3178022	1472000318731	1472000318805	s	83
6204	66794	Jane, what about this Thursday for lunch?	Jane, what about this Thrusday for lunch?	3178023	1472000318875	1472000318943	 	32
6204	66794	Jane, what about this Thursday for lunch?	Jane, what about this Thrusday for lunch?	3178029	1472000319611	1472000319995	SHIFT	16
6204	66794	Jane, what about this Thursday for lunch?	Jane, what about this Thrusday for lunch?	3178026	1472000319797	1472000319881	T	84
6204	66794	Jane, what about this Thursday for lunch?	Jane, what about this Thrusday for lunch?	3178031	1472000320281	1472000320346	h	72
6204	66794	Jane, what about this Thursday for lunch?	Jane, what about this Thrusday for lunch?	3178034	1472000320414	1472000320486	r	82
6204	66794	Jane, what about this Thursday for lunch?	Jane, what about this Thrusday for lunch?	3178210	1472000320583	1472000320637	u	85
6204	66794	Jane, what about this Thursday for lunch?	Jane, what about this Thrusday for lunch?	3178213	1472000322550	1472000322625	s	83
6204	66794	Jane, what about this Thursday for lunch?	Jane, what about this Thrusday for lunch?	3178217	1472000323286	1472000323375	d	68
6204	66794	Jane, what about this Thursday for lunch?	Jane, what about this Thrusday for lunch?	3178222	1472000323382	1472000323487	a	65
6204	66794	Jane, what about this Thursday for lunch?	Jane, what about this Thrusday for lunch?	3178227	1472000323568	1472000323619	y	89
6204	66794	Jane, what about this Thursday for lunch?	Jane, what about this Thrusday for lunch?	3178350	1472000324156	1472000324249	 	32
6204	66794	Jane, what about this Thursday for lunch?	Jane, what about this Thrusday for lunch?	3178353	1472000324658	1472000324744	f	70
6204	66794	Jane, what about this Thursday for lunch?	Jane, what about this Thrusday for lunch?	3178355	1472000324781	1472000324853	o	79
6204	66794	Jane, what about this Thursday for lunch?	Jane, what about this Thrusday for lunch?	3178357	1472000324930	1472000324989	r	82
6204	66794	Jane, what about this Thursday for lunch?	Jane, what about this Thrusday for lunch?	3178360	1472000325073	1472000325146	 	32
6204	66794	Jane, what about this Thursday for lunch?	Jane, what about this Thrusday for lunch?	3178470	1472000325822	1472000325898	l	76
6204	66794	Jane, what about this Thursday for lunch?	Jane, what about this Thrusday for lunch?	3178475	1472000326027	1472000326092	u	85
6204	66794	Jane, what about this Thursday for lunch?	Jane, what about this Thrusday for lunch?	3178482	1472000326349	1472000326411	n	78
6204	66794	Jane, what about this Thursday for lunch?	Jane, what about this Thrusday for lunch?	3178487	1472000326844	1472000326921	c	67
6204	66794	Jane, what about this Thursday for lunch?	Jane, what about this Thrusday for lunch?	3178490	1472000326998	1472000327073	h	72
6204	66794	Jane, what about this Thursday for lunch?	Jane, what about this Thrusday for lunch?	3178685	1472000328503	1472000329932	SHIFT	16
6204	66794	Jane, what about this Thursday for lunch?	Jane, what about this Thrusday for lunch?	3178681	1472000329630	1472000329712	?	191
6204	66833	I'm still in Dallas!	I'm still in Dallas!	3179065	1472000332945	1472000333832	SHIFT	16
6204	66833	I'm still in Dallas!	I'm still in Dallas!	3179061	1472000333596	1472000333653	I	73
6204	66833	I'm still in Dallas!	I'm still in Dallas!	3179071	1472000334906	1472000334968	'	222
6204	66833	I'm still in Dallas!	I'm still in Dallas!	3179082	1472000335602	1472000335665	m	77
6204	66833	I'm still in Dallas!	I'm still in Dallas!	3179093	1472000335758	1472000335841	 	32
6204	66833	I'm still in Dallas!	I'm still in Dallas!	3179099	1472000336192	1472000336260	s	83
6204	66833	I'm still in Dallas!	I'm still in Dallas!	3179160	1472000336433	1472000336491	t	84
6204	66833	I'm still in Dallas!	I'm still in Dallas!	3179164	1472000336846	1472000336910	i	73
6204	66833	I'm still in Dallas!	I'm still in Dallas!	3179168	1472000337153	1472000337211	l	76
6204	66833	I'm still in Dallas!	I'm still in Dallas!	3179172	1472000337306	1472000337393	l	76
6204	66833	I'm still in Dallas!	I'm still in Dallas!	3179177	1472000337484	1472000337582	 	32
6204	66833	I'm still in Dallas!	I'm still in Dallas!	3179278	1472000337795	1472000337860	i	73
6204	66833	I'm still in Dallas!	I'm still in Dallas!	3179280	1472000338017	1472000338093	n	78
6204	66833	I'm still in Dallas!	I'm still in Dallas!	3179284	1472000338220	1472000338295	 	32
6204	66833	I'm still in Dallas!	I'm still in Dallas!	3179291	1472000338557	1472000338966	SHIFT	16
6204	66833	I'm still in Dallas!	I'm still in Dallas!	3179288	1472000338721	1472000338835	D	68
6204	66833	I'm still in Dallas!	I'm still in Dallas!	3179298	1472000339234	1472000339319	a	65
6204	66833	I'm still in Dallas!	I'm still in Dallas!	3179375	1472000339583	1472000339639	l	76
6204	66833	I'm still in Dallas!	I'm still in Dallas!	3179379	1472000339711	1472000339790	l	76
6204	66833	I'm still in Dallas!	I'm still in Dallas!	3179383	1472000339841	1472000339990	a	65
6204	66833	I'm still in Dallas!	I'm still in Dallas!	3179385	1472000340004	1472000340080	s	83
6204	66833	I'm still in Dallas!	I'm still in Dallas!	3179405	1472000340517	1472000341159	SHIFT	16
6204	66833	I'm still in Dallas!	I'm still in Dallas!	3179387	1472000340861	1472000340993	!	49
6204	66854	The Jets will try to control the ball and the clock against the Rams.	The Jets will try to control the ball and the clock agienst the Rams	3180007	1472000347972	1472000348496	SHIFT	16
6204	66854	The Jets will try to control the ball and the clock against the Rams.	The Jets will try to control the ball and the clock agienst the Rams	3180004	1472000348285	1472000348388	T	84
6204	66854	The Jets will try to control the ball and the clock against the Rams.	The Jets will try to control the ball and the clock agienst the Rams	3180010	1472000348680	1472000348743	h	72
6204	66854	The Jets will try to control the ball and the clock against the Rams.	The Jets will try to control the ball and the clock agienst the Rams	3180014	1472000349085	1472000349149	e	69
6204	66854	The Jets will try to control the ball and the clock against the Rams.	The Jets will try to control the ball and the clock agienst the Rams	3180018	1472000349258	1472000349313	 	32
6204	66854	The Jets will try to control the ball and the clock against the Rams.	The Jets will try to control the ball and the clock agienst the Rams	3180023	1472000350982	1472000351052	j	74
6204	66854	The Jets will try to control the ball and the clock against the Rams.	The Jets will try to control the ball and the clock agienst the Rams	3180332	1472000351138	1472000351205	e	69
6204	66854	The Jets will try to control the ball and the clock against the Rams.	The Jets will try to control the ball and the clock agienst the Rams	3180334	1472000351266	1472000351321	t	84
6204	66854	The Jets will try to control the ball and the clock against the Rams.	The Jets will try to control the ball and the clock agienst the Rams	3180339	1472000351464	1472000351565	s	83
6204	66854	The Jets will try to control the ball and the clock against the Rams.	The Jets will try to control the ball and the clock agienst the Rams	3180345	1472000351679	1472000351749	 	32
6204	66854	The Jets will try to control the ball and the clock against the Rams.	The Jets will try to control the ball and the clock agienst the Rams	3180352	1472000352931	1472000353021	BKSP	8
6204	66854	The Jets will try to control the ball and the clock against the Rams.	The Jets will try to control the ball and the clock agienst the Rams	3180358	1472000353122	1472000353198	BKSP	8
6204	66854	The Jets will try to control the ball and the clock against the Rams.	The Jets will try to control the ball and the clock agienst the Rams	3180364	1472000353307	1472000353374	BKSP	8
6204	66854	The Jets will try to control the ball and the clock against the Rams.	The Jets will try to control the ball and the clock agienst the Rams	3180370	1472000353516	1472000353584	BKSP	8
6204	66854	The Jets will try to control the ball and the clock against the Rams.	The Jets will try to control the ball and the clock agienst the Rams	3180374	1472000354050	1472000354131	BKSP	8
6204	66854	The Jets will try to control the ball and the clock against the Rams.	The Jets will try to control the ball and the clock agienst the Rams	3180472	1472000354387	1472000356270	SHIFT	16
6204	66854	The Jets will try to control the ball and the clock against the Rams.	The Jets will try to control the ball and the clock agienst the Rams	3180378	1472000356060	1472000356113	J	74
6204	66854	The Jets will try to control the ball and the clock against the Rams.	The Jets will try to control the ball and the clock agienst the Rams	3180481	1472000356548	1472000356616	e	69
6204	66854	The Jets will try to control the ball and the clock against the Rams.	The Jets will try to control the ball and the clock agienst the Rams	3180490	1472000356953	1472000357014	t	84
6204	66854	The Jets will try to control the ball and the clock against the Rams.	The Jets will try to control the ball and the clock agienst the Rams	3180504	1472000357079	1472000357132	s	83
6204	66854	The Jets will try to control the ball and the clock against the Rams.	The Jets will try to control the ball and the clock agienst the Rams	3180513	1472000357232	1472000357293	 	32
6204	66854	The Jets will try to control the ball and the clock against the Rams.	The Jets will try to control the ball and the clock agienst the Rams	3180522	1472000358054	1472000358117	w	87
6204	66854	The Jets will try to control the ball and the clock against the Rams.	The Jets will try to control the ball and the clock agienst the Rams	3180623	1472000358209	1472000358265	i	73
6204	66854	The Jets will try to control the ball and the clock against the Rams.	The Jets will try to control the ball and the clock agienst the Rams	3180625	1472000358503	1472000358554	l	76
6204	66854	The Jets will try to control the ball and the clock against the Rams.	The Jets will try to control the ball and the clock agienst the Rams	3180628	1472000358650	1472000358720	l	76
6204	66854	The Jets will try to control the ball and the clock against the Rams.	The Jets will try to control the ball and the clock agienst the Rams	3180631	1472000358811	1472000358886	 	32
6204	66854	The Jets will try to control the ball and the clock against the Rams.	The Jets will try to control the ball and the clock agienst the Rams	3180634	1472000360059	1472000360118	t	84
6204	66854	The Jets will try to control the ball and the clock against the Rams.	The Jets will try to control the ball and the clock agienst the Rams	3180726	1472000360227	1472000360305	r	82
6204	66854	The Jets will try to control the ball and the clock against the Rams.	The Jets will try to control the ball and the clock agienst the Rams	3180730	1472000360361	1472000360429	y	89
6204	66854	The Jets will try to control the ball and the clock against the Rams.	The Jets will try to control the ball and the clock agienst the Rams	3180737	1472000360938	1472000361025	 	32
6204	66854	The Jets will try to control the ball and the clock against the Rams.	The Jets will try to control the ball and the clock agienst the Rams	3180741	1472000361443	1472000361528	t	84
6204	66854	The Jets will try to control the ball and the clock against the Rams.	The Jets will try to control the ball and the clock agienst the Rams	3180745	1472000361577	1472000361643	o	79
6204	66854	The Jets will try to control the ball and the clock against the Rams.	The Jets will try to control the ball and the clock agienst the Rams	3180817	1472000361786	1472000361859	 	32
6204	66854	The Jets will try to control the ball and the clock against the Rams.	The Jets will try to control the ball and the clock agienst the Rams	3180819	1472000362076	1472000362139	c	67
6204	66854	The Jets will try to control the ball and the clock against the Rams.	The Jets will try to control the ball and the clock agienst the Rams	3180822	1472000362199	1472000362265	o	79
6204	66854	The Jets will try to control the ball and the clock against the Rams.	The Jets will try to control the ball and the clock agienst the Rams	3180824	1472000362431	1472000362487	n	78
6204	66854	The Jets will try to control the ball and the clock against the Rams.	The Jets will try to control the ball and the clock agienst the Rams	3180829	1472000362802	1472000362875	t	84
6204	66854	The Jets will try to control the ball and the clock against the Rams.	The Jets will try to control the ball and the clock agienst the Rams	3180966	1472000363055	1472000363120	r	82
6204	66854	The Jets will try to control the ball and the clock against the Rams.	The Jets will try to control the ball and the clock agienst the Rams	3180969	1472000364210	1472000364266	o	79
6204	66854	The Jets will try to control the ball and the clock against the Rams.	The Jets will try to control the ball and the clock agienst the Rams	3180973	1472000364398	1472000364471	l	76
6204	66854	The Jets will try to control the ball and the clock against the Rams.	The Jets will try to control the ball and the clock agienst the Rams	3180977	1472000364577	1472000364658	 	32
6204	66854	The Jets will try to control the ball and the clock against the Rams.	The Jets will try to control the ball and the clock agienst the Rams	3180983	1472000365015	1472000365080	t	84
6204	66854	The Jets will try to control the ball and the clock against the Rams.	The Jets will try to control the ball and the clock agienst the Rams	3181034	1472000365161	1472000365227	h	72
6204	66854	The Jets will try to control the ball and the clock against the Rams.	The Jets will try to control the ball and the clock agienst the Rams	3181036	1472000365294	1472000365363	e	69
6204	66854	The Jets will try to control the ball and the clock against the Rams.	The Jets will try to control the ball and the clock agienst the Rams	3181039	1472000365431	1472000365498	 	32
6204	66854	The Jets will try to control the ball and the clock against the Rams.	The Jets will try to control the ball and the clock agienst the Rams	3181042	1472000365700	1472000365754	b	66
6204	66854	The Jets will try to control the ball and the clock against the Rams.	The Jets will try to control the ball and the clock agienst the Rams	3181047	1472000365826	1472000365894	a	65
6204	66854	The Jets will try to control the ball and the clock against the Rams.	The Jets will try to control the ball and the clock agienst the Rams	3181120	1472000366326	1472000366373	l	76
6204	66854	The Jets will try to control the ball and the clock against the Rams.	The Jets will try to control the ball and the clock agienst the Rams	3181124	1472000366485	1472000366553	l	76
6204	66854	The Jets will try to control the ball and the clock against the Rams.	The Jets will try to control the ball and the clock agienst the Rams	3181130	1472000366602	1472000366678	 	32
6204	66854	The Jets will try to control the ball and the clock against the Rams.	The Jets will try to control the ball and the clock agienst the Rams	3181133	1472000366772	1472000366871	a	65
6204	66854	The Jets will try to control the ball and the clock against the Rams.	The Jets will try to control the ball and the clock agienst the Rams	3181136	1472000366938	1472000366996	 	32
6204	66854	The Jets will try to control the ball and the clock against the Rams.	The Jets will try to control the ball and the clock agienst the Rams	3181232	1472000367506	1472000367588	BKSP	8
6204	66854	The Jets will try to control the ball and the clock against the Rams.	The Jets will try to control the ball and the clock agienst the Rams	3181240	1472000368016	1472000368085	n	78
6204	66854	The Jets will try to control the ball and the clock against the Rams.	The Jets will try to control the ball and the clock agienst the Rams	3181246	1472000368162	1472000368235	d	68
6204	66854	The Jets will try to control the ball and the clock against the Rams.	The Jets will try to control the ball and the clock agienst the Rams	3181250	1472000368297	1472000368361	 	32
6204	66854	The Jets will try to control the ball and the clock against the Rams.	The Jets will try to control the ball and the clock agienst the Rams	3181254	1472000368533	1472000368611	t	84
6204	66854	The Jets will try to control the ball and the clock against the Rams.	The Jets will try to control the ball and the clock agienst the Rams	3181257	1472000368664	1472000368721	h	72
6204	66854	The Jets will try to control the ball and the clock against the Rams.	The Jets will try to control the ball and the clock agienst the Rams	3181311	1472000368732	1472000368845	e	69
6204	66854	The Jets will try to control the ball and the clock against the Rams.	The Jets will try to control the ball and the clock agienst the Rams	3181316	1472000368902	1472000368961	 	32
6204	66854	The Jets will try to control the ball and the clock against the Rams.	The Jets will try to control the ball and the clock agienst the Rams	3181320	1472000369768	1472000369844	c	67
6204	66854	The Jets will try to control the ball and the clock against the Rams.	The Jets will try to control the ball and the clock agienst the Rams	3181323	1472000369919	1472000369988	l	76
6204	66854	The Jets will try to control the ball and the clock against the Rams.	The Jets will try to control the ball and the clock agienst the Rams	3181325	1472000370094	1472000370163	o	79
6204	66854	The Jets will try to control the ball and the clock against the Rams.	The Jets will try to control the ball and the clock agienst the Rams	3181430	1472000370553	1472000370633	c	67
6204	66854	The Jets will try to control the ball and the clock against the Rams.	The Jets will try to control the ball and the clock agienst the Rams	3181432	1472000370791	1472000370851	k	75
6204	66854	The Jets will try to control the ball and the clock against the Rams.	The Jets will try to control the ball and the clock agienst the Rams	3181437	1472000370993	1472000371069	 	32
6204	66854	The Jets will try to control the ball and the clock against the Rams.	The Jets will try to control the ball and the clock agienst the Rams	3181442	1472000371475	1472000371557	a	65
6204	66854	The Jets will try to control the ball and the clock against the Rams.	The Jets will try to control the ball and the clock agienst the Rams	3181445	1472000372069	1472000372135	g	71
6204	66854	The Jets will try to control the ball and the clock against the Rams.	The Jets will try to control the ball and the clock agienst the Rams	3181594	1472000372273	1472000372331	i	73
6204	66854	The Jets will try to control the ball and the clock against the Rams.	The Jets will try to control the ball and the clock agienst the Rams	3181596	1472000372609	1472000372675	e	69
6204	66854	The Jets will try to control the ball and the clock against the Rams.	The Jets will try to control the ball and the clock agienst the Rams	3181599	1472000372832	1472000372887	n	78
6204	66854	The Jets will try to control the ball and the clock against the Rams.	The Jets will try to control the ball and the clock agienst the Rams	3181603	1472000374224	1472000374290	s	83
6204	66854	The Jets will try to control the ball and the clock against the Rams.	The Jets will try to control the ball and the clock agienst the Rams	3181607	1472000374452	1472000374532	t	84
6204	66854	The Jets will try to control the ball and the clock against the Rams.	The Jets will try to control the ball and the clock agienst the Rams	3181724	1472000374709	1472000374801	 	32
6204	66854	The Jets will try to control the ball and the clock against the Rams.	The Jets will try to control the ball and the clock agienst the Rams	3181727	1472000375401	1472000375469	t	84
6204	66854	The Jets will try to control the ball and the clock against the Rams.	The Jets will try to control the ball and the clock agienst the Rams	3181732	1472000375542	1472000375596	h	72
6204	66854	The Jets will try to control the ball and the clock against the Rams.	The Jets will try to control the ball and the clock agienst the Rams	3181737	1472000375708	1472000375754	e	69
6204	66854	The Jets will try to control the ball and the clock against the Rams.	The Jets will try to control the ball and the clock agienst the Rams	3181746	1472000377001	1472000377095	 	32
6204	66854	The Jets will try to control the ball and the clock against the Rams.	The Jets will try to control the ball and the clock agienst the Rams	3181823	1472000377564	1472000377929	SHIFT	16
6204	66854	The Jets will try to control the ball and the clock against the Rams.	The Jets will try to control the ball and the clock agienst the Rams	3181820	1472000377766	1472000377816	R	82
6204	66854	The Jets will try to control the ball and the clock against the Rams.	The Jets will try to control the ball and the clock agienst the Rams	3181826	1472000378172	1472000378245	a	65
6204	66854	The Jets will try to control the ball and the clock against the Rams.	The Jets will try to control the ball and the clock agienst the Rams	3181830	1472000378412	1472000378486	m	77
6204	66854	The Jets will try to control the ball and the clock against the Rams.	The Jets will try to control the ball and the clock agienst the Rams	3181836	1472000378542	1472000378636	s	83
6204	66897	Kelly,I'm gonna be early this week.	Kelly,I'm gonna be early this week.	3182064	1472000381426	1472000382023	SHIFT	16
6204	66897	Kelly,I'm gonna be early this week.	Kelly,I'm gonna be early this week.	3182060	1472000381809	1472000381860	K	75
6204	66897	Kelly,I'm gonna be early this week.	Kelly,I'm gonna be early this week.	3182067	1472000382366	1472000382461	e	69
6204	66897	Kelly,I'm gonna be early this week.	Kelly,I'm gonna be early this week.	3182070	1472000382646	1472000382702	l	76
6204	66897	Kelly,I'm gonna be early this week.	Kelly,I'm gonna be early this week.	3182071	1472000382797	1472000382863	l	76
6204	66897	Kelly,I'm gonna be early this week.	Kelly,I'm gonna be early this week.	3182073	1472000382937	1472000383007	y	89
6204	66897	Kelly,I'm gonna be early this week.	Kelly,I'm gonna be early this week.	3182375	1472000383219	1472000383314	 	32
6204	66897	Kelly,I'm gonna be early this week.	Kelly,I'm gonna be early this week.	3182377	1472000383935	1472000384013	BKSP	8
6204	66897	Kelly,I'm gonna be early this week.	Kelly,I'm gonna be early this week.	3182380	1472000384284	1472000384369	,	188
6204	66897	Kelly,I'm gonna be early this week.	Kelly,I'm gonna be early this week.	3182383	1472000385267	1472000385361	 	32
6204	66897	Kelly,I'm gonna be early this week.	Kelly,I'm gonna be early this week.	3182387	1472000386702	1472000386778	BKSP	8
6204	66897	Kelly,I'm gonna be early this week.	Kelly,I'm gonna be early this week.	3182398	1472000386879	1472000387628	SHIFT	16
6204	66897	Kelly,I'm gonna be early this week.	Kelly,I'm gonna be early this week.	3182392	1472000387288	1472000387353	I	73
6204	66897	Kelly,I'm gonna be early this week.	Kelly,I'm gonna be early this week.	3182404	1472000389012	1472000389072	'	222
6204	66897	Kelly,I'm gonna be early this week.	Kelly,I'm gonna be early this week.	3182596	1472000389486	1472000389558	m	77
6204	66897	Kelly,I'm gonna be early this week.	Kelly,I'm gonna be early this week.	3182600	1472000389766	1472000389857	 	32
6204	66897	Kelly,I'm gonna be early this week.	Kelly,I'm gonna be early this week.	3182605	1472000391750	1472000391823	g	71
6204	66897	Kelly,I'm gonna be early this week.	Kelly,I'm gonna be early this week.	3182609	1472000391871	1472000391941	o	79
6204	66897	Kelly,I'm gonna be early this week.	Kelly,I'm gonna be early this week.	3182614	1472000392217	1472000392292	n	78
6204	66897	Kelly,I'm gonna be early this week.	Kelly,I'm gonna be early this week.	3182692	1472000392916	1472000392992	n	78
6204	66897	Kelly,I'm gonna be early this week.	Kelly,I'm gonna be early this week.	3182694	1472000393077	1472000393154	a	65
6204	66897	Kelly,I'm gonna be early this week.	Kelly,I'm gonna be early this week.	3182697	1472000393235	1472000393313	 	32
6204	66897	Kelly,I'm gonna be early this week.	Kelly,I'm gonna be early this week.	3182699	1472000393786	1472000393854	b	66
6204	66897	Kelly,I'm gonna be early this week.	Kelly,I'm gonna be early this week.	3182704	1472000393907	1472000393984	e	69
6204	66897	Kelly,I'm gonna be early this week.	Kelly,I'm gonna be early this week.	3182834	1472000394058	1472000394143	 	32
6204	66897	Kelly,I'm gonna be early this week.	Kelly,I'm gonna be early this week.	3182836	1472000394956	1472000395037	e	69
6204	66897	Kelly,I'm gonna be early this week.	Kelly,I'm gonna be early this week.	3182837	1472000395146	1472000395231	r	82
6204	66897	Kelly,I'm gonna be early this week.	Kelly,I'm gonna be early this week.	3182838	1472000396643	1472000396705	l	76
6204	66897	Kelly,I'm gonna be early this week.	Kelly,I'm gonna be early this week.	3182840	1472000397280	1472000397334	y	89
6204	66897	Kelly,I'm gonna be early this week.	Kelly,I'm gonna be early this week.	3182902	1472000397661	1472000397740	 	32
6204	66897	Kelly,I'm gonna be early this week.	Kelly,I'm gonna be early this week.	3182906	1472000398102	1472000398169	t	84
6204	66897	Kelly,I'm gonna be early this week.	Kelly,I'm gonna be early this week.	3182912	1472000398276	1472000398328	h	72
6204	66897	Kelly,I'm gonna be early this week.	Kelly,I'm gonna be early this week.	3182917	1472000398481	1472000398547	i	73
6204	66897	Kelly,I'm gonna be early this week.	Kelly,I'm gonna be early this week.	3182919	1472000398658	1472000398730	s	83
6204	66897	Kelly,I'm gonna be early this week.	Kelly,I'm gonna be early this week.	3183003	1472000398835	1472000398894	 	32
6204	66897	Kelly,I'm gonna be early this week.	Kelly,I'm gonna be early this week.	3183007	1472000399434	1472000399505	w	87
6204	66897	Kelly,I'm gonna be early this week.	Kelly,I'm gonna be early this week.	3183009	1472000399671	1472000399752	e	69
6204	66897	Kelly,I'm gonna be early this week.	Kelly,I'm gonna be early this week.	3183011	1472000399866	1472000399932	e	69
6204	66897	Kelly,I'm gonna be early this week.	Kelly,I'm gonna be early this week.	3183013	1472000400727	1472000400796	l	76
6204	66897	Kelly,I'm gonna be early this week.	Kelly,I'm gonna be early this week.	3183512	1472000401434	1472000401536	ARW_LEFT	37
6204	66897	Kelly,I'm gonna be early this week.	Kelly,I'm gonna be early this week.	3183516	1472000401989	1472000402048	ARW_LEFT	37
6204	66897	Kelly,I'm gonna be early this week.	Kelly,I'm gonna be early this week.	3183521	1472000402165	1472000402234	ARW_LEFT	37
6204	66897	Kelly,I'm gonna be early this week.	Kelly,I'm gonna be early this week.	3183525	1472000402327	1472000402387	ARW_LEFT	37
6204	66897	Kelly,I'm gonna be early this week.	Kelly,I'm gonna be early this week.	3183530	1472000402506	1472000402565	ARW_LEFT	37
6204	66897	Kelly,I'm gonna be early this week.	Kelly,I'm gonna be early this week.	3183535	1472000402676	1472000402727	ARW_LEFT	37
6204	66897	Kelly,I'm gonna be early this week.	Kelly,I'm gonna be early this week.	3183540	1472000402850	1472000402890	ARW_LEFT	37
6204	66897	Kelly,I'm gonna be early this week.	Kelly,I'm gonna be early this week.	3183545	1472000403018	1472000403049	ARW_LEFT	37
6204	66897	Kelly,I'm gonna be early this week.	Kelly,I'm gonna be early this week.	3183548	1472000403187	1472000403217	ARW_LEFT	37
6204	66897	Kelly,I'm gonna be early this week.	Kelly,I'm gonna be early this week.	3183551	1472000403493	1472000403577	ARW_LEFT	37
6204	66897	Kelly,I'm gonna be early this week.	Kelly,I'm gonna be early this week.	3183554	1472000403754	1472000403823	ARW_LEFT	37
6204	66897	Kelly,I'm gonna be early this week.	Kelly,I'm gonna be early this week.	3183558	1472000404815	1472000404905	ARW_LEFT	37
6204	66897	Kelly,I'm gonna be early this week.	Kelly,I'm gonna be early this week.	3183562	1472000405093	1472000405165	ARW_LEFT	37
6204	66897	Kelly,I'm gonna be early this week.	Kelly,I'm gonna be early this week.	3183565	1472000405716	1472000405797	a	65
6204	66897	Kelly,I'm gonna be early this week.	Kelly,I'm gonna be early this week.	3183566	1472000406831	1472000406880	ARW_RIGHT	39
6204	66897	Kelly,I'm gonna be early this week.	Kelly,I'm gonna be early this week.	3183568	1472000406994	1472000407054	ARW_RIGHT	39
6204	66897	Kelly,I'm gonna be early this week.	Kelly,I'm gonna be early this week.	3183571	1472000407176	1472000407190	ARW_RIGHT	39
6204	66897	Kelly,I'm gonna be early this week.	Kelly,I'm gonna be early this week.	3183574	1472000407349	1472000407394	ARW_RIGHT	39
6204	66897	Kelly,I'm gonna be early this week.	Kelly,I'm gonna be early this week.	3183576	1472000407538	1472000407602	ARW_RIGHT	39
6204	66897	Kelly,I'm gonna be early this week.	Kelly,I'm gonna be early this week.	3183580	1472000407719	1472000407780	ARW_RIGHT	39
6204	66897	Kelly,I'm gonna be early this week.	Kelly,I'm gonna be early this week.	3183588	1472000407870	1472000407939	ARW_RIGHT	39
6204	66897	Kelly,I'm gonna be early this week.	Kelly,I'm gonna be early this week.	3183592	1472000408064	1472000408112	ARW_RIGHT	39
6204	66897	Kelly,I'm gonna be early this week.	Kelly,I'm gonna be early this week.	3183600	1472000408235	1472000408294	ARW_RIGHT	39
6204	66897	Kelly,I'm gonna be early this week.	Kelly,I'm gonna be early this week.	3183607	1472000408411	1472000408473	ARW_RIGHT	39
6204	66897	Kelly,I'm gonna be early this week.	Kelly,I'm gonna be early this week.	3183614	1472000408591	1472000408645	ARW_RIGHT	39
6204	66897	Kelly,I'm gonna be early this week.	Kelly,I'm gonna be early this week.	3183621	1472000408778	1472000408850	ARW_RIGHT	39
6204	66897	Kelly,I'm gonna be early this week.	Kelly,I'm gonna be early this week.	3183629	1472000408968	1472000409023	ARW_RIGHT	39
6204	66897	Kelly,I'm gonna be early this week.	Kelly,I'm gonna be early this week.	3183634	1472000409682	1472000409745	BKSP	8
6204	66897	Kelly,I'm gonna be early this week.	Kelly,I'm gonna be early this week.	3183639	1472000410077	1472000410128	k	75
6204	66897	Kelly,I'm gonna be early this week.	Kelly,I'm gonna be early this week.	3183643	1472000410654	1472000410714	.	190
6204	66935	Please pass along my thanks, though.	Please pass along my thanks, though.	3183822	1472000414550	1472000415185	SHIFT	16
6204	66935	Please pass along my thanks, though.	Please pass along my thanks, though.	3183818	1472000414942	1472000415006	P	80
6204	66935	Please pass along my thanks, though.	Please pass along my thanks, though.	3183827	1472000415427	1472000415482	l	76
6204	66935	Please pass along my thanks, though.	Please pass along my thanks, though.	3183832	1472000415566	1472000415647	e	69
6204	66935	Please pass along my thanks, though.	Please pass along my thanks, though.	3183837	1472000415971	1472000416073	a	65
6204	66935	Please pass along my thanks, though.	Please pass along my thanks, though.	3183842	1472000416193	1472000416289	s	83
6204	66935	Please pass along my thanks, though.	Please pass along my thanks, though.	3183898	1472000416467	1472000416547	e	69
6204	66935	Please pass along my thanks, though.	Please pass along my thanks, though.	3183901	1472000416639	1472000416694	 	32
6204	66935	Please pass along my thanks, though.	Please pass along my thanks, though.	3183904	1472000417073	1472000417139	p	80
6204	66935	Please pass along my thanks, though.	Please pass along my thanks, though.	3183906	1472000417375	1472000417475	a	65
6204	66935	Please pass along my thanks, though.	Please pass along my thanks, though.	3183910	1472000417658	1472000417752	s	83
6204	66935	Please pass along my thanks, though.	Please pass along my thanks, though.	3184008	1472000417848	1472000417926	s	83
6204	66935	Please pass along my thanks, though.	Please pass along my thanks, though.	3184011	1472000418041	1472000418118	 	32
6204	66935	Please pass along my thanks, though.	Please pass along my thanks, though.	3184017	1472000418372	1472000418458	a	65
6204	66935	Please pass along my thanks, though.	Please pass along my thanks, though.	3184023	1472000418678	1472000418745	l	76
6204	66935	Please pass along my thanks, though.	Please pass along my thanks, though.	3184027	1472000419534	1472000419595	o	79
6204	66935	Please pass along my thanks, though.	Please pass along my thanks, though.	3184109	1472000420093	1472000420154	n	78
6204	66935	Please pass along my thanks, though.	Please pass along my thanks, though.	3184113	1472000420332	1472000420393	g	71
6204	66935	Please pass along my thanks, though.	Please pass along my thanks, though.	3184117	1472000420505	1472000420586	 	32
6204	66935	Please pass along my thanks, though.	Please pass along my thanks, though.	3184125	1472000421538	1472000421600	m	77
6204	66935	Please pass along my thanks, though.	Please pass along my thanks, though.	3184131	1472000421668	1472000421748	y	89
6204	66935	Please pass along my thanks, though.	Please pass along my thanks, though.	3184240	1472000422506	1472000422593	 	32
6204	66935	Please pass along my thanks, though.	Please pass along my thanks, though.	3184242	1472000424855	1472000424917	t	84
6204	66935	Please pass along my thanks, though.	Please pass along my thanks, though.	3184246	1472000425017	1472000425073	h	72
6204	66935	Please pass along my thanks, though.	Please pass along my thanks, though.	3184252	1472000425192	1472000425285	a	65
6204	66935	Please pass along my thanks, though.	Please pass along my thanks, though.	3184259	1472000425402	1472000425455	n	78
6204	66935	Please pass along my thanks, though.	Please pass along my thanks, though.	3184406	1472000426183	1472000426246	k	75
6204	66935	Please pass along my thanks, though.	Please pass along my thanks, though.	3184408	1472000426349	1472000426427	s	83
6204	66935	Please pass along my thanks, though.	Please pass along my thanks, though.	3184410	1472000427553	1472000427618	,	188
6204	66935	Please pass along my thanks, though.	Please pass along my thanks, though.	3184414	1472000427694	1472000427783	 	32
6204	66935	Please pass along my thanks, though.	Please pass along my thanks, though.	3184416	1472000428254	1472000428312	t	84
6204	66935	Please pass along my thanks, though.	Please pass along my thanks, though.	3184529	1472000428427	1472000428489	h	72
6204	66935	Please pass along my thanks, though.	Please pass along my thanks, though.	3184534	1472000429193	1472000429262	o	79
6204	66935	Please pass along my thanks, though.	Please pass along my thanks, though.	3184538	1472000429409	1472000429470	u	85
6204	66935	Please pass along my thanks, though.	Please pass along my thanks, though.	3184542	1472000429804	1472000429873	g	71
6204	66935	Please pass along my thanks, though.	Please pass along my thanks, though.	3184545	1472000429965	1472000430022	h	72
6204	66935	Please pass along my thanks, though.	Please pass along my thanks, though.	3184749	1472000431217	1472000431276	.	190
6204	66935	Please pass along my thanks, though.	Please pass along my thanks, though.	3184751	1472000431785	1472000431859	\	220
6204	66935	Please pass along my thanks, though.	Please pass along my thanks, though.	3184754	1472000433054	1472000433132	BKSP	8
6204	66961	A detailed organizational chart is attached.	A detailed organizational chart is attached	3184971	1472000435936	1472000436195	SHIFT	16
6204	66961	A detailed organizational chart is attached.	A detailed organizational chart is attached	3184974	1472000436119	1472000436239	A	65
6204	66961	A detailed organizational chart is attached.	A detailed organizational chart is attached	3184977	1472000436345	1472000436406	 	32
6204	66961	A detailed organizational chart is attached.	A detailed organizational chart is attached	3184980	1472000436545	1472000436673	d	68
6204	66961	A detailed organizational chart is attached.	A detailed organizational chart is attached	3184984	1472000436781	1472000436870	e	69
6204	66961	A detailed organizational chart is attached.	A detailed organizational chart is attached	3184990	1472000437868	1472000437977	t	84
6204	66961	A detailed organizational chart is attached.	A detailed organizational chart is attached	3185048	1472000438992	1472000439080	a	65
6204	66961	A detailed organizational chart is attached.	A detailed organizational chart is attached	3185049	1472000439447	1472000439514	i	73
6204	66961	A detailed organizational chart is attached.	A detailed organizational chart is attached	3185050	1472000439834	1472000439887	l	76
6204	66961	A detailed organizational chart is attached.	A detailed organizational chart is attached	3185051	1472000439932	1472000440011	e	69
6204	66961	A detailed organizational chart is attached.	A detailed organizational chart is attached	3185053	1472000440088	1472000440199	d	68
6204	66961	A detailed organizational chart is attached.	A detailed organizational chart is attached	3185257	1472000440252	1472000440312	 	32
6204	66961	A detailed organizational chart is attached.	A detailed organizational chart is attached	3185261	1472000441022	1472000441080	o	79
6204	66961	A detailed organizational chart is attached.	A detailed organizational chart is attached	3185264	1472000441227	1472000441289	r	82
6204	66961	A detailed organizational chart is attached.	A detailed organizational chart is attached	3185267	1472000442944	1472000443008	g	71
6204	66961	A detailed organizational chart is attached.	A detailed organizational chart is attached	3185271	1472000444726	1472000444819	a	65
6204	66961	A detailed organizational chart is attached.	A detailed organizational chart is attached	3185522	1472000444982	1472000445048	n	78
6204	66961	A detailed organizational chart is attached.	A detailed organizational chart is attached	3185526	1472000445810	1472000445878	i	73
6204	66961	A detailed organizational chart is attached.	A detailed organizational chart is attached	3185532	1472000446674	1472000446810	z	90
6204	66961	A detailed organizational chart is attached.	A detailed organizational chart is attached	3185539	1472000449022	1472000449122	a	65
6204	66961	A detailed organizational chart is attached.	A detailed organizational chart is attached	3185545	1472000449733	1472000449859	t	84
6204	66961	A detailed organizational chart is attached.	A detailed organizational chart is attached	3185625	1472000450292	1472000450380	i	73
6204	66961	A detailed organizational chart is attached.	A detailed organizational chart is attached	3185629	1472000450504	1472000450603	o	79
6204	66961	A detailed organizational chart is attached.	A detailed organizational chart is attached	3185636	1472000451069	1472000451136	n	78
6204	66961	A detailed organizational chart is attached.	A detailed organizational chart is attached	3185640	1472000451252	1472000451383	a	65
6204	66961	A detailed organizational chart is attached.	A detailed organizational chart is attached	3185643	1472000451496	1472000451588	l	76
6204	66961	A detailed organizational chart is attached.	A detailed organizational chart is attached	3185784	1472000451779	1472000451853	 	32
6204	66961	A detailed organizational chart is attached.	A detailed organizational chart is attached	3185788	1472000454497	1472000454575	c	67
6204	66961	A detailed organizational chart is attached.	A detailed organizational chart is attached	3185791	1472000454694	1472000454757	h	72
6204	66961	A detailed organizational chart is attached.	A detailed organizational chart is attached	3185796	1472000454877	1472000455015	a	65
6204	66961	A detailed organizational chart is attached.	A detailed organizational chart is attached	3185800	1472000455065	1472000455159	r	82
6204	66961	A detailed organizational chart is attached.	A detailed organizational chart is attached	3185832	1472000455345	1472000455428	t	84
6204	66961	A detailed organizational chart is attached.	A detailed organizational chart is attached	3185835	1472000455545	1472000455621	 	32
6204	66961	A detailed organizational chart is attached.	A detailed organizational chart is attached	3185838	1472000456041	1472000456106	i	73
6204	66961	A detailed organizational chart is attached.	A detailed organizational chart is attached	3185843	1472000456162	1472000456234	s	83
6204	66961	A detailed organizational chart is attached.	A detailed organizational chart is attached	3185846	1472000456299	1472000456373	 	32
6204	66961	A detailed organizational chart is attached.	A detailed organizational chart is attached	3185910	1472000456764	1472000456878	a	65
6204	66961	A detailed organizational chart is attached.	A detailed organizational chart is attached	3185912	1472000457371	1472000457431	t	84
6204	66961	A detailed organizational chart is attached.	A detailed organizational chart is attached	3185921	1472000457503	1472000457576	t	84
6204	66961	A detailed organizational chart is attached.	A detailed organizational chart is attached	3185927	1472000457667	1472000457756	a	65
6204	66961	A detailed organizational chart is attached.	A detailed organizational chart is attached	3185935	1472000458014	1472000458102	c	67
6204	66961	A detailed organizational chart is attached.	A detailed organizational chart is attached	3185962	1472000458202	1472000458252	h	72
6204	66961	A detailed organizational chart is attached.	A detailed organizational chart is attached	3185967	1472000458345	1472000458457	e	69
6204	66961	A detailed organizational chart is attached.	A detailed organizational chart is attached	3185973	1472000458582	1472000458681	d	68
6204	66987	I'll give it to you tomorrow.	I'll give it to you tommrow.	3186837	1472000473043	1472000473558	SHIFT	16
6204	66987	I'll give it to you tomorrow.	I'll give it to you tommrow.	3186834	1472000473353	1472000473409	I	73
6204	66987	I'll give it to you tomorrow.	I'll give it to you tommrow.	3186839	1472000474650	1472000474710	'	222
6204	66987	I'll give it to you tomorrow.	I'll give it to you tommrow.	3186841	1472000475175	1472000475230	l	76
6204	66987	I'll give it to you tomorrow.	I'll give it to you tommrow.	3186843	1472000475343	1472000475412	l	76
6204	66987	I'll give it to you tomorrow.	I'll give it to you tommrow.	3186845	1472000475470	1472000475555	 	32
6204	66987	I'll give it to you tomorrow.	I'll give it to you tommrow.	3186909	1472000476111	1472000476184	g	71
6204	66987	I'll give it to you tomorrow.	I'll give it to you tommrow.	3186910	1472000476214	1472000476266	i	73
6204	66987	I'll give it to you tomorrow.	I'll give it to you tommrow.	3186911	1472000476566	1472000476623	v	86
6204	66987	I'll give it to you tomorrow.	I'll give it to you tommrow.	3186912	1472000476717	1472000476788	e	69
6204	66987	I'll give it to you tomorrow.	I'll give it to you tommrow.	3186913	1472000476878	1472000476952	 	32
6204	66987	I'll give it to you tomorrow.	I'll give it to you tommrow.	3187004	1472000477807	1472000477866	i	73
6204	66987	I'll give it to you tomorrow.	I'll give it to you tommrow.	3187009	1472000477937	1472000478010	t	84
6204	66987	I'll give it to you tomorrow.	I'll give it to you tommrow.	3187014	1472000478081	1472000478145	 	32
6204	66987	I'll give it to you tomorrow.	I'll give it to you tommrow.	3187022	1472000478957	1472000479036	t	84
6204	66987	I'll give it to you tomorrow.	I'll give it to you tommrow.	3187030	1472000479085	1472000479153	o	79
6204	66987	I'll give it to you tomorrow.	I'll give it to you tommrow.	3187072	1472000479357	1472000479432	 	32
6204	66987	I'll give it to you tomorrow.	I'll give it to you tommrow.	3187073	1472000479694	1472000479777	y	89
6204	66987	I'll give it to you tomorrow.	I'll give it to you tommrow.	3187074	1472000479813	1472000479879	o	79
6204	66987	I'll give it to you tomorrow.	I'll give it to you tommrow.	3187076	1472000479916	1472000479975	u	85
6204	66987	I'll give it to you tomorrow.	I'll give it to you tommrow.	3187080	1472000480065	1472000480134	 	32
6204	66987	I'll give it to you tomorrow.	I'll give it to you tommrow.	3187157	1472000480907	1472000480974	t	84
6204	66987	I'll give it to you tomorrow.	I'll give it to you tommrow.	3187160	1472000481096	1472000481145	o	79
6204	66987	I'll give it to you tomorrow.	I'll give it to you tommrow.	3187164	1472000481427	1472000481470	m	77
6204	66987	I'll give it to you tomorrow.	I'll give it to you tommrow.	3187166	1472000481562	1472000481624	m	77
6204	66987	I'll give it to you tomorrow.	I'll give it to you tommrow.	3187168	1472000482059	1472000482124	r	82
6204	66987	I'll give it to you tomorrow.	I'll give it to you tommrow.	3187213	1472000482196	1472000482244	o	79
6204	66987	I'll give it to you tomorrow.	I'll give it to you tommrow.	3187214	1472000482348	1472000482422	w	87
6204	66987	I'll give it to you tomorrow.	I'll give it to you tommrow.	3187216	1472000482819	1472000482874	.	190
6204	67018	The cabinet Thursday approved a revised tariff schedule.	The cabinet Thrusday approved a revised tarif schedule.	3187465	1472000485827	1472000486406	SHIFT	16
6204	67018	The cabinet Thursday approved a revised tariff schedule.	The cabinet Thrusday approved a revised tarif schedule.	3187462	1472000486271	1472000486372	T	84
6204	67018	The cabinet Thursday approved a revised tariff schedule.	The cabinet Thrusday approved a revised tarif schedule.	3187470	1472000486516	1472000486570	h	72
6204	67018	The cabinet Thursday approved a revised tariff schedule.	The cabinet Thrusday approved a revised tarif schedule.	3187474	1472000486681	1472000486761	e	69
6204	67018	The cabinet Thursday approved a revised tariff schedule.	The cabinet Thrusday approved a revised tarif schedule.	3187478	1472000486791	1472000486890	 	32
6204	67018	The cabinet Thursday approved a revised tariff schedule.	The cabinet Thrusday approved a revised tarif schedule.	3187483	1472000487893	1472000487972	c	67
6204	67018	The cabinet Thursday approved a revised tariff schedule.	The cabinet Thrusday approved a revised tarif schedule.	3187530	1472000488077	1472000488150	a	65
6204	67018	The cabinet Thursday approved a revised tariff schedule.	The cabinet Thrusday approved a revised tarif schedule.	3187533	1472000488630	1472000488686	b	66
6204	67018	The cabinet Thursday approved a revised tariff schedule.	The cabinet Thrusday approved a revised tarif schedule.	3187534	1472000489141	1472000489202	i	73
6204	67018	The cabinet Thursday approved a revised tariff schedule.	The cabinet Thrusday approved a revised tarif schedule.	3187535	1472000489383	1472000489451	n	78
6204	67018	The cabinet Thursday approved a revised tariff schedule.	The cabinet Thrusday approved a revised tarif schedule.	3187536	1472000489523	1472000489604	e	69
6204	67018	The cabinet Thursday approved a revised tariff schedule.	The cabinet Thrusday approved a revised tarif schedule.	3187626	1472000489734	1472000489798	t	84
6204	67018	The cabinet Thursday approved a revised tariff schedule.	The cabinet Thrusday approved a revised tarif schedule.	3187629	1472000489959	1472000490054	 	32
6204	67018	The cabinet Thursday approved a revised tariff schedule.	The cabinet Thrusday approved a revised tarif schedule.	3187635	1472000490411	1472000490741	SHIFT	16
6204	67018	The cabinet Thursday approved a revised tariff schedule.	The cabinet Thrusday approved a revised tarif schedule.	3187633	1472000490618	1472000490690	T	84
6204	67018	The cabinet Thursday approved a revised tariff schedule.	The cabinet Thrusday approved a revised tarif schedule.	3187640	1472000491409	1472000491472	h	72
6204	67018	The cabinet Thursday approved a revised tariff schedule.	The cabinet Thrusday approved a revised tarif schedule.	3187643	1472000491563	1472000491638	r	82
6204	67018	The cabinet Thursday approved a revised tariff schedule.	The cabinet Thrusday approved a revised tarif schedule.	3187750	1472000491767	1472000491824	u	85
6204	67018	The cabinet Thursday approved a revised tariff schedule.	The cabinet Thrusday approved a revised tarif schedule.	3187752	1472000492205	1472000492269	s	83
6204	67018	The cabinet Thursday approved a revised tariff schedule.	The cabinet Thrusday approved a revised tarif schedule.	3187754	1472000492566	1472000492625	t	84
6204	67018	The cabinet Thursday approved a revised tariff schedule.	The cabinet Thrusday approved a revised tarif schedule.	3187756	1472000492688	1472000492756	a	65
6204	67018	The cabinet Thursday approved a revised tariff schedule.	The cabinet Thrusday approved a revised tarif schedule.	3187757	1472000493567	1472000493641	d	68
6204	67018	The cabinet Thursday approved a revised tariff schedule.	The cabinet Thrusday approved a revised tarif schedule.	3187969	1472000494647	1472000494718	BKSP	8
6204	67018	The cabinet Thursday approved a revised tariff schedule.	The cabinet Thrusday approved a revised tarif schedule.	3187972	1472000495551	1472000495644	BKSP	8
6204	67018	The cabinet Thursday approved a revised tariff schedule.	The cabinet Thrusday approved a revised tarif schedule.	3187975	1472000496304	1472000496380	BKSP	8
6204	67018	The cabinet Thursday approved a revised tariff schedule.	The cabinet Thrusday approved a revised tarif schedule.	3187978	1472000496688	1472000496779	d	68
6204	67018	The cabinet Thursday approved a revised tariff schedule.	The cabinet Thrusday approved a revised tarif schedule.	3187982	1472000496880	1472000496974	a	65
6204	67018	The cabinet Thursday approved a revised tariff schedule.	The cabinet Thrusday approved a revised tarif schedule.	3187990	1472000497185	1472000497246	y	89
6204	67018	The cabinet Thursday approved a revised tariff schedule.	The cabinet Thrusday approved a revised tarif schedule.	3187997	1472000497507	1472000497569	 	32
6204	67018	The cabinet Thursday approved a revised tariff schedule.	The cabinet Thrusday approved a revised tarif schedule.	3188001	1472000497952	1472000498051	a	65
6204	67018	The cabinet Thursday approved a revised tariff schedule.	The cabinet Thrusday approved a revised tarif schedule.	3188089	1472000498418	1472000498483	p	80
6204	67018	The cabinet Thursday approved a revised tariff schedule.	The cabinet Thrusday approved a revised tarif schedule.	3188094	1472000498610	1472000498682	p	80
6204	67018	The cabinet Thursday approved a revised tariff schedule.	The cabinet Thrusday approved a revised tarif schedule.	3188098	1472000499268	1472000499349	r	82
6204	67018	The cabinet Thursday approved a revised tariff schedule.	The cabinet Thrusday approved a revised tarif schedule.	3188102	1472000499427	1472000499495	o	79
6204	67018	The cabinet Thursday approved a revised tariff schedule.	The cabinet Thrusday approved a revised tarif schedule.	3188107	1472000499804	1472000499871	v	86
6204	67018	The cabinet Thursday approved a revised tariff schedule.	The cabinet Thrusday approved a revised tarif schedule.	3188148	1472000499918	1472000500042	e	69
6204	67018	The cabinet Thursday approved a revised tariff schedule.	The cabinet Thrusday approved a revised tarif schedule.	3188154	1472000500023	1472000500116	r	82
6204	67018	The cabinet Thursday approved a revised tariff schedule.	The cabinet Thrusday approved a revised tarif schedule.	3188159	1472000500155	1472000500233	 	32
6204	67018	The cabinet Thursday approved a revised tariff schedule.	The cabinet Thrusday approved a revised tarif schedule.	3188164	1472000500925	1472000501006	a	65
6204	67018	The cabinet Thursday approved a revised tariff schedule.	The cabinet Thrusday approved a revised tarif schedule.	3188167	1472000501071	1472000501131	 	32
6204	67018	The cabinet Thursday approved a revised tariff schedule.	The cabinet Thrusday approved a revised tarif schedule.	3188307	1472000501662	1472000501755	BKSP	8
6204	67018	The cabinet Thursday approved a revised tariff schedule.	The cabinet Thrusday approved a revised tarif schedule.	3188312	1472000501853	1472000501930	BKSP	8
6204	67018	The cabinet Thursday approved a revised tariff schedule.	The cabinet Thrusday approved a revised tarif schedule.	3188316	1472000502026	1472000502113	BKSP	8
6204	67018	The cabinet Thursday approved a revised tariff schedule.	The cabinet Thrusday approved a revised tarif schedule.	3188318	1472000502366	1472000502458	BKSP	8
6204	67018	The cabinet Thursday approved a revised tariff schedule.	The cabinet Thrusday approved a revised tarif schedule.	3188321	1472000502991	1472000503060	d	68
6204	67018	The cabinet Thursday approved a revised tariff schedule.	The cabinet Thrusday approved a revised tarif schedule.	3188327	1472000503153	1472000503222	 	32
6204	67018	The cabinet Thursday approved a revised tariff schedule.	The cabinet Thrusday approved a revised tarif schedule.	3188334	1472000503718	1472000503797	a	65
6204	67018	The cabinet Thursday approved a revised tariff schedule.	The cabinet Thrusday approved a revised tarif schedule.	3188341	1472000503908	1472000503969	 	32
6204	67018	The cabinet Thursday approved a revised tariff schedule.	The cabinet Thrusday approved a revised tarif schedule.	3188349	1472000504642	1472000504703	r	82
6204	67018	The cabinet Thursday approved a revised tariff schedule.	The cabinet Thrusday approved a revised tarif schedule.	3188385	1472000504811	1472000504885	e	69
6204	67018	The cabinet Thursday approved a revised tariff schedule.	The cabinet Thrusday approved a revised tarif schedule.	3188389	1472000505233	1472000505301	v	86
6204	67018	The cabinet Thursday approved a revised tariff schedule.	The cabinet Thrusday approved a revised tarif schedule.	3188395	1472000505428	1472000505495	i	73
6204	67018	The cabinet Thursday approved a revised tariff schedule.	The cabinet Thrusday approved a revised tarif schedule.	3188401	1472000505675	1472000505789	s	83
6204	67018	The cabinet Thursday approved a revised tariff schedule.	The cabinet Thrusday approved a revised tarif schedule.	3188404	1472000505831	1472000505920	e	69
6204	67018	The cabinet Thursday approved a revised tariff schedule.	The cabinet Thrusday approved a revised tarif schedule.	3188577	1472000506033	1472000506121	d	68
6204	67018	The cabinet Thursday approved a revised tariff schedule.	The cabinet Thrusday approved a revised tarif schedule.	3188582	1472000506196	1472000506265	 	32
6204	67018	The cabinet Thursday approved a revised tariff schedule.	The cabinet Thrusday approved a revised tarif schedule.	3188586	1472000507126	1472000507189	t	84
6204	67018	The cabinet Thursday approved a revised tariff schedule.	The cabinet Thrusday approved a revised tarif schedule.	3188591	1472000508386	1472000508454	a	65
6204	67018	The cabinet Thursday approved a revised tariff schedule.	The cabinet Thrusday approved a revised tarif schedule.	3188598	1472000508786	1472000508862	r	82
6204	67018	The cabinet Thursday approved a revised tariff schedule.	The cabinet Thrusday approved a revised tarif schedule.	3188713	1472000509008	1472000509077	i	73
6204	67018	The cabinet Thursday approved a revised tariff schedule.	The cabinet Thrusday approved a revised tarif schedule.	3188714	1472000509786	1472000509855	f	70
6204	67018	The cabinet Thursday approved a revised tariff schedule.	The cabinet Thrusday approved a revised tarif schedule.	3188716	1472000509952	1472000510022	 	32
6204	67018	The cabinet Thursday approved a revised tariff schedule.	The cabinet Thrusday approved a revised tarif schedule.	3188721	1472000510350	1472000510414	s	83
6204	67018	The cabinet Thursday approved a revised tariff schedule.	The cabinet Thrusday approved a revised tarif schedule.	3188725	1472000510919	1472000510995	c	67
6204	67018	The cabinet Thursday approved a revised tariff schedule.	The cabinet Thrusday approved a revised tarif schedule.	3189161	1472000511144	1472000511207	h	72
6204	67018	The cabinet Thursday approved a revised tariff schedule.	The cabinet Thrusday approved a revised tarif schedule.	3189165	1472000515256	1472000515337	e	69
6204	67018	The cabinet Thursday approved a revised tariff schedule.	The cabinet Thrusday approved a revised tarif schedule.	3189167	1472000515484	1472000515582	d	68
6204	67018	The cabinet Thursday approved a revised tariff schedule.	The cabinet Thrusday approved a revised tarif schedule.	3189168	1472000516746	1472000516807	u	85
6204	67018	The cabinet Thursday approved a revised tariff schedule.	The cabinet Thrusday approved a revised tarif schedule.	3189169	1472000518017	1472000518088	l	76
6204	67018	The cabinet Thursday approved a revised tariff schedule.	The cabinet Thrusday approved a revised tarif schedule.	3189215	1472000518145	1472000518218	e	69
6204	67018	The cabinet Thursday approved a revised tariff schedule.	The cabinet Thrusday approved a revised tarif schedule.	3189218	1472000518988	1472000519044	.	190
