PARTICIPANT_ID	TEST_SECTION_ID	SENTENCE	USER_INPUT	KEYSTROKE_ID	PRESS_TIME	RELEASE_TIME	LETTER	KEYCODE
6295	67651	Tiger Woods is set to answer your questions.	Tiger Woods is set to answer your questions.	3218508	1472001110529	1472001110839	SHIFT	16
6295	67651	Tiger Woods is set to answer your questions.	Tiger Woods is set to answer your questions.	3218509	1472001110826	1472001110929	T	84
6295	67651	Tiger Woods is set to answer your questions.	Tiger Woods is set to answer your questions.	3218510	1472001110921	1472001111011	i	73
6295	67651	Tiger Woods is set to answer your questions.	Tiger Woods is set to answer your questions.	3218513	1472001111036	1472001111127	g	71
6295	67651	Tiger Woods is set to answer your questions.	Tiger Woods is set to answer your questions.	3218516	1472001111162	1472001111329	e	69
6295	67651	Tiger Woods is set to answer your questions.	Tiger Woods is set to answer your questions.	3218543	1472001111274	1472001111401	r	82
6295	67651	Tiger Woods is set to answer your questions.	Tiger Woods is set to answer your questions.	3218545	1472001111381	1472001111493	 	32
6295	67651	Tiger Woods is set to answer your questions.	Tiger Woods is set to answer your questions.	3218548	1472001111498	1472001111578	w	87
6295	67651	Tiger Woods is set to answer your questions.	Tiger Woods is set to answer your questions.	3218551	1472001111842	1472001111928	BKSP	8
6295	67651	Tiger Woods is set to answer your questions.	Tiger Woods is set to answer your questions.	3218555	1472001111896	1472001112104	SHIFT	16
6295	67651	Tiger Woods is set to answer your questions.	Tiger Woods is set to answer your questions.	3218561	1472001112008	1472001112129	W	87
6295	67651	Tiger Woods is set to answer your questions.	Tiger Woods is set to answer your questions.	3218566	1472001112170	1472001112237	o	79
6295	67651	Tiger Woods is set to answer your questions.	Tiger Woods is set to answer your questions.	3218570	1472001112325	1472001112396	o	79
6295	67651	Tiger Woods is set to answer your questions.	Tiger Woods is set to answer your questions.	3218576	1472001112413	1472001112504	d	68
6295	67651	Tiger Woods is set to answer your questions.	Tiger Woods is set to answer your questions.	3218578	1472001112540	1472001112648	s	83
6295	67651	Tiger Woods is set to answer your questions.	Tiger Woods is set to answer your questions.	3218580	1472001112632	1472001112747	 	32
6295	67651	Tiger Woods is set to answer your questions.	Tiger Woods is set to answer your questions.	3218582	1472001112740	1472001112823	i	73
6295	67651	Tiger Woods is set to answer your questions.	Tiger Woods is set to answer your questions.	3218583	1472001112840	1472001112927	s	83
6295	67651	Tiger Woods is set to answer your questions.	Tiger Woods is set to answer your questions.	3218597	1472001112930	1472001113024	 	32
6295	67651	Tiger Woods is set to answer your questions.	Tiger Woods is set to answer your questions.	3218598	1472001113011	1472001113182	s	83
6295	67651	Tiger Woods is set to answer your questions.	Tiger Woods is set to answer your questions.	3218599	1472001113152	1472001113259	e	69
6295	67651	Tiger Woods is set to answer your questions.	Tiger Woods is set to answer your questions.	3218600	1472001113276	1472001113400	t	84
6295	67651	Tiger Woods is set to answer your questions.	Tiger Woods is set to answer your questions.	3218601	1472001113425	1472001113512	 	32
6295	67651	Tiger Woods is set to answer your questions.	Tiger Woods is set to answer your questions.	3218611	1472001113597	1472001113709	t	84
6295	67651	Tiger Woods is set to answer your questions.	Tiger Woods is set to answer your questions.	3218612	1472001113740	1472001113883	o	79
6295	67651	Tiger Woods is set to answer your questions.	Tiger Woods is set to answer your questions.	3218615	1472001113836	1472001113967	 	32
6295	67651	Tiger Woods is set to answer your questions.	Tiger Woods is set to answer your questions.	3218616	1472001114013	1472001114160	a	65
6295	67651	Tiger Woods is set to answer your questions.	Tiger Woods is set to answer your questions.	3218650	1472001114157	1472001114256	n	78
6295	67651	Tiger Woods is set to answer your questions.	Tiger Woods is set to answer your questions.	3218652	1472001114288	1472001114359	s	83
6295	67651	Tiger Woods is set to answer your questions.	Tiger Woods is set to answer your questions.	3218653	1472001114477	1472001114668	w	87
6295	67651	Tiger Woods is set to answer your questions.	Tiger Woods is set to answer your questions.	3218654	1472001114617	1472001114776	e	69
6295	67651	Tiger Woods is set to answer your questions.	Tiger Woods is set to answer your questions.	3218655	1472001114729	1472001114868	r	82
6295	67651	Tiger Woods is set to answer your questions.	Tiger Woods is set to answer your questions.	3218656	1472001114943	1472001115042	 	32
6295	67651	Tiger Woods is set to answer your questions.	Tiger Woods is set to answer your questions.	3218662	1472001115156	1472001115235	y	89
6295	67651	Tiger Woods is set to answer your questions.	Tiger Woods is set to answer your questions.	3218663	1472001115262	1472001115393	o	79
6295	67651	Tiger Woods is set to answer your questions.	Tiger Woods is set to answer your questions.	3218664	1472001115350	1472001115465	u	85
6295	67651	Tiger Woods is set to answer your questions.	Tiger Woods is set to answer your questions.	3218666	1472001115433	1472001115557	r	82
6295	67651	Tiger Woods is set to answer your questions.	Tiger Woods is set to answer your questions.	3218678	1472001115517	1472001115637	 	32
6295	67651	Tiger Woods is set to answer your questions.	Tiger Woods is set to answer your questions.	3218680	1472001115717	1472001115824	q	81
6295	67651	Tiger Woods is set to answer your questions.	Tiger Woods is set to answer your questions.	3218682	1472001115842	1472001115930	u	85
6295	67651	Tiger Woods is set to answer your questions.	Tiger Woods is set to answer your questions.	3218684	1472001115896	1472001116034	e	69
6295	67651	Tiger Woods is set to answer your questions.	Tiger Woods is set to answer your questions.	3218686	1472001116003	1472001116101	s	83
6295	67651	Tiger Woods is set to answer your questions.	Tiger Woods is set to answer your questions.	3218698	1472001116080	1472001116194	t	84
6295	67651	Tiger Woods is set to answer your questions.	Tiger Woods is set to answer your questions.	3218702	1472001116151	1472001116318	i	73
6295	67651	Tiger Woods is set to answer your questions.	Tiger Woods is set to answer your questions.	3218706	1472001116223	1472001116346	o	79
6295	67651	Tiger Woods is set to answer your questions.	Tiger Woods is set to answer your questions.	3218709	1472001116286	1472001116406	n	78
6295	67651	Tiger Woods is set to answer your questions.	Tiger Woods is set to answer your questions.	3218711	1472001116347	1472001116482	s	83
6295	67651	Tiger Woods is set to answer your questions.	Tiger Woods is set to answer your questions.	3218713	1472001116518	1472001116637	.	190
6295	67658	I have rates and capacity utilization information ready.	I have rates and capacity utilization information ready.	3218781	1472001118765	1472001118921	SHIFT	16
6295	67658	I have rates and capacity utilization information ready.	I have rates and capacity utilization information ready.	3218786	1472001118870	1472001118998	I	73
6295	67658	I have rates and capacity utilization information ready.	I have rates and capacity utilization information ready.	3218788	1472001118958	1472001119059	 	32
6295	67658	I have rates and capacity utilization information ready.	I have rates and capacity utilization information ready.	3218793	1472001119057	1472001119149	h	72
6295	67658	I have rates and capacity utilization information ready.	I have rates and capacity utilization information ready.	3218795	1472001119146	1472001119249	a	65
6295	67658	I have rates and capacity utilization information ready.	I have rates and capacity utilization information ready.	3218813	1472001119234	1472001119317	v	86
6295	67658	I have rates and capacity utilization information ready.	I have rates and capacity utilization information ready.	3218817	1472001119371	1472001119462	e	69
6295	67658	I have rates and capacity utilization information ready.	I have rates and capacity utilization information ready.	3218820	1472001119434	1472001119554	 	32
6295	67658	I have rates and capacity utilization information ready.	I have rates and capacity utilization information ready.	3218825	1472001119559	1472001119673	r	82
6295	67658	I have rates and capacity utilization information ready.	I have rates and capacity utilization information ready.	3218830	1472001119667	1472001119770	a	65
6295	67658	I have rates and capacity utilization information ready.	I have rates and capacity utilization information ready.	3218833	1472001119793	1472001119884	t	84
6295	67658	I have rates and capacity utilization information ready.	I have rates and capacity utilization information ready.	3218842	1472001119897	1472001120044	e	69
6295	67658	I have rates and capacity utilization information ready.	I have rates and capacity utilization information ready.	3218843	1472001120028	1472001120142	s	83
6295	67658	I have rates and capacity utilization information ready.	I have rates and capacity utilization information ready.	3218844	1472001120137	1472001120256	 	32
6295	67658	I have rates and capacity utilization information ready.	I have rates and capacity utilization information ready.	3218845	1472001120248	1472001120384	a	65
6295	67658	I have rates and capacity utilization information ready.	I have rates and capacity utilization information ready.	3218876	1472001120369	1472001120468	n	78
6295	67658	I have rates and capacity utilization information ready.	I have rates and capacity utilization information ready.	3218878	1472001120429	1472001120544	d	68
6295	67658	I have rates and capacity utilization information ready.	I have rates and capacity utilization information ready.	3218882	1472001120577	1472001120684	 	32
6295	67658	I have rates and capacity utilization information ready.	I have rates and capacity utilization information ready.	3218884	1472001120976	1472001121083	c	67
6295	67658	I have rates and capacity utilization information ready.	I have rates and capacity utilization information ready.	3218887	1472001121132	1472001121223	a	65
6295	67658	I have rates and capacity utilization information ready.	I have rates and capacity utilization information ready.	3218888	1472001121247	1472001121386	p	80
6295	67658	I have rates and capacity utilization information ready.	I have rates and capacity utilization information ready.	3218933	1472001121427	1472001121535	a	65
6295	67658	I have rates and capacity utilization information ready.	I have rates and capacity utilization information ready.	3218934	1472001121621	1472001121660	c	67
6295	67658	I have rates and capacity utilization information ready.	I have rates and capacity utilization information ready.	3218937	1472001122324	1472001122423	i	73
6295	67658	I have rates and capacity utilization information ready.	I have rates and capacity utilization information ready.	3218941	1472001122485	1472001122572	t	84
6295	67658	I have rates and capacity utilization information ready.	I have rates and capacity utilization information ready.	3218944	1472001122603	1472001122715	y	89
6295	67658	I have rates and capacity utilization information ready.	I have rates and capacity utilization information ready.	3218972	1472001122679	1472001122783	 	32
6295	67658	I have rates and capacity utilization information ready.	I have rates and capacity utilization information ready.	3218975	1472001122884	1472001122983	u	85
6295	67658	I have rates and capacity utilization information ready.	I have rates and capacity utilization information ready.	3218978	1472001123217	1472001123296	t	84
6295	67658	I have rates and capacity utilization information ready.	I have rates and capacity utilization information ready.	3218981	1472001123387	1472001123461	i	73
6295	67658	I have rates and capacity utilization information ready.	I have rates and capacity utilization information ready.	3218984	1472001123534	1472001123705	l	76
6295	67658	I have rates and capacity utilization information ready.	I have rates and capacity utilization information ready.	3219011	1472001123657	1472001123773	i	73
6295	67658	I have rates and capacity utilization information ready.	I have rates and capacity utilization information ready.	3219014	1472001123969	1472001124068	z	90
6295	67658	I have rates and capacity utilization information ready.	I have rates and capacity utilization information ready.	3219016	1472001124200	1472001124312	a	65
6295	67658	I have rates and capacity utilization information ready.	I have rates and capacity utilization information ready.	3219019	1472001124436	1472001124511	t	84
6295	67658	I have rates and capacity utilization information ready.	I have rates and capacity utilization information ready.	3219022	1472001124488	1472001124675	i	73
6295	67658	I have rates and capacity utilization information ready.	I have rates and capacity utilization information ready.	3219039	1472001124543	1472001124691	o	79
6295	67658	I have rates and capacity utilization information ready.	I have rates and capacity utilization information ready.	3219041	1472001124664	1472001124787	n	78
6295	67658	I have rates and capacity utilization information ready.	I have rates and capacity utilization information ready.	3219044	1472001124779	1472001124871	 	32
6295	67658	I have rates and capacity utilization information ready.	I have rates and capacity utilization information ready.	3219047	1472001124875	1472001124953	i	73
6295	67658	I have rates and capacity utilization information ready.	I have rates and capacity utilization information ready.	3219050	1472001125020	1472001125120	n	78
6295	67658	I have rates and capacity utilization information ready.	I have rates and capacity utilization information ready.	3219053	1472001125173	1472001125300	f	70
6295	67658	I have rates and capacity utilization information ready.	I have rates and capacity utilization information ready.	3219055	1472001125374	1472001125454	o	79
6295	67658	I have rates and capacity utilization information ready.	I have rates and capacity utilization information ready.	3219058	1472001125504	1472001125587	r	82
6295	67658	I have rates and capacity utilization information ready.	I have rates and capacity utilization information ready.	3219060	1472001125603	1472001125729	m	77
6295	67658	I have rates and capacity utilization information ready.	I have rates and capacity utilization information ready.	3219063	1472001125727	1472001125843	a	65
6295	67658	I have rates and capacity utilization information ready.	I have rates and capacity utilization information ready.	3219068	1472001125828	1472001125934	t	84
6295	67658	I have rates and capacity utilization information ready.	I have rates and capacity utilization information ready.	3219089	1472001125904	1472001126083	i	73
6295	67658	I have rates and capacity utilization information ready.	I have rates and capacity utilization information ready.	3219091	1472001125984	1472001126103	o	79
6295	67658	I have rates and capacity utilization information ready.	I have rates and capacity utilization information ready.	3219092	1472001126068	1472001126167	n	78
6295	67658	I have rates and capacity utilization information ready.	I have rates and capacity utilization information ready.	3219094	1472001126212	1472001126313	 	32
6295	67658	I have rates and capacity utilization information ready.	I have rates and capacity utilization information ready.	3219095	1472001126398	1472001126529	r	82
6295	67658	I have rates and capacity utilization information ready.	I have rates and capacity utilization information ready.	3219107	1472001126489	1472001126576	e	69
6295	67658	I have rates and capacity utilization information ready.	I have rates and capacity utilization information ready.	3219109	1472001126569	1472001126665	a	65
6295	67658	I have rates and capacity utilization information ready.	I have rates and capacity utilization information ready.	3219114	1472001126726	1472001126838	d	68
6295	67658	I have rates and capacity utilization information ready.	I have rates and capacity utilization information ready.	3219117	1472001126851	1472001126922	y	89
6295	67658	I have rates and capacity utilization information ready.	I have rates and capacity utilization information ready.	3219120	1472001127053	1472001127161	.	190
6295	67667	I have been in contact with him, and he is familiar with the issues.	I have been in contact with him, and he is familiar with the issues.	3219173	1472001128993	1472001129128	SHIFT	16
6295	67667	I have been in contact with him, and he is familiar with the issues.	I have been in contact with him, and he is familiar with the issues.	3219175	1472001129058	1472001129177	I	73
6295	67667	I have been in contact with him, and he is familiar with the issues.	I have been in contact with him, and he is familiar with the issues.	3219178	1472001129141	1472001129254	 	32
6295	67667	I have been in contact with him, and he is familiar with the issues.	I have been in contact with him, and he is familiar with the issues.	3219180	1472001129233	1472001129337	h	72
6295	67667	I have been in contact with him, and he is familiar with the issues.	I have been in contact with him, and he is familiar with the issues.	3219181	1472001129285	1472001129414	a	65
6295	67667	I have been in contact with him, and he is familiar with the issues.	I have been in contact with him, and he is familiar with the issues.	3219205	1472001129398	1472001129478	v	86
6295	67667	I have been in contact with him, and he is familiar with the issues.	I have been in contact with him, and he is familiar with the issues.	3219207	1472001129518	1472001129610	e	69
6295	67667	I have been in contact with him, and he is familiar with the issues.	I have been in contact with him, and he is familiar with the issues.	3219210	1472001129583	1472001129666	 	32
6295	67667	I have been in contact with him, and he is familiar with the issues.	I have been in contact with him, and he is familiar with the issues.	3219212	1472001129709	1472001129785	b	66
6295	67667	I have been in contact with him, and he is familiar with the issues.	I have been in contact with him, and he is familiar with the issues.	3219214	1472001129807	1472001129871	e	69
6295	67667	I have been in contact with him, and he is familiar with the issues.	I have been in contact with him, and he is familiar with the issues.	3219216	1472001129946	1472001130037	e	69
6295	67667	I have been in contact with him, and he is familiar with the issues.	I have been in contact with him, and he is familiar with the issues.	3219227	1472001130103	1472001130209	n	78
6295	67667	I have been in contact with him, and he is familiar with the issues.	I have been in contact with him, and he is familiar with the issues.	3219229	1472001130195	1472001130338	 	32
6295	67667	I have been in contact with him, and he is familiar with the issues.	I have been in contact with him, and he is familiar with the issues.	3219231	1472001130334	1472001130410	i	73
6295	67667	I have been in contact with him, and he is familiar with the issues.	I have been in contact with him, and he is familiar with the issues.	3219233	1472001130484	1472001130603	n	78
6295	67667	I have been in contact with him, and he is familiar with the issues.	I have been in contact with him, and he is familiar with the issues.	3219242	1472001130559	1472001130655	 	32
6295	67667	I have been in contact with him, and he is familiar with the issues.	I have been in contact with him, and he is familiar with the issues.	3219245	1472001130721	1472001130814	c	67
6295	67667	I have been in contact with him, and he is familiar with the issues.	I have been in contact with him, and he is familiar with the issues.	3219248	1472001130805	1472001130857	o	79
6295	67667	I have been in contact with him, and he is familiar with the issues.	I have been in contact with him, and he is familiar with the issues.	3219250	1472001130900	1472001131003	n	78
6295	67667	I have been in contact with him, and he is familiar with the issues.	I have been in contact with him, and he is familiar with the issues.	3219252	1472001131048	1472001131141	t	84
6295	67667	I have been in contact with him, and he is familiar with the issues.	I have been in contact with him, and he is familiar with the issues.	3219254	1472001131162	1472001131250	a	65
6295	67667	I have been in contact with him, and he is familiar with the issues.	I have been in contact with him, and he is familiar with the issues.	3219263	1472001131308	1472001131392	c	67
6295	67667	I have been in contact with him, and he is familiar with the issues.	I have been in contact with him, and he is familiar with the issues.	3219265	1472001131495	1472001131584	t	84
6295	67667	I have been in contact with him, and he is familiar with the issues.	I have been in contact with him, and he is familiar with the issues.	3219267	1472001131579	1472001131666	 	32
6295	67667	I have been in contact with him, and he is familiar with the issues.	I have been in contact with him, and he is familiar with the issues.	3219268	1472001131692	1472001131776	w	87
6295	67667	I have been in contact with him, and he is familiar with the issues.	I have been in contact with him, and he is familiar with the issues.	3219274	1472001131760	1472001131828	i	73
6295	67667	I have been in contact with him, and he is familiar with the issues.	I have been in contact with him, and he is familiar with the issues.	3219275	1472001131881	1472001131967	t	84
6295	67667	I have been in contact with him, and he is familiar with the issues.	I have been in contact with him, and he is familiar with the issues.	3219277	1472001131928	1472001132027	h	72
6295	67667	I have been in contact with him, and he is familiar with the issues.	I have been in contact with him, and he is familiar with the issues.	3219280	1472001132004	1472001132112	 	32
6295	67667	I have been in contact with him, and he is familiar with the issues.	I have been in contact with him, and he is familiar with the issues.	3219282	1472001132172	1472001132259	h	72
6295	67667	I have been in contact with him, and he is familiar with the issues.	I have been in contact with him, and he is familiar with the issues.	3219296	1472001132252	1472001132336	i	73
6295	67667	I have been in contact with him, and he is familiar with the issues.	I have been in contact with him, and he is familiar with the issues.	3219297	1472001132410	1472001132502	m	77
6295	67667	I have been in contact with him, and he is familiar with the issues.	I have been in contact with him, and he is familiar with the issues.	3219298	1472001132566	1472001132680	,	188
6295	67667	I have been in contact with him, and he is familiar with the issues.	I have been in contact with him, and he is familiar with the issues.	3219299	1472001132677	1472001132793	 	32
6295	67667	I have been in contact with him, and he is familiar with the issues.	I have been in contact with him, and he is familiar with the issues.	3219300	1472001132837	1472001132951	a	65
6295	67667	I have been in contact with him, and he is familiar with the issues.	I have been in contact with him, and he is familiar with the issues.	3219329	1472001132944	1472001133020	n	78
6295	67667	I have been in contact with him, and he is familiar with the issues.	I have been in contact with him, and he is familiar with the issues.	3219333	1472001133024	1472001133124	d	68
6295	67667	I have been in contact with him, and he is familiar with the issues.	I have been in contact with him, and he is familiar with the issues.	3219337	1472001133124	1472001133243	 	32
6295	67667	I have been in contact with him, and he is familiar with the issues.	I have been in contact with him, and he is familiar with the issues.	3219340	1472001133296	1472001133388	h	72
6295	67667	I have been in contact with him, and he is familiar with the issues.	I have been in contact with him, and he is familiar with the issues.	3219341	1472001133460	1472001133556	e	69
6295	67667	I have been in contact with him, and he is familiar with the issues.	I have been in contact with him, and he is familiar with the issues.	3219342	1472001133573	1472001133691	 	32
6295	67667	I have been in contact with him, and he is familiar with the issues.	I have been in contact with him, and he is familiar with the issues.	3219344	1472001133702	1472001133765	i	73
6295	67667	I have been in contact with him, and he is familiar with the issues.	I have been in contact with him, and he is familiar with the issues.	3219346	1472001133802	1472001133910	s	83
6295	67667	I have been in contact with him, and he is familiar with the issues.	I have been in contact with him, and he is familiar with the issues.	3219348	1472001133890	1472001133996	 	32
6295	67667	I have been in contact with him, and he is familiar with the issues.	I have been in contact with him, and he is familiar with the issues.	3219351	1472001134046	1472001134154	f	70
6295	67667	I have been in contact with him, and he is familiar with the issues.	I have been in contact with him, and he is familiar with the issues.	3219356	1472001134184	1472001134319	a	65
6295	67667	I have been in contact with him, and he is familiar with the issues.	I have been in contact with him, and he is familiar with the issues.	3219375	1472001134308	1472001134428	m	77
6295	67667	I have been in contact with him, and he is familiar with the issues.	I have been in contact with him, and he is familiar with the issues.	3219377	1472001134404	1472001134472	i	73
6295	67667	I have been in contact with him, and he is familiar with the issues.	I have been in contact with him, and he is familiar with the issues.	3219379	1472001134544	1472001134687	l	76
6295	67667	I have been in contact with him, and he is familiar with the issues.	I have been in contact with him, and he is familiar with the issues.	3219381	1472001134665	1472001134784	i	73
6295	67667	I have been in contact with him, and he is familiar with the issues.	I have been in contact with him, and he is familiar with the issues.	3219384	1472001134897	1472001135029	a	65
6295	67667	I have been in contact with him, and he is familiar with the issues.	I have been in contact with him, and he is familiar with the issues.	3219387	1472001135074	1472001135175	r	82
6295	67667	I have been in contact with him, and he is familiar with the issues.	I have been in contact with him, and he is familiar with the issues.	3219391	1472001135198	1472001135284	 	32
6295	67667	I have been in contact with him, and he is familiar with the issues.	I have been in contact with him, and he is familiar with the issues.	3219392	1472001135307	1472001135402	w	87
6295	67667	I have been in contact with him, and he is familiar with the issues.	I have been in contact with him, and he is familiar with the issues.	3219393	1472001135375	1472001135455	i	73
6295	67667	I have been in contact with him, and he is familiar with the issues.	I have been in contact with him, and he is familiar with the issues.	3219394	1472001135503	1472001135570	t	84
6295	67667	I have been in contact with him, and he is familiar with the issues.	I have been in contact with him, and he is familiar with the issues.	3219396	1472001135548	1472001135651	h	72
6295	67667	I have been in contact with him, and he is familiar with the issues.	I have been in contact with him, and he is familiar with the issues.	3219400	1472001135624	1472001135711	 	32
6295	67667	I have been in contact with him, and he is familiar with the issues.	I have been in contact with him, and he is familiar with the issues.	3219403	1472001135667	1472001135751	t	84
6295	67667	I have been in contact with him, and he is familiar with the issues.	I have been in contact with him, and he is familiar with the issues.	3219407	1472001135763	1472001135852	h	72
6295	67667	I have been in contact with him, and he is familiar with the issues.	I have been in contact with him, and he is familiar with the issues.	3219410	1472001135827	1472001135938	e	69
6295	67667	I have been in contact with him, and he is familiar with the issues.	I have been in contact with him, and he is familiar with the issues.	3219416	1472001135927	1472001136055	 	32
6295	67667	I have been in contact with him, and he is familiar with the issues.	I have been in contact with him, and he is familiar with the issues.	3219419	1472001136467	1472001136534	i	73
6295	67667	I have been in contact with him, and he is familiar with the issues.	I have been in contact with him, and he is familiar with the issues.	3219422	1472001136576	1472001136659	s	83
6295	67667	I have been in contact with him, and he is familiar with the issues.	I have been in contact with him, and he is familiar with the issues.	3219425	1472001136746	1472001136838	s	83
6295	67667	I have been in contact with him, and he is familiar with the issues.	I have been in contact with him, and he is familiar with the issues.	3219428	1472001136904	1472001137008	u	85
6295	67667	I have been in contact with him, and he is familiar with the issues.	I have been in contact with him, and he is familiar with the issues.	3219433	1472001136990	1472001137123	e	69
6295	67667	I have been in contact with him, and he is familiar with the issues.	I have been in contact with him, and he is familiar with the issues.	3219435	1472001137116	1472001137244	s	83
6295	67667	I have been in contact with him, and he is familiar with the issues.	I have been in contact with him, and he is familiar with the issues.	3219437	1472001137311	1472001137403	.	190
6295	67675	A bit behind on my emails.	A bit behind on my emails.	3219507	1472001139018	1472001139280	SHIFT	16
6295	67675	A bit behind on my emails.	A bit behind on my emails.	3219510	1472001139193	1472001139316	A	65
6295	67675	A bit behind on my emails.	A bit behind on my emails.	3219511	1472001139325	1472001139416	 	32
6295	67675	A bit behind on my emails.	A bit behind on my emails.	3219514	1472001139490	1472001139562	b	66
6295	67675	A bit behind on my emails.	A bit behind on my emails.	3219517	1472001139625	1472001139693	i	73
6295	67675	A bit behind on my emails.	A bit behind on my emails.	3219520	1472001139738	1472001139846	t	84
6295	67675	A bit behind on my emails.	A bit behind on my emails.	3219547	1472001139822	1472001139901	 	32
6295	67675	A bit behind on my emails.	A bit behind on my emails.	3219550	1472001140198	1472001140288	b	66
6295	67675	A bit behind on my emails.	A bit behind on my emails.	3219553	1472001140400	1472001140500	e	69
6295	67675	A bit behind on my emails.	A bit behind on my emails.	3219556	1472001140668	1472001140764	h	72
6295	67675	A bit behind on my emails.	A bit behind on my emails.	3219560	1472001140868	1472001140931	i	73
6295	67675	A bit behind on my emails.	A bit behind on my emails.	3219564	1472001141021	1472001141103	n	78
6295	67675	A bit behind on my emails.	A bit behind on my emails.	3219581	1472001141101	1472001141176	d	68
6295	67675	A bit behind on my emails.	A bit behind on my emails.	3219583	1472001141173	1472001141269	 	32
6295	67675	A bit behind on my emails.	A bit behind on my emails.	3219585	1472001141430	1472001141505	o	79
6295	67675	A bit behind on my emails.	A bit behind on my emails.	3219587	1472001141561	1472001141644	n	78
6295	67675	A bit behind on my emails.	A bit behind on my emails.	3219588	1472001141637	1472001141700	 	32
6295	67675	A bit behind on my emails.	A bit behind on my emails.	3219589	1472001141761	1472001141828	m	77
6295	67675	A bit behind on my emails.	A bit behind on my emails.	3219604	1472001141930	1472001142017	y	89
6295	67675	A bit behind on my emails.	A bit behind on my emails.	3219607	1472001141986	1472001142089	 	32
6295	67675	A bit behind on my emails.	A bit behind on my emails.	3219609	1472001142106	1472001142201	e	69
6295	67675	A bit behind on my emails.	A bit behind on my emails.	3219610	1472001142225	1472001142312	m	77
6295	67675	A bit behind on my emails.	A bit behind on my emails.	3219611	1472001142325	1472001142450	a	65
6295	67675	A bit behind on my emails.	A bit behind on my emails.	3219620	1472001142432	1472001142512	i	73
6295	67675	A bit behind on my emails.	A bit behind on my emails.	3219622	1472001142563	1472001142659	l	76
6295	67675	A bit behind on my emails.	A bit behind on my emails.	3219624	1472001142652	1472001142756	s	83
6295	67675	A bit behind on my emails.	A bit behind on my emails.	3219626	1472001142740	1472001142843	.	190
6295	67678	I will fax the invoice to you today.	I will fax the invoice to you today.	3219694	1472001144520	1472001144684	SHIFT	16
6295	67678	I will fax the invoice to you today.	I will fax the invoice to you today.	3219695	1472001144621	1472001144748	I	73
6295	67678	I will fax the invoice to you today.	I will fax the invoice to you today.	3219697	1472001144705	1472001144828	 	32
6295	67678	I will fax the invoice to you today.	I will fax the invoice to you today.	3219699	1472001144792	1472001144924	w	87
6295	67678	I will fax the invoice to you today.	I will fax the invoice to you today.	3219703	1472001144908	1472001144968	i	73
6295	67678	I will fax the invoice to you today.	I will fax the invoice to you today.	3219706	1472001145045	1472001145112	l	76
6295	67678	I will fax the invoice to you today.	I will fax the invoice to you today.	3219713	1472001145169	1472001145273	l	76
6295	67678	I will fax the invoice to you today.	I will fax the invoice to you today.	3219714	1472001145278	1472001145402	 	32
6295	67678	I will fax the invoice to you today.	I will fax the invoice to you today.	3219715	1472001145350	1472001145443	f	70
6295	67678	I will fax the invoice to you today.	I will fax the invoice to you today.	3219716	1472001145442	1472001145529	a	65
6295	67678	I will fax the invoice to you today.	I will fax the invoice to you today.	3219718	1472001145679	1472001145796	x	88
6295	67678	I will fax the invoice to you today.	I will fax the invoice to you today.	3219731	1472001145833	1472001145928	 	32
6295	67678	I will fax the invoice to you today.	I will fax the invoice to you today.	3219732	1472001145940	1472001146008	t	84
6295	67678	I will fax the invoice to you today.	I will fax the invoice to you today.	3219733	1472001146057	1472001146127	h	72
6295	67678	I will fax the invoice to you today.	I will fax the invoice to you today.	3219734	1472001146100	1472001146176	e	69
6295	67678	I will fax the invoice to you today.	I will fax the invoice to you today.	3219735	1472001146188	1472001146295	 	32
6295	67678	I will fax the invoice to you today.	I will fax the invoice to you today.	3219743	1472001146260	1472001146339	i	73
6295	67678	I will fax the invoice to you today.	I will fax the invoice to you today.	3219745	1472001146389	1472001146480	n	78
6295	67678	I will fax the invoice to you today.	I will fax the invoice to you today.	3219747	1472001146477	1472001146580	v	86
6295	67678	I will fax the invoice to you today.	I will fax the invoice to you today.	3219749	1472001146597	1472001146707	o	79
6295	67678	I will fax the invoice to you today.	I will fax the invoice to you today.	3219756	1472001146641	1472001146724	i	73
6295	67678	I will fax the invoice to you today.	I will fax the invoice to you today.	3219758	1472001146705	1472001146812	c	67
6295	67678	I will fax the invoice to you today.	I will fax the invoice to you today.	3219760	1472001146797	1472001146900	e	69
6295	67678	I will fax the invoice to you today.	I will fax the invoice to you today.	3219762	1472001146901	1472001146988	 	32
6295	67678	I will fax the invoice to you today.	I will fax the invoice to you today.	3219764	1472001147011	1472001147097	t	84
6295	67678	I will fax the invoice to you today.	I will fax the invoice to you today.	3219767	1472001147070	1472001147161	o	79
6295	67678	I will fax the invoice to you today.	I will fax the invoice to you today.	3219773	1472001147146	1472001147293	 	32
6295	67678	I will fax the invoice to you today.	I will fax the invoice to you today.	3219775	1472001147226	1472001147305	y	89
6295	67678	I will fax the invoice to you today.	I will fax the invoice to you today.	3219779	1472001147314	1472001147445	o	79
6295	67678	I will fax the invoice to you today.	I will fax the invoice to you today.	3219782	1472001147406	1472001147553	u	85
6295	67678	I will fax the invoice to you today.	I will fax the invoice to you today.	3219786	1472001147486	1472001147593	 	32
6295	67678	I will fax the invoice to you today.	I will fax the invoice to you today.	3219805	1472001147589	1472001147685	t	84
6295	67678	I will fax the invoice to you today.	I will fax the invoice to you today.	3219806	1472001147658	1472001147777	o	79
6295	67678	I will fax the invoice to you today.	I will fax the invoice to you today.	3219807	1472001147750	1472001147882	d	68
6295	67678	I will fax the invoice to you today.	I will fax the invoice to you today.	3219809	1472001147855	1472001147989	a	65
6295	67678	I will fax the invoice to you today.	I will fax the invoice to you today.	3219812	1472001147962	1472001148053	y	89
6295	67678	I will fax the invoice to you today.	I will fax the invoice to you today.	3219815	1472001148183	1472001148282	.	190
6295	67683	She is a Baylor graduate and is very nice.	She is a Baylor graduate and is very nice.	3219873	1472001149687	1472001149872	SHIFT	16
6295	67683	She is a Baylor graduate and is very nice.	She is a Baylor graduate and is very nice.	3219875	1472001149813	1472001149928	S	83
6295	67683	She is a Baylor graduate and is very nice.	She is a Baylor graduate and is very nice.	3219877	1472001149897	1472001149984	h	72
6295	67683	She is a Baylor graduate and is very nice.	She is a Baylor graduate and is very nice.	3219879	1472001150001	1472001150093	e	69
6295	67683	She is a Baylor graduate and is very nice.	She is a Baylor graduate and is very nice.	3219881	1472001150094	1472001150213	 	32
6295	67683	She is a Baylor graduate and is very nice.	She is a Baylor graduate and is very nice.	3219892	1472001150182	1472001150277	i	73
6295	67683	She is a Baylor graduate and is very nice.	She is a Baylor graduate and is very nice.	3219895	1472001150257	1472001150378	s	83
6295	67683	She is a Baylor graduate and is very nice.	She is a Baylor graduate and is very nice.	3219897	1472001150374	1472001150473	 	32
6295	67683	She is a Baylor graduate and is very nice.	She is a Baylor graduate and is very nice.	3219899	1472001150458	1472001150561	a	65
6295	67683	She is a Baylor graduate and is very nice.	She is a Baylor graduate and is very nice.	3219903	1472001150590	1472001150685	 	32
6295	67683	She is a Baylor graduate and is very nice.	She is a Baylor graduate and is very nice.	3219908	1472001150681	1472001150829	SHIFT	16
6295	67683	She is a Baylor graduate and is very nice.	She is a Baylor graduate and is very nice.	3219938	1472001150774	1472001150885	B	66
6295	67683	She is a Baylor graduate and is very nice.	She is a Baylor graduate and is very nice.	3219942	1472001150938	1472001151045	a	65
6295	67683	She is a Baylor graduate and is very nice.	She is a Baylor graduate and is very nice.	3219944	1472001151234	1472001151329	y	89
6295	67683	She is a Baylor graduate and is very nice.	She is a Baylor graduate and is very nice.	3219948	1472001151417	1472001151517	l	76
6295	67683	She is a Baylor graduate and is very nice.	She is a Baylor graduate and is very nice.	3219954	1472001151594	1472001151657	o	79
6295	67683	She is a Baylor graduate and is very nice.	She is a Baylor graduate and is very nice.	3219959	1472001151675	1472001151804	r	82
6295	67683	She is a Baylor graduate and is very nice.	She is a Baylor graduate and is very nice.	3219988	1472001151776	1472001151878	 	32
6295	67683	She is a Baylor graduate and is very nice.	She is a Baylor graduate and is very nice.	3219991	1472001152008	1472001152088	g	71
6295	67683	She is a Baylor graduate and is very nice.	She is a Baylor graduate and is very nice.	3219993	1472001152203	1472001152286	r	82
6295	67683	She is a Baylor graduate and is very nice.	She is a Baylor graduate and is very nice.	3219995	1472001152344	1472001152452	a	65
6295	67683	She is a Baylor graduate and is very nice.	She is a Baylor graduate and is very nice.	3219997	1472001152532	1472001152603	d	68
6295	67683	She is a Baylor graduate and is very nice.	She is a Baylor graduate and is very nice.	3219998	1472001152645	1472001152740	u	85
6295	67683	She is a Baylor graduate and is very nice.	She is a Baylor graduate and is very nice.	3220016	1472001152797	1472001152908	a	65
6295	67683	She is a Baylor graduate and is very nice.	She is a Baylor graduate and is very nice.	3220019	1472001153033	1472001153108	t	84
6295	67683	She is a Baylor graduate and is very nice.	She is a Baylor graduate and is very nice.	3220023	1472001153182	1472001153261	e	69
6295	67683	She is a Baylor graduate and is very nice.	She is a Baylor graduate and is very nice.	3220027	1472001153290	1472001153442	 	32
6295	67683	She is a Baylor graduate and is very nice.	She is a Baylor graduate and is very nice.	3220029	1472001153816	1472001153926	a	65
6295	67683	She is a Baylor graduate and is very nice.	She is a Baylor graduate and is very nice.	3220042	1472001153943	1472001154018	n	78
6295	67683	She is a Baylor graduate and is very nice.	She is a Baylor graduate and is very nice.	3220045	1472001154002	1472001154098	d	68
6295	67683	She is a Baylor graduate and is very nice.	She is a Baylor graduate and is very nice.	3220047	1472001154115	1472001154218	 	32
6295	67683	She is a Baylor graduate and is very nice.	She is a Baylor graduate and is very nice.	3220049	1472001154235	1472001154318	i	73
6295	67683	She is a Baylor graduate and is very nice.	She is a Baylor graduate and is very nice.	3220053	1472001154375	1472001154485	s	83
6295	67683	She is a Baylor graduate and is very nice.	She is a Baylor graduate and is very nice.	3220059	1472001154478	1472001154578	 	32
6295	67683	She is a Baylor graduate and is very nice.	She is a Baylor graduate and is very nice.	3220060	1472001154711	1472001154818	v	86
6295	67683	She is a Baylor graduate and is very nice.	She is a Baylor graduate and is very nice.	3220061	1472001154908	1472001155027	e	69
6295	67683	She is a Baylor graduate and is very nice.	She is a Baylor graduate and is very nice.	3220062	1472001155003	1472001155111	r	82
6295	67683	She is a Baylor graduate and is very nice.	She is a Baylor graduate and is very nice.	3220064	1472001155096	1472001155219	y	89
6295	67683	She is a Baylor graduate and is very nice.	She is a Baylor graduate and is very nice.	3220098	1472001155168	1472001155279	 	32
6295	67683	She is a Baylor graduate and is very nice.	She is a Baylor graduate and is very nice.	3220099	1472001155504	1472001155592	n	78
6295	67683	She is a Baylor graduate and is very nice.	She is a Baylor graduate and is very nice.	3220101	1472001155608	1472001155703	i	73
6295	67683	She is a Baylor graduate and is very nice.	She is a Baylor graduate and is very nice.	3220102	1472001155723	1472001155839	c	67
6295	67683	She is a Baylor graduate and is very nice.	She is a Baylor graduate and is very nice.	3220103	1472001155819	1472001155931	e	69
6295	67683	She is a Baylor graduate and is very nice.	She is a Baylor graduate and is very nice.	3220104	1472001155961	1472001156034	.	190
6295	67689	Best of luck and stay in touch.	Best of luck and stay in touch.	3220192	1472001158197	1472001158497	SHIFT	16
6295	67689	Best of luck and stay in touch.	Best of luck and stay in touch.	3220191	1472001158426	1472001158489	B	66
6295	67689	Best of luck and stay in touch.	Best of luck and stay in touch.	3220193	1472001158562	1472001158709	e	69
6295	67689	Best of luck and stay in touch.	Best of luck and stay in touch.	3220194	1472001158698	1472001158820	s	83
6295	67689	Best of luck and stay in touch.	Best of luck and stay in touch.	3220195	1472001158814	1472001158905	t	84
6295	67689	Best of luck and stay in touch.	Best of luck and stay in touch.	3220196	1472001158942	1472001159037	 	32
6295	67689	Best of luck and stay in touch.	Best of luck and stay in touch.	3220202	1472001159127	1472001159218	o	79
6295	67689	Best of luck and stay in touch.	Best of luck and stay in touch.	3220203	1472001159245	1472001159344	f	70
6295	67689	Best of luck and stay in touch.	Best of luck and stay in touch.	3220205	1472001159329	1472001159412	 	32
6295	67689	Best of luck and stay in touch.	Best of luck and stay in touch.	3220207	1472001159476	1472001159608	l	76
6295	67689	Best of luck and stay in touch.	Best of luck and stay in touch.	3220209	1472001159621	1472001159717	u	85
6295	67689	Best of luck and stay in touch.	Best of luck and stay in touch.	3220230	1472001159748	1472001159820	c	67
6295	67689	Best of luck and stay in touch.	Best of luck and stay in touch.	3220232	1472001159853	1472001159956	k	75
6295	67689	Best of luck and stay in touch.	Best of luck and stay in touch.	3220235	1472001159965	1472001160071	 	32
6295	67689	Best of luck and stay in touch.	Best of luck and stay in touch.	3220237	1472001160053	1472001160165	a	65
6295	67689	Best of luck and stay in touch.	Best of luck and stay in touch.	3220241	1472001160178	1472001160265	n	78
6295	67689	Best of luck and stay in touch.	Best of luck and stay in touch.	3220257	1472001160234	1472001160320	d	68
6295	67689	Best of luck and stay in touch.	Best of luck and stay in touch.	3220260	1472001160305	1472001160410	 	32
6295	67689	Best of luck and stay in touch.	Best of luck and stay in touch.	3220264	1472001160406	1472001160521	s	83
6295	67689	Best of luck and stay in touch.	Best of luck and stay in touch.	3220266	1472001160543	1472001160626	t	84
6295	67689	Best of luck and stay in touch.	Best of luck and stay in touch.	3220268	1472001160639	1472001160778	a	65
6295	67689	Best of luck and stay in touch.	Best of luck and stay in touch.	3220298	1472001160767	1472001160846	t	84
6295	67689	Best of luck and stay in touch.	Best of luck and stay in touch.	3220300	1472001161098	1472001161162	BKSP	8
6295	67689	Best of luck and stay in touch.	Best of luck and stay in touch.	3220303	1472001161265	1472001161385	y	89
6295	67689	Best of luck and stay in touch.	Best of luck and stay in touch.	3220306	1472001161357	1472001161476	 	32
6295	67689	Best of luck and stay in touch.	Best of luck and stay in touch.	3220310	1472001161574	1472001161641	i	73
6295	67689	Best of luck and stay in touch.	Best of luck and stay in touch.	3220314	1472001161719	1472001161830	n	78
6295	67689	Best of luck and stay in touch.	Best of luck and stay in touch.	3220331	1472001161824	1472001161899	 	32
6295	67689	Best of luck and stay in touch.	Best of luck and stay in touch.	3220333	1472001161920	1472001162027	t	84
6295	67689	Best of luck and stay in touch.	Best of luck and stay in touch.	3220336	1472001162020	1472001162144	o	79
6295	67689	Best of luck and stay in touch.	Best of luck and stay in touch.	3220342	1472001162133	1472001162204	u	85
6295	67689	Best of luck and stay in touch.	Best of luck and stay in touch.	3220346	1472001162569	1472001162656	c	67
6295	67689	Best of luck and stay in touch.	Best of luck and stay in touch.	3220351	1472001162684	1472001162755	h	72
6295	67689	Best of luck and stay in touch.	Best of luck and stay in touch.	3220361	1472001163089	1472001163180	.	190
6295	67693	Neil has been asking around.	Neil has been asking around.	3220456	1472001165065	1472001165229	SHIFT	16
6295	67693	Neil has been asking around.	Neil has been asking around.	3220457	1472001165206	1472001165288	N	78
6295	67693	Neil has been asking around.	Neil has been asking around.	3220458	1472001165278	1472001165393	e	69
6295	67693	Neil has been asking around.	Neil has been asking around.	3220459	1472001165428	1472001165516	i	73
6295	67693	Neil has been asking around.	Neil has been asking around.	3220460	1472001165591	1472001165713	l	76
6295	67693	Neil has been asking around.	Neil has been asking around.	3220480	1472001165707	1472001165798	 	32
6295	67693	Neil has been asking around.	Neil has been asking around.	3220483	1472001165870	1472001165988	h	72
6295	67693	Neil has been asking around.	Neil has been asking around.	3220484	1472001165967	1472001166098	a	65
6295	67693	Neil has been asking around.	Neil has been asking around.	3220485	1472001166059	1472001166190	s	83
6295	67693	Neil has been asking around.	Neil has been asking around.	3220486	1472001166159	1472001166266	 	32
6295	67693	Neil has been asking around.	Neil has been asking around.	3220493	1472001166254	1472001166354	b	66
6295	67693	Neil has been asking around.	Neil has been asking around.	3220494	1472001166367	1472001166434	e	69
6295	67693	Neil has been asking around.	Neil has been asking around.	3220495	1472001166521	1472001166601	e	69
6295	67693	Neil has been asking around.	Neil has been asking around.	3220496	1472001166635	1472001166763	n	78
6295	67693	Neil has been asking around.	Neil has been asking around.	3220497	1472001166740	1472001166823	 	32
6295	67693	Neil has been asking around.	Neil has been asking around.	3220522	1472001166808	1472001166959	a	65
6295	67693	Neil has been asking around.	Neil has been asking around.	3220527	1472001166923	1472001167055	s	83
6295	67693	Neil has been asking around.	Neil has been asking around.	3220531	1472001167023	1472001167087	k	75
6295	67693	Neil has been asking around.	Neil has been asking around.	3220535	1472001167155	1472001167211	i	73
6295	67693	Neil has been asking around.	Neil has been asking around.	3220540	1472001167269	1472001167381	n	78
6295	67693	Neil has been asking around.	Neil has been asking around.	3220547	1472001167334	1472001167424	g	71
6295	67693	Neil has been asking around.	Neil has been asking around.	3220548	1472001167409	1472001167517	 	32
6295	67693	Neil has been asking around.	Neil has been asking around.	3220549	1472001167482	1472001167624	a	65
6295	67693	Neil has been asking around.	Neil has been asking around.	3220550	1472001167593	1472001167697	r	82
6295	67693	Neil has been asking around.	Neil has been asking around.	3220551	1472001167647	1472001167757	o	79
6295	67693	Neil has been asking around.	Neil has been asking around.	3220558	1472001167734	1472001167792	u	85
6295	67693	Neil has been asking around.	Neil has been asking around.	3220560	1472001167874	1472001167966	n	78
6295	67693	Neil has been asking around.	Neil has been asking around.	3220563	1472001167935	1472001168038	d	68
6295	67693	Neil has been asking around.	Neil has been asking around.	3220567	1472001168077	1472001168125	.	190
6295	67699	Scott is out most of this week on vacation and I'm out next week.	Scott is out most of this week on vacation and I"m out next week.	3220668	1472001170121	1472001170388	SHIFT	16
6295	67699	Scott is out most of this week on vacation and I'm out next week.	Scott is out most of this week on vacation and I"m out next week.	3220669	1472001170301	1472001170449	S	83
6295	67699	Scott is out most of this week on vacation and I'm out next week.	Scott is out most of this week on vacation and I"m out next week.	3220670	1472001170474	1472001170582	c	67
6295	67699	Scott is out most of this week on vacation and I'm out next week.	Scott is out most of this week on vacation and I"m out next week.	3220671	1472001170601	1472001170708	o	79
6295	67699	Scott is out most of this week on vacation and I'm out next week.	Scott is out most of this week on vacation and I"m out next week.	3220672	1472001170747	1472001170802	t	84
6295	67699	Scott is out most of this week on vacation and I'm out next week.	Scott is out most of this week on vacation and I"m out next week.	3220674	1472001170899	1472001170990	t	84
6295	67699	Scott is out most of this week on vacation and I'm out next week.	Scott is out most of this week on vacation and I"m out next week.	3220696	1472001171062	1472001171166	 	32
6295	67699	Scott is out most of this week on vacation and I'm out next week.	Scott is out most of this week on vacation and I"m out next week.	3220699	1472001171182	1472001171266	i	73
6295	67699	Scott is out most of this week on vacation and I'm out next week.	Scott is out most of this week on vacation and I"m out next week.	3220705	1472001171282	1472001171397	s	83
6295	67699	Scott is out most of this week on vacation and I'm out next week.	Scott is out most of this week on vacation and I"m out next week.	3220709	1472001171374	1472001171469	 	32
6295	67699	Scott is out most of this week on vacation and I'm out next week.	Scott is out most of this week on vacation and I"m out next week.	3220711	1472001171565	1472001171689	o	79
6295	67699	Scott is out most of this week on vacation and I'm out next week.	Scott is out most of this week on vacation and I"m out next week.	3220736	1472001171661	1472001171762	u	85
6295	67699	Scott is out most of this week on vacation and I'm out next week.	Scott is out most of this week on vacation and I"m out next week.	3220737	1472001171760	1472001171856	t	84
6295	67699	Scott is out most of this week on vacation and I'm out next week.	Scott is out most of this week on vacation and I"m out next week.	3220738	1472001171849	1472001171961	 	32
6295	67699	Scott is out most of this week on vacation and I'm out next week.	Scott is out most of this week on vacation and I"m out next week.	3220739	1472001172049	1472001172145	m	77
6295	67699	Scott is out most of this week on vacation and I'm out next week.	Scott is out most of this week on vacation and I"m out next week.	3220740	1472001172129	1472001172220	o	79
6295	67699	Scott is out most of this week on vacation and I'm out next week.	Scott is out most of this week on vacation and I"m out next week.	3220742	1472001172237	1472001172356	s	83
6295	67699	Scott is out most of this week on vacation and I'm out next week.	Scott is out most of this week on vacation and I"m out next week.	3220759	1472001172337	1472001172437	t	84
6295	67699	Scott is out most of this week on vacation and I'm out next week.	Scott is out most of this week on vacation and I"m out next week.	3220762	1472001172397	1472001172493	 	32
6295	67699	Scott is out most of this week on vacation and I'm out next week.	Scott is out most of this week on vacation and I"m out next week.	3220765	1472001172477	1472001172577	o	79
6295	67699	Scott is out most of this week on vacation and I'm out next week.	Scott is out most of this week on vacation and I"m out next week.	3220769	1472001172573	1472001172689	f	70
6295	67699	Scott is out most of this week on vacation and I'm out next week.	Scott is out most of this week on vacation and I"m out next week.	3220772	1472001172653	1472001172753	 	32
6295	67699	Scott is out most of this week on vacation and I'm out next week.	Scott is out most of this week on vacation and I"m out next week.	3220777	1472001172785	1472001172877	t	84
6295	67699	Scott is out most of this week on vacation and I'm out next week.	Scott is out most of this week on vacation and I"m out next week.	3220792	1472001172809	1472001172921	h	72
6295	67699	Scott is out most of this week on vacation and I'm out next week.	Scott is out most of this week on vacation and I"m out next week.	3220794	1472001172889	1472001172969	i	73
6295	67699	Scott is out most of this week on vacation and I'm out next week.	Scott is out most of this week on vacation and I"m out next week.	3220796	1472001172977	1472001173093	s	83
6295	67699	Scott is out most of this week on vacation and I'm out next week.	Scott is out most of this week on vacation and I"m out next week.	3220797	1472001173082	1472001173169	 	32
6295	67699	Scott is out most of this week on vacation and I'm out next week.	Scott is out most of this week on vacation and I"m out next week.	3220798	1472001173238	1472001173361	w	87
6295	67699	Scott is out most of this week on vacation and I'm out next week.	Scott is out most of this week on vacation and I"m out next week.	3220836	1472001173346	1472001173450	e	69
6295	67699	Scott is out most of this week on vacation and I'm out next week.	Scott is out most of this week on vacation and I"m out next week.	3220839	1472001173534	1472001173634	e	69
6295	67699	Scott is out most of this week on vacation and I'm out next week.	Scott is out most of this week on vacation and I"m out next week.	3220842	1472001173663	1472001173770	k	75
6295	67699	Scott is out most of this week on vacation and I'm out next week.	Scott is out most of this week on vacation and I"m out next week.	3220845	1472001173783	1472001173919	n	78
6295	67699	Scott is out most of this week on vacation and I'm out next week.	Scott is out most of this week on vacation and I"m out next week.	3220847	1472001173978	1472001174078	 	32
6295	67699	Scott is out most of this week on vacation and I'm out next week.	Scott is out most of this week on vacation and I"m out next week.	3220848	1472001174428	1472001174484	BKSP	8
6295	67699	Scott is out most of this week on vacation and I'm out next week.	Scott is out most of this week on vacation and I"m out next week.	3220850	1472001174549	1472001174629	BKSP	8
6295	67699	Scott is out most of this week on vacation and I'm out next week.	Scott is out most of this week on vacation and I"m out next week.	3220852	1472001174657	1472001174789	 	32
6295	67699	Scott is out most of this week on vacation and I'm out next week.	Scott is out most of this week on vacation and I"m out next week.	3220884	1472001174764	1472001174879	o	79
6295	67699	Scott is out most of this week on vacation and I'm out next week.	Scott is out most of this week on vacation and I"m out next week.	3220886	1472001174940	1472001175076	n	78
6295	67699	Scott is out most of this week on vacation and I'm out next week.	Scott is out most of this week on vacation and I"m out next week.	3220887	1472001175028	1472001175132	 	32
6295	67699	Scott is out most of this week on vacation and I'm out next week.	Scott is out most of this week on vacation and I"m out next week.	3220889	1472001175305	1472001175397	v	86
6295	67699	Scott is out most of this week on vacation and I'm out next week.	Scott is out most of this week on vacation and I"m out next week.	3220891	1472001175462	1472001175558	a	65
6295	67699	Scott is out most of this week on vacation and I'm out next week.	Scott is out most of this week on vacation and I"m out next week.	3220893	1472001175612	1472001175708	c	67
6295	67699	Scott is out most of this week on vacation and I'm out next week.	Scott is out most of this week on vacation and I"m out next week.	3220909	1472001175902	1472001176014	t	84
6295	67699	Scott is out most of this week on vacation and I'm out next week.	Scott is out most of this week on vacation and I"m out next week.	3220911	1472001176007	1472001176180	i	73
6295	67699	Scott is out most of this week on vacation and I'm out next week.	Scott is out most of this week on vacation and I"m out next week.	3220913	1472001176086	1472001176205	o	79
6295	67699	Scott is out most of this week on vacation and I'm out next week.	Scott is out most of this week on vacation and I"m out next week.	3220915	1472001176186	1472001176297	n	78
6295	67699	Scott is out most of this week on vacation and I'm out next week.	Scott is out most of this week on vacation and I"m out next week.	3220918	1472001176318	1472001176380	 	32
6295	67699	Scott is out most of this week on vacation and I'm out next week.	Scott is out most of this week on vacation and I"m out next week.	3220990	1472001176793	1472001176853	BKSP	8
6295	67699	Scott is out most of this week on vacation and I'm out next week.	Scott is out most of this week on vacation and I"m out next week.	3220995	1472001176929	1472001176996	BKSP	8
6295	67699	Scott is out most of this week on vacation and I'm out next week.	Scott is out most of this week on vacation and I"m out next week.	3221000	1472001177065	1472001177133	BKSP	8
6295	67699	Scott is out most of this week on vacation and I'm out next week.	Scott is out most of this week on vacation and I"m out next week.	3221005	1472001177215	1472001177302	BKSP	8
6295	67699	Scott is out most of this week on vacation and I'm out next week.	Scott is out most of this week on vacation and I"m out next week.	3221010	1472001178031	1472001178095	BKSP	8
6295	67699	Scott is out most of this week on vacation and I'm out next week.	Scott is out most of this week on vacation and I"m out next week.	3221015	1472001178211	1472001178335	a	65
6295	67699	Scott is out most of this week on vacation and I'm out next week.	Scott is out most of this week on vacation and I"m out next week.	3221018	1472001178450	1472001178528	t	84
6295	67699	Scott is out most of this week on vacation and I'm out next week.	Scott is out most of this week on vacation and I"m out next week.	3221020	1472001178526	1472001178693	i	73
6295	67699	Scott is out most of this week on vacation and I'm out next week.	Scott is out most of this week on vacation and I"m out next week.	3221024	1472001178606	1472001178713	o	79
6295	67699	Scott is out most of this week on vacation and I'm out next week.	Scott is out most of this week on vacation and I"m out next week.	3221028	1472001178702	1472001178834	n	78
6295	67699	Scott is out most of this week on vacation and I'm out next week.	Scott is out most of this week on vacation and I"m out next week.	3221030	1472001178802	1472001178885	 	32
6295	67699	Scott is out most of this week on vacation and I'm out next week.	Scott is out most of this week on vacation and I"m out next week.	3221035	1472001178913	1472001179012	a	65
6295	67699	Scott is out most of this week on vacation and I'm out next week.	Scott is out most of this week on vacation and I"m out next week.	3221040	1472001179021	1472001179124	n	78
6295	67699	Scott is out most of this week on vacation and I'm out next week.	Scott is out most of this week on vacation and I"m out next week.	3221044	1472001179113	1472001179216	d	68
6295	67699	Scott is out most of this week on vacation and I'm out next week.	Scott is out most of this week on vacation and I"m out next week.	3221057	1472001179153	1472001179256	 	32
6295	67699	Scott is out most of this week on vacation and I'm out next week.	Scott is out most of this week on vacation and I"m out next week.	3221060	1472001179293	1472001179437	I	16
6295	67699	Scott is out most of this week on vacation and I'm out next week.	Scott is out most of this week on vacation and I"m out next week.	3221063	1472001179429	1472001179506	"	222
6295	67699	Scott is out most of this week on vacation and I'm out next week.	Scott is out most of this week on vacation and I"m out next week.	3221065	1472001179570	1472001179690	m	77
6295	67699	Scott is out most of this week on vacation and I'm out next week.	Scott is out most of this week on vacation and I"m out next week.	3221067	1472001179670	1472001179764	 	32
6295	67699	Scott is out most of this week on vacation and I'm out next week.	Scott is out most of this week on vacation and I"m out next week.	3221077	1472001179760	1472001179880	o	79
6295	67699	Scott is out most of this week on vacation and I'm out next week.	Scott is out most of this week on vacation and I"m out next week.	3221078	1472001179865	1472001179956	u	85
6295	67699	Scott is out most of this week on vacation and I'm out next week.	Scott is out most of this week on vacation and I"m out next week.	3221080	1472001179933	1472001180028	t	84
6295	67699	Scott is out most of this week on vacation and I'm out next week.	Scott is out most of this week on vacation and I"m out next week.	3221082	1472001180004	1472001180071	 	32
6295	67699	Scott is out most of this week on vacation and I'm out next week.	Scott is out most of this week on vacation and I"m out next week.	3221084	1472001180152	1472001180245	n	78
6295	67699	Scott is out most of this week on vacation and I'm out next week.	Scott is out most of this week on vacation and I"m out next week.	3221102	1472001180189	1472001180269	e	69
6295	67699	Scott is out most of this week on vacation and I'm out next week.	Scott is out most of this week on vacation and I"m out next week.	3221103	1472001180353	1472001180455	x	88
6295	67699	Scott is out most of this week on vacation and I'm out next week.	Scott is out most of this week on vacation and I"m out next week.	3221104	1472001180528	1472001180631	t	84
6295	67699	Scott is out most of this week on vacation and I'm out next week.	Scott is out most of this week on vacation and I"m out next week.	3221105	1472001180652	1472001180759	 	32
6295	67699	Scott is out most of this week on vacation and I'm out next week.	Scott is out most of this week on vacation and I"m out next week.	3221106	1472001180748	1472001180852	w	87
6295	67699	Scott is out most of this week on vacation and I'm out next week.	Scott is out most of this week on vacation and I"m out next week.	3221107	1472001180936	1472001180998	e	69
6295	67699	Scott is out most of this week on vacation and I'm out next week.	Scott is out most of this week on vacation and I"m out next week.	3221175	1472001181082	1472001181169	e	69
6295	67699	Scott is out most of this week on vacation and I'm out next week.	Scott is out most of this week on vacation and I"m out next week.	3221180	1472001181130	1472001181265	k	75
6295	67699	Scott is out most of this week on vacation and I'm out next week.	Scott is out most of this week on vacation and I"m out next week.	3221182	1472001182222	1472001182321	.	190
6295	67709	I'll probably page you.	I'll probably page you.	3221278	1472001184637	1472001184806	SHIFT	16
6295	67709	I'll probably page you.	I'll probably page you.	3221281	1472001184742	1472001184829	I	73
6295	67709	I'll probably page you.	I'll probably page you.	3221284	1472001184881	1472001184988	'	222
6295	67709	I'll probably page you.	I'll probably page you.	3221286	1472001185061	1472001185124	l	76
6295	67709	I'll probably page you.	I'll probably page you.	3221289	1472001185199	1472001185314	l	76
6295	67709	I'll probably page you.	I'll probably page you.	3221316	1472001185299	1472001185426	 	32
6295	67709	I'll probably page you.	I'll probably page you.	3221319	1472001185415	1472001185523	p	80
6295	67709	I'll probably page you.	I'll probably page you.	3221322	1472001185554	1472001185645	r	82
6295	67709	I'll probably page you.	I'll probably page you.	3221323	1472001185622	1472001185693	o	79
6295	67709	I'll probably page you.	I'll probably page you.	3221324	1472001185783	1472001185862	b	66
6295	67709	I'll probably page you.	I'll probably page you.	3221325	1472001185903	1472001186002	a	65
6295	67709	I'll probably page you.	I'll probably page you.	3221332	1472001185983	1472001186054	b	66
6295	67709	I'll probably page you.	I'll probably page you.	3221333	1472001186128	1472001186223	l	76
6295	67709	I'll probably page you.	I'll probably page you.	3221334	1472001186266	1472001186389	y	89
6295	67709	I'll probably page you.	I'll probably page you.	3221335	1472001186330	1472001186453	 	32
6295	67709	I'll probably page you.	I'll probably page you.	3221336	1472001186496	1472001186624	p	80
6295	67709	I'll probably page you.	I'll probably page you.	3221337	1472001186641	1472001186736	a	65
6295	67709	I'll probably page you.	I'll probably page you.	3221345	1472001186741	1472001186820	g	71
6295	67709	I'll probably page you.	I'll probably page you.	3221348	1472001186861	1472001186948	e	69
6295	67709	I'll probably page you.	I'll probably page you.	3221350	1472001186953	1472001187089	 	32
6295	67709	I'll probably page you.	I'll probably page you.	3221352	1472001187072	1472001187128	y	89
6295	67709	I'll probably page you.	I'll probably page you.	3221354	1472001187147	1472001187255	o	79
6295	67709	I'll probably page you.	I'll probably page you.	3221356	1472001187243	1472001187310	u	85
6295	67709	I'll probably page you.	I'll probably page you.	3221358	1472001187425	1472001187501	.	190
6295	67715	Will follow up today.	Will follow up today.	3221420	1472001189344	1472001189532	SHIFT	16
6295	67715	Will follow up today.	Will follow up today.	3221422	1472001189493	1472001189624	W	87
6295	67715	Will follow up today.	Will follow up today.	3221425	1472001189569	1472001189648	i	73
6295	67715	Will follow up today.	Will follow up today.	3221429	1472001189732	1472001189791	l	76
6295	67715	Will follow up today.	Will follow up today.	3221433	1472001189869	1472001189968	l	76
6295	67715	Will follow up today.	Will follow up today.	3221437	1472001189973	1472001190072	 	32
6295	67715	Will follow up today.	Will follow up today.	3221474	1472001190045	1472001190157	f	70
6295	67715	Will follow up today.	Will follow up today.	3221476	1472001190129	1472001190188	o	79
6295	67715	Will follow up today.	Will follow up today.	3221478	1472001190300	1472001190341	l	76
6295	67715	Will follow up today.	Will follow up today.	3221480	1472001190412	1472001190500	l	76
6295	67715	Will follow up today.	Will follow up today.	3221482	1472001190603	1472001190678	o	79
6295	67715	Will follow up today.	Will follow up today.	3221483	1472001190700	1472001190795	w	87
6295	67715	Will follow up today.	Will follow up today.	3221501	1472001191103	1472001191186	 	32
6295	67715	Will follow up today.	Will follow up today.	3221506	1472001191220	1472001191339	u	85
6295	67715	Will follow up today.	Will follow up today.	3221511	1472001191348	1472001191506	p	80
6295	67715	Will follow up today.	Will follow up today.	3221516	1472001191448	1472001191567	 	32
6295	67715	Will follow up today.	Will follow up today.	3221520	1472001191594	1472001191691	t	84
6295	67715	Will follow up today.	Will follow up today.	3221537	1472001191666	1472001191773	o	79
6295	67715	Will follow up today.	Will follow up today.	3221538	1472001191777	1472001191905	d	68
6295	67715	Will follow up today.	Will follow up today.	3221539	1472001191873	1472001192017	a	65
6295	67715	Will follow up today.	Will follow up today.	3221540	1472001191958	1472001192029	y	89
6295	67715	Will follow up today.	Will follow up today.	3221541	1472001192147	1472001192262	.	190
6295	67720	Board meeting running long.	Board meeting running long.	3221624	1472001194109	1472001194317	SHIFT	16
6295	67720	Board meeting running long.	Board meeting running long.	3221628	1472001194246	1472001194318	B	66
6295	67720	Board meeting running long.	Board meeting running long.	3221632	1472001194366	1472001194473	o	79
6295	67720	Board meeting running long.	Board meeting running long.	3221633	1472001194482	1472001194605	a	65
6295	67720	Board meeting running long.	Board meeting running long.	3221635	1472001194598	1472001194677	r	82
6295	67720	Board meeting running long.	Board meeting running long.	3221637	1472001194749	1472001194863	d	68
6295	67720	Board meeting running long.	Board meeting running long.	3221654	1472001194848	1472001194944	 	32
6295	67720	Board meeting running long.	Board meeting running long.	3221657	1472001194997	1472001195102	m	77
6295	67720	Board meeting running long.	Board meeting running long.	3221664	1472001195031	1472001195114	e	69
6295	67720	Board meeting running long.	Board meeting running long.	3221670	1472001195414	1472001195509	e	69
6295	67720	Board meeting running long.	Board meeting running long.	3221673	1472001195637	1472001195716	t	84
6295	67720	Board meeting running long.	Board meeting running long.	3221676	1472001195721	1472001195784	i	73
6295	67720	Board meeting running long.	Board meeting running long.	3221702	1472001195860	1472001195951	n	78
6295	67720	Board meeting running long.	Board meeting running long.	3221703	1472001195937	1472001196020	g	71
6295	67720	Board meeting running long.	Board meeting running long.	3221704	1472001196036	1472001196124	 	32
6295	67720	Board meeting running long.	Board meeting running long.	3221705	1472001196263	1472001196355	r	82
6295	67720	Board meeting running long.	Board meeting running long.	3221706	1472001196386	1472001196438	u	85
6295	67720	Board meeting running long.	Board meeting running long.	3221712	1472001196552	1472001196608	n	78
6295	67720	Board meeting running long.	Board meeting running long.	3221713	1472001196672	1472001196763	n	78
6295	67720	Board meeting running long.	Board meeting running long.	3221714	1472001196768	1472001196847	i	73
6295	67720	Board meeting running long.	Board meeting running long.	3221726	1472001196919	1472001197025	g	78
6295	67720	Board meeting running long.	Board meeting running long.	3221730	1472001197003	1472001197110	 	32
6295	67720	Board meeting running long.	Board meeting running long.	3221732	1472001197099	1472001197178	l	76
6295	67720	Board meeting running long.	Board meeting running long.	3221737	1472001197258	1472001197313	o	79
6295	67720	Board meeting running long.	Board meeting running long.	3221740	1472001197351	1472001197431	n	78
6295	67720	Board meeting running long.	Board meeting running long.	3221749	1472001197427	1472001197498	g	71
6295	67720	Board meeting running long.	Board meeting running long.	3221752	1472001197549	1472001197648	.	190
6295	67725	We want a little May madness of our own.	We want a little May madness of our own.	3221870	1472001199341	1472001199526	SHIFT	16
6295	67725	We want a little May madness of our own.	We want a little May madness of our own.	3221873	1472001199482	1472001199629	W	87
6295	67725	We want a little May madness of our own.	We want a little May madness of our own.	3221876	1472001199613	1472001199725	e	69
6295	67725	We want a little May madness of our own.	We want a little May madness of our own.	3221879	1472001199702	1472001199793	 	32
6295	67725	We want a little May madness of our own.	We want a little May madness of our own.	3221882	1472001199858	1472001200026	w	87
6295	67725	We want a little May madness of our own.	We want a little May madness of our own.	3221887	1472001200368	1472001200478	a	65
6295	67725	We want a little May madness of our own.	We want a little May madness of our own.	3221905	1472001200509	1472001200584	n	78
6295	67725	We want a little May madness of our own.	We want a little May madness of our own.	3221907	1472001200605	1472001200708	t	84
6295	67725	We want a little May madness of our own.	We want a little May madness of our own.	3221909	1472001200720	1472001200804	 	32
6295	67725	We want a little May madness of our own.	We want a little May madness of our own.	3221912	1472001200841	1472001200973	a	65
6295	67725	We want a little May madness of our own.	We want a little May madness of our own.	3221917	1472001200942	1472001201055	 	32
6295	67725	We want a little May madness of our own.	We want a little May madness of our own.	3221918	1472001201061	1472001201204	l	76
6295	67725	We want a little May madness of our own.	We want a little May madness of our own.	3221919	1472001201165	1472001201257	i	73
6295	67725	We want a little May madness of our own.	We want a little May madness of our own.	3221920	1472001201246	1472001201281	t	84
6295	67725	We want a little May madness of our own.	We want a little May madness of our own.	3221922	1472001201375	1472001201431	t	84
6295	67725	We want a little May madness of our own.	We want a little May madness of our own.	3221924	1472001201490	1472001201590	l	76
6295	67725	We want a little May madness of our own.	We want a little May madness of our own.	3221942	1472001201559	1472001201675	e	69
6295	67725	We want a little May madness of our own.	We want a little May madness of our own.	3221944	1472001201654	1472001201758	 	32
6295	67725	We want a little May madness of our own.	We want a little May madness of our own.	3221947	1472001201738	1472001201895	SHIFT	16
6295	67725	We want a little May madness of our own.	We want a little May madness of our own.	3221950	1472001201867	1472001201970	M	77
6295	67725	We want a little May madness of our own.	We want a little May madness of our own.	3221954	1472001201990	1472001202113	a	65
6295	67725	We want a little May madness of our own.	We want a little May madness of our own.	3221955	1472001202125	1472001202245	y	89
6295	67725	We want a little May madness of our own.	We want a little May madness of our own.	3221979	1472001202190	1472001202305	 	32
6295	67725	We want a little May madness of our own.	We want a little May madness of our own.	3221981	1472001202432	1472001202540	m	77
6295	67725	We want a little May madness of our own.	We want a little May madness of our own.	3221985	1472001202500	1472001202612	a	65
6295	67725	We want a little May madness of our own.	We want a little May madness of our own.	3221987	1472001202669	1472001202776	d	68
6295	67725	We want a little May madness of our own.	We want a little May madness of our own.	3221990	1472001202896	1472001202999	n	78
6295	67725	We want a little May madness of our own.	We want a little May madness of our own.	3222017	1472001202997	1472001203083	e	69
6295	67725	We want a little May madness of our own.	We want a little May madness of our own.	3222018	1472001203598	1472001203601	 	83
6295	67725	We want a little May madness of our own.	We want a little May madness of our own.	3222020	1472001203599	1472001203603	o	32
6295	67725	We want a little May madness of our own.	We want a little May madness of our own.	3222022	1472001203623	1472001203705	f	70
6295	67725	We want a little May madness of our own.	We want a little May madness of our own.	3222039	1472001203691	1472001203847	 	32
6295	67725	We want a little May madness of our own.	We want a little May madness of our own.	3222041	1472001203848	1472001203943	o	79
6295	67725	We want a little May madness of our own.	We want a little May madness of our own.	3222044	1472001203916	1472001204054	u	85
6295	67725	We want a little May madness of our own.	We want a little May madness of our own.	3222047	1472001204051	1472001204090	r	82
6295	67725	We want a little May madness of our own.	We want a little May madness of our own.	3222050	1472001204106	1472001204260	 	32
6295	67725	We want a little May madness of our own.	We want a little May madness of our own.	3222053	1472001204262	1472001204449	o	79
6295	67725	We want a little May madness of our own.	We want a little May madness of our own.	3222087	1472001204447	1472001204476	u	85
6295	67725	We want a little May madness of our own.	We want a little May madness of our own.	3222088	1472001204784	1472001204831	BKSP	8
6295	67725	We want a little May madness of our own.	We want a little May madness of our own.	3222089	1472001204847	1472001204931	w	87
6295	67725	We want a little May madness of our own.	We want a little May madness of our own.	3222091	1472001205040	1472001205145	n	78
6295	67725	We want a little May madness of our own.	We want a little May madness of our own.	3222094	1472001205252	1472001205371	.	190
6295	67733	I have forwarded to Kelly.	I have forwarded to Kelly.	3222174	1472001207513	1472001208020	SHIFT	16
6295	67733	I have forwarded to Kelly.	I have forwarded to Kelly.	3222175	1472001207937	1472001208060	I	73
6295	67733	I have forwarded to Kelly.	I have forwarded to Kelly.	3222177	1472001208026	1472001208148	 	32
6295	67733	I have forwarded to Kelly.	I have forwarded to Kelly.	3222180	1472001208110	1472001208200	h	72
6295	67733	I have forwarded to Kelly.	I have forwarded to Kelly.	3222183	1472001208173	1472001208297	a	65
6295	67733	I have forwarded to Kelly.	I have forwarded to Kelly.	3222196	1472001208277	1472001208357	v	86
6295	67733	I have forwarded to Kelly.	I have forwarded to Kelly.	3222199	1472001208395	1472001208477	e	69
6295	67733	I have forwarded to Kelly.	I have forwarded to Kelly.	3222204	1472001208473	1472001208568	 	32
6295	67733	I have forwarded to Kelly.	I have forwarded to Kelly.	3222209	1472001208719	1472001208818	f	70
6295	67733	I have forwarded to Kelly.	I have forwarded to Kelly.	3222211	1472001208834	1472001208946	o	79
6295	67733	I have forwarded to Kelly.	I have forwarded to Kelly.	3222215	1472001208976	1472001209071	r	82
6295	67733	I have forwarded to Kelly.	I have forwarded to Kelly.	3222237	1472001209154	1472001209257	w	87
6295	67733	I have forwarded to Kelly.	I have forwarded to Kelly.	3222240	1472001209269	1472001209422	a	65
6295	67733	I have forwarded to Kelly.	I have forwarded to Kelly.	3222242	1472001209386	1472001209490	r	82
6295	67733	I have forwarded to Kelly.	I have forwarded to Kelly.	3222244	1472001209588	1472001209663	d	68
6295	67733	I have forwarded to Kelly.	I have forwarded to Kelly.	3222246	1472001209758	1472001209830	e	69
6295	67733	I have forwarded to Kelly.	I have forwarded to Kelly.	3222249	1472001209929	1472001210005	d	68
6295	67733	I have forwarded to Kelly.	I have forwarded to Kelly.	3222251	1472001210035	1472001210123	 	32
6295	67733	I have forwarded to Kelly.	I have forwarded to Kelly.	3222253	1472001210151	1472001210244	t	84
6295	67733	I have forwarded to Kelly.	I have forwarded to Kelly.	3222255	1472001210205	1472001210301	o	79
6295	67733	I have forwarded to Kelly.	I have forwarded to Kelly.	3222266	1472001210285	1472001210381	 	32
6295	67733	I have forwarded to Kelly.	I have forwarded to Kelly.	3222269	1472001210482	1472001210585	SHIFT	16
6295	67733	I have forwarded to Kelly.	I have forwarded to Kelly.	3222275	1472001210525	1472001210613	K	75
6295	67733	I have forwarded to Kelly.	I have forwarded to Kelly.	3222278	1472001210629	1472001210725	e	69
6295	67733	I have forwarded to Kelly.	I have forwarded to Kelly.	3222283	1472001210770	1472001210838	l	76
6295	67733	I have forwarded to Kelly.	I have forwarded to Kelly.	3222287	1472001210898	1472001210995	l	76
6295	67733	I have forwarded to Kelly.	I have forwarded to Kelly.	3222291	1472001211022	1472001211082	y	89
6295	67733	I have forwarded to Kelly.	I have forwarded to Kelly.	3222290	1472001211187	1472001211295	.	190
6295	67739	He is recovering from a left knee injury.	he is recovering from a left knee injury.	3222343	1472001213001	1472001213149	SHIFT	16
6295	67739	He is recovering from a left knee injury.	he is recovering from a left knee injury.	3222345	1472001213150	1472001213222	h	72
6295	67739	He is recovering from a left knee injury.	he is recovering from a left knee injury.	3222347	1472001213230	1472001213333	e	69
6295	67739	He is recovering from a left knee injury.	he is recovering from a left knee injury.	3222348	1472001213319	1472001213429	 	32
6295	67739	He is recovering from a left knee injury.	he is recovering from a left knee injury.	3222349	1472001213410	1472001213514	i	73
6295	67739	He is recovering from a left knee injury.	he is recovering from a left knee injury.	3222363	1472001213490	1472001213609	s	83
6295	67739	He is recovering from a left knee injury.	he is recovering from a left knee injury.	3222365	1472001213582	1472001213682	 	32
6295	67739	He is recovering from a left knee injury.	he is recovering from a left knee injury.	3222368	1472001213722	1472001213827	r	82
6295	67739	He is recovering from a left knee injury.	he is recovering from a left knee injury.	3222372	1472001213802	1472001213862	e	69
6295	67739	He is recovering from a left knee injury.	he is recovering from a left knee injury.	3222375	1472001213936	1472001214039	c	67
6295	67739	He is recovering from a left knee injury.	he is recovering from a left knee injury.	3222378	1472001214055	1472001214176	o	79
6295	67739	He is recovering from a left knee injury.	he is recovering from a left knee injury.	3222386	1472001214159	1472001214227	v	86
6295	67739	He is recovering from a left knee injury.	he is recovering from a left knee injury.	3222388	1472001214297	1472001214384	e	69
6295	67739	He is recovering from a left knee injury.	he is recovering from a left knee injury.	3222390	1472001214369	1472001214465	r	82
6295	67739	He is recovering from a left knee injury.	he is recovering from a left knee injury.	3222393	1472001214453	1472001214505	i	73
6295	67739	He is recovering from a left knee injury.	he is recovering from a left knee injury.	3222397	1472001214586	1472001214700	n	78
6295	67739	He is recovering from a left knee injury.	he is recovering from a left knee injury.	3222415	1472001214653	1472001214720	g	71
6295	67739	He is recovering from a left knee injury.	he is recovering from a left knee injury.	3222417	1472001214737	1472001214825	 	32
6295	67739	He is recovering from a left knee injury.	he is recovering from a left knee injury.	3222420	1472001214842	1472001214914	f	70
6295	67739	He is recovering from a left knee injury.	he is recovering from a left knee injury.	3222422	1472001215004	1472001215084	r	82
6295	67739	He is recovering from a left knee injury.	he is recovering from a left knee injury.	3222424	1472001215040	1472001215127	o	79
6295	67739	He is recovering from a left knee injury.	he is recovering from a left knee injury.	3222426	1472001215188	1472001215291	m	77
6295	67739	He is recovering from a left knee injury.	he is recovering from a left knee injury.	3222432	1472001215264	1472001215327	 	32
6295	67739	He is recovering from a left knee injury.	he is recovering from a left knee injury.	3222434	1472001215295	1472001215416	a	65
6295	67739	He is recovering from a left knee injury.	he is recovering from a left knee injury.	3222436	1472001215428	1472001215515	 	32
6295	67739	He is recovering from a left knee injury.	he is recovering from a left knee injury.	3222438	1472001215560	1472001215679	l	76
6295	67739	He is recovering from a left knee injury.	he is recovering from a left knee injury.	3222440	1472001215664	1472001215764	e	69
6295	67739	He is recovering from a left knee injury.	he is recovering from a left knee injury.	3222443	1472001215777	1472001215872	f	70
6295	67739	He is recovering from a left knee injury.	he is recovering from a left knee injury.	3222459	1472001215976	1472001216072	t	84
6295	67739	He is recovering from a left knee injury.	he is recovering from a left knee injury.	3222462	1472001216104	1472001216191	 	32
6295	67739	He is recovering from a left knee injury.	he is recovering from a left knee injury.	3222465	1472001216204	1472001216291	k	75
6295	67739	He is recovering from a left knee injury.	he is recovering from a left knee injury.	3222471	1472001216333	1472001216420	n	78
6295	67739	He is recovering from a left knee injury.	he is recovering from a left knee injury.	3222477	1472001216438	1472001216505	e	69
6295	67739	He is recovering from a left knee injury.	he is recovering from a left knee injury.	3222517	1472001216584	1472001216664	e	69
6295	67739	He is recovering from a left knee injury.	he is recovering from a left knee injury.	3222524	1472001216718	1472001216817	 	32
6295	67739	He is recovering from a left knee injury.	he is recovering from a left knee injury.	3222530	1472001216852	1472001216928	i	73
6295	67739	He is recovering from a left knee injury.	he is recovering from a left knee injury.	3222535	1472001217005	1472001217093	n	78
6295	67739	He is recovering from a left knee injury.	he is recovering from a left knee injury.	3222539	1472001217215	1472001217298	j	74
6295	67739	He is recovering from a left knee injury.	he is recovering from a left knee injury.	3222568	1472001217370	1472001217470	u	85
6295	67739	He is recovering from a left knee injury.	he is recovering from a left knee injury.	3222573	1472001217528	1472001217630	r	82
6295	67739	He is recovering from a left knee injury.	he is recovering from a left knee injury.	3222576	1472001217631	1472001217702	y	89
6295	67739	He is recovering from a left knee injury.	he is recovering from a left knee injury.	3222579	1472001217829	1472001217941	.	190
