PARTICIPANT_ID	TEST_SECTION_ID	SENTENCE	USER_INPUT	KEYSTROKE_ID	PRESS_TIME	RELEASE_TIME	LETTER	KEYCODE
6307	67824	I'll just have her call Tracy.	I'll just have to call her Tracy.	3226196	1472001356119	1472001356380	SHIFT	16
6307	67824	I'll just have her call Tracy.	I'll just have to call her Tracy.	3226195	1472001356288	1472001356372	I	73
6307	67824	I'll just have her call Tracy.	I'll just have to call her Tracy.	3226197	1472001356708	1472001356820	'	222
6307	67824	I'll just have her call Tracy.	I'll just have to call her Tracy.	3226198	1472001357016	1472001357108	l	76
6307	67824	I'll just have her call Tracy.	I'll just have to call her Tracy.	3226199	1472001357176	1472001357288	l	76
6307	67824	I'll just have her call Tracy.	I'll just have to call her Tracy.	3226200	1472001357348	1472001357456	 	32
6307	67824	I'll just have her call Tracy.	I'll just have to call her Tracy.	3226219	1472001358152	1472001358247	j	74
6307	67824	I'll just have her call Tracy.	I'll just have to call her Tracy.	3226221	1472001358303	1472001358400	u	85
6307	67824	I'll just have her call Tracy.	I'll just have to call her Tracy.	3226223	1472001358412	1472001358527	s	83
6307	67824	I'll just have her call Tracy.	I'll just have to call her Tracy.	3226225	1472001358516	1472001358632	t	84
6307	67824	I'll just have her call Tracy.	I'll just have to call her Tracy.	3226228	1472001358656	1472001358792	 	32
6307	67824	I'll just have her call Tracy.	I'll just have to call her Tracy.	3226234	1472001358748	1472001358855	h	72
6307	67824	I'll just have her call Tracy.	I'll just have to call her Tracy.	3226235	1472001358799	1472001358928	a	65
6307	67824	I'll just have her call Tracy.	I'll just have to call her Tracy.	3226236	1472001358956	1472001359064	v	86
6307	67824	I'll just have her call Tracy.	I'll just have to call her Tracy.	3226237	1472001359024	1472001359124	e	69
6307	67824	I'll just have her call Tracy.	I'll just have to call her Tracy.	3226238	1472001359152	1472001359268	 	32
6307	67824	I'll just have her call Tracy.	I'll just have to call her Tracy.	3226255	1472001359264	1472001359360	t	84
6307	67824	I'll just have her call Tracy.	I'll just have to call her Tracy.	3226260	1472001359368	1472001359520	o	79
6307	67824	I'll just have her call Tracy.	I'll just have to call her Tracy.	3226266	1472001359488	1472001359616	 	32
6307	67824	I'll just have her call Tracy.	I'll just have to call her Tracy.	3226272	1472001359688	1472001359791	c	67
6307	67824	I'll just have her call Tracy.	I'll just have to call her Tracy.	3226276	1472001359808	1472001359920	a	65
6307	67824	I'll just have her call Tracy.	I'll just have to call her Tracy.	3226279	1472001360000	1472001360096	l	76
6307	67824	I'll just have her call Tracy.	I'll just have to call her Tracy.	3226287	1472001360152	1472001360280	l	76
6307	67824	I'll just have her call Tracy.	I'll just have to call her Tracy.	3226289	1472001360296	1472001360421	 	32
6307	67824	I'll just have her call Tracy.	I'll just have to call her Tracy.	3226291	1472001360384	1472001360499	h	72
6307	67824	I'll just have her call Tracy.	I'll just have to call her Tracy.	3226294	1472001360472	1472001360584	e	69
6307	67824	I'll just have her call Tracy.	I'll just have to call her Tracy.	3226297	1472001360664	1472001360768	r	82
6307	67824	I'll just have her call Tracy.	I'll just have to call her Tracy.	3226323	1472001360760	1472001360888	 	32
6307	67824	I'll just have her call Tracy.	I'll just have to call her Tracy.	3226324	1472001361056	1472001361264	SHIFT	16
6307	67824	I'll just have her call Tracy.	I'll just have to call her Tracy.	3226325	1472001361184	1472001361280	T	84
6307	67824	I'll just have her call Tracy.	I'll just have to call her Tracy.	3226326	1472001361368	1472001361456	r	82
6307	67824	I'll just have her call Tracy.	I'll just have to call her Tracy.	3226327	1472001361464	1472001361584	a	65
6307	67824	I'll just have her call Tracy.	I'll just have to call her Tracy.	3226328	1472001361640	1472001361776	c	67
6307	67824	I'll just have her call Tracy.	I'll just have to call her Tracy.	3226329	1472001361904	1472001362032	y	89
6307	67824	I'll just have her call Tracy.	I'll just have to call her Tracy.	3226464	1472001365160	1472001365272	.	190
6307	67831	One of the Hottest Gifts for Holiday 2001.	One of the Hottest Gifts for Holiday 2001.	3226644	1472001373424	1472001373607	SHIFT	16
6307	67831	One of the Hottest Gifts for Holiday 2001.	One of the Hottest Gifts for Holiday 2001.	3226643	1472001373479	1472001373599	O	79
6307	67831	One of the Hottest Gifts for Holiday 2001.	One of the Hottest Gifts for Holiday 2001.	3226645	1472001373679	1472001373775	n	78
6307	67831	One of the Hottest Gifts for Holiday 2001.	One of the Hottest Gifts for Holiday 2001.	3226646	1472001373824	1472001373927	e	69
6307	67831	One of the Hottest Gifts for Holiday 2001.	One of the Hottest Gifts for Holiday 2001.	3226647	1472001373920	1472001374024	 	32
6307	67831	One of the Hottest Gifts for Holiday 2001.	One of the Hottest Gifts for Holiday 2001.	3226668	1472001373999	1472001374119	o	79
6307	67831	One of the Hottest Gifts for Holiday 2001.	One of the Hottest Gifts for Holiday 2001.	3226669	1472001374080	1472001374199	f	70
6307	67831	One of the Hottest Gifts for Holiday 2001.	One of the Hottest Gifts for Holiday 2001.	3226670	1472001374208	1472001374328	 	32
6307	67831	One of the Hottest Gifts for Holiday 2001.	One of the Hottest Gifts for Holiday 2001.	3226672	1472001374392	1472001374504	t	84
6307	67831	One of the Hottest Gifts for Holiday 2001.	One of the Hottest Gifts for Holiday 2001.	3226674	1472001374504	1472001374608	h	72
6307	67831	One of the Hottest Gifts for Holiday 2001.	One of the Hottest Gifts for Holiday 2001.	3226677	1472001374648	1472001374775	e	69
6307	67831	One of the Hottest Gifts for Holiday 2001.	One of the Hottest Gifts for Holiday 2001.	3226703	1472001374783	1472001374887	 	32
6307	67831	One of the Hottest Gifts for Holiday 2001.	One of the Hottest Gifts for Holiday 2001.	3226706	1472001374999	1472001375175	SHIFT	16
6307	67831	One of the Hottest Gifts for Holiday 2001.	One of the Hottest Gifts for Holiday 2001.	3226710	1472001375095	1472001375225	H	72
6307	67831	One of the Hottest Gifts for Holiday 2001.	One of the Hottest Gifts for Holiday 2001.	3226719	1472001375192	1472001375335	o	79
6307	67831	One of the Hottest Gifts for Holiday 2001.	One of the Hottest Gifts for Holiday 2001.	3226725	1472001375439	1472001375527	t	84
6307	67831	One of the Hottest Gifts for Holiday 2001.	One of the Hottest Gifts for Holiday 2001.	3226730	1472001375583	1472001375671	t	84
6307	67831	One of the Hottest Gifts for Holiday 2001.	One of the Hottest Gifts for Holiday 2001.	3226752	1472001375688	1472001375799	e	69
6307	67831	One of the Hottest Gifts for Holiday 2001.	One of the Hottest Gifts for Holiday 2001.	3226754	1472001375887	1472001375999	s	83
6307	67831	One of the Hottest Gifts for Holiday 2001.	One of the Hottest Gifts for Holiday 2001.	3226756	1472001376023	1472001376127	t	84
6307	67831	One of the Hottest Gifts for Holiday 2001.	One of the Hottest Gifts for Holiday 2001.	3226758	1472001376184	1472001376295	 	32
6307	67831	One of the Hottest Gifts for Holiday 2001.	One of the Hottest Gifts for Holiday 2001.	3226761	1472001376407	1472001376583	SHIFT	16
6307	67831	One of the Hottest Gifts for Holiday 2001.	One of the Hottest Gifts for Holiday 2001.	3226792	1472001376519	1472001376660	G	71
6307	67831	One of the Hottest Gifts for Holiday 2001.	One of the Hottest Gifts for Holiday 2001.	3226794	1472001376624	1472001376759	i	73
6307	67831	One of the Hottest Gifts for Holiday 2001.	One of the Hottest Gifts for Holiday 2001.	3226796	1472001377263	1472001377407	f	70
6307	67831	One of the Hottest Gifts for Holiday 2001.	One of the Hottest Gifts for Holiday 2001.	3226798	1472001377360	1472001377511	t	84
6307	67831	One of the Hottest Gifts for Holiday 2001.	One of the Hottest Gifts for Holiday 2001.	3226801	1472001377543	1472001377663	s	83
6307	67831	One of the Hottest Gifts for Holiday 2001.	One of the Hottest Gifts for Holiday 2001.	3226804	1472001377743	1472001377855	 	32
6307	67831	One of the Hottest Gifts for Holiday 2001.	One of the Hottest Gifts for Holiday 2001.	3226837	1472001378879	1472001378991	f	70
6307	67831	One of the Hottest Gifts for Holiday 2001.	One of the Hottest Gifts for Holiday 2001.	3226838	1472001378968	1472001379095	o	79
6307	67831	One of the Hottest Gifts for Holiday 2001.	One of the Hottest Gifts for Holiday 2001.	3226839	1472001379088	1472001379183	r	82
6307	67831	One of the Hottest Gifts for Holiday 2001.	One of the Hottest Gifts for Holiday 2001.	3226840	1472001379184	1472001379311	 	32
6307	67831	One of the Hottest Gifts for Holiday 2001.	One of the Hottest Gifts for Holiday 2001.	3226841	1472001379447	1472001379599	SHIFT	16
6307	67831	One of the Hottest Gifts for Holiday 2001.	One of the Hottest Gifts for Holiday 2001.	3226859	1472001379543	1472001379663	H	72
6307	67831	One of the Hottest Gifts for Holiday 2001.	One of the Hottest Gifts for Holiday 2001.	3226862	1472001379647	1472001379751	o	79
6307	67831	One of the Hottest Gifts for Holiday 2001.	One of the Hottest Gifts for Holiday 2001.	3226865	1472001379847	1472001379951	l	76
6307	67831	One of the Hottest Gifts for Holiday 2001.	One of the Hottest Gifts for Holiday 2001.	3226868	1472001380024	1472001380151	i	73
6307	67831	One of the Hottest Gifts for Holiday 2001.	One of the Hottest Gifts for Holiday 2001.	3226871	1472001380152	1472001380263	d	68
6307	67831	One of the Hottest Gifts for Holiday 2001.	One of the Hottest Gifts for Holiday 2001.	3226875	1472001380387	1472001380519	a	65
6307	67831	One of the Hottest Gifts for Holiday 2001.	One of the Hottest Gifts for Holiday 2001.	3226894	1472001380496	1472001380615	y	89
6307	67831	One of the Hottest Gifts for Holiday 2001.	One of the Hottest Gifts for Holiday 2001.	3226895	1472001380639	1472001380767	 	32
6307	67831	One of the Hottest Gifts for Holiday 2001.	One of the Hottest Gifts for Holiday 2001.	3226896	1472001380951	1472001381063	2	50
6307	67831	One of the Hottest Gifts for Holiday 2001.	One of the Hottest Gifts for Holiday 2001.	3226897	1472001381159	1472001381247	0	48
6307	67831	One of the Hottest Gifts for Holiday 2001.	One of the Hottest Gifts for Holiday 2001.	3226899	1472001381303	1472001381431	0	48
6307	67831	One of the Hottest Gifts for Holiday 2001.	One of the Hottest Gifts for Holiday 2001.	3226901	1472001381495	1472001381607	1	49
6307	67831	One of the Hottest Gifts for Holiday 2001.	One of the Hottest Gifts for Holiday 2001.	3227026	1472001381903	1472001382455	SHIFT	16
6307	67831	One of the Hottest Gifts for Holiday 2001.	One of the Hottest Gifts for Holiday 2001.	3227023	1472001382271	1472001382407	!	49
6307	67831	One of the Hottest Gifts for Holiday 2001.	One of the Hottest Gifts for Holiday 2001.	3227027	1472001384307	1472001384427	BKSP	8
6307	67831	One of the Hottest Gifts for Holiday 2001.	One of the Hottest Gifts for Holiday 2001.	3227029	1472001384611	1472001384699	.	190
6307	67847	Send me your address.	send me your address.	3227181	1472001389556	1472001389675	s	83
6307	67847	Send me your address.	send me your address.	3227185	1472001389763	1472001389867	e	69
6307	67847	Send me your address.	send me your address.	3227191	1472001389899	1472001389979	n	78
6307	67847	Send me your address.	send me your address.	3227196	1472001389987	1472001390107	d	68
6307	67847	Send me your address.	send me your address.	3227198	1472001390115	1472001390227	 	32
6307	67847	Send me your address.	send me your address.	3227213	1472001390243	1472001390347	m	69
6307	67847	Send me your address.	send me your address.	3227217	1472001390419	1472001390547	 	32
6307	67847	Send me your address.	send me your address.	3227219	1472001390571	1472001390699	y	89
6307	67847	Send me your address.	send me your address.	3227236	1472001390659	1472001390819	o	79
6307	67847	Send me your address.	send me your address.	3227239	1472001390763	1472001390883	u	85
6307	67847	Send me your address.	send me your address.	3227244	1472001390867	1472001390979	r	82
6307	67847	Send me your address.	send me your address.	3227248	1472001390963	1472001391099	 	32
6307	67847	Send me your address.	send me your address.	3227253	1472001391203	1472001391323	a	65
6307	67847	Send me your address.	send me your address.	3227286	1472001391315	1472001391403	d	68
6307	67847	Send me your address.	send me your address.	3227289	1472001391467	1472001391539	d	68
6307	67847	Send me your address.	send me your address.	3227294	1472001391619	1472001391723	r	82
6307	67847	Send me your address.	send me your address.	3227300	1472001391739	1472001391859	e	69
6307	67847	Send me your address.	send me your address.	3227304	1472001391963	1472001392075	s	83
6307	67847	Send me your address.	send me your address.	3227307	1472001392147	1472001392259	s	83
6307	67847	Send me your address.	send me your address.	3227461	1472001392291	1472001392411	.	190
6307	67847	Send me your address.	send me your address.	3227462	1472001394915	1472001395003	BKSP	8
6307	67847	Send me your address.	send me your address.	3227463	1472001395051	1472001395171	BKSP	8
6307	67847	Send me your address.	send me your address.	3227464	1472001395307	1472001395411	m	77
6307	67847	Send me your address.	send me your address.	3227465	1472001395443	1472001395555	e	69
6307	67856	My only opportunity is if he cracks or something else happens.	My only opportunity is if he cracks or something else happens.	3227750	1472001403867	1472001404099	SHIFT	16
6307	67856	My only opportunity is if he cracks or something else happens.	My only opportunity is if he cracks or something else happens.	3227754	1472001404003	1472001404107	M	77
6307	67856	My only opportunity is if he cracks or something else happens.	My only opportunity is if he cracks or something else happens.	3227758	1472001404235	1472001404339	y	89
6307	67856	My only opportunity is if he cracks or something else happens.	My only opportunity is if he cracks or something else happens.	3227762	1472001404403	1472001404547	 	32
6307	67856	My only opportunity is if he cracks or something else happens.	My only opportunity is if he cracks or something else happens.	3227766	1472001404515	1472001404659	o	79
6307	67856	My only opportunity is if he cracks or something else happens.	My only opportunity is if he cracks or something else happens.	3227770	1472001404707	1472001404819	n	78
6307	67856	My only opportunity is if he cracks or something else happens.	My only opportunity is if he cracks or something else happens.	3227787	1472001404824	1472001404971	l	76
6307	67856	My only opportunity is if he cracks or something else happens.	My only opportunity is if he cracks or something else happens.	3227789	1472001405011	1472001405155	y	89
6307	67856	My only opportunity is if he cracks or something else happens.	My only opportunity is if he cracks or something else happens.	3227792	1472001405156	1472001405317	 	32
6307	67856	My only opportunity is if he cracks or something else happens.	My only opportunity is if he cracks or something else happens.	3227795	1472001405283	1472001405411	o	79
6307	67856	My only opportunity is if he cracks or something else happens.	My only opportunity is if he cracks or something else happens.	3227799	1472001405619	1472001405723	p	80
6307	67856	My only opportunity is if he cracks or something else happens.	My only opportunity is if he cracks or something else happens.	3227832	1472001405787	1472001405907	p	80
6307	67856	My only opportunity is if he cracks or something else happens.	My only opportunity is if he cracks or something else happens.	3227834	1472001405995	1472001406099	o	79
6307	67856	My only opportunity is if he cracks or something else happens.	My only opportunity is if he cracks or something else happens.	3227836	1472001406803	1472001406915	r	82
6307	67856	My only opportunity is if he cracks or something else happens.	My only opportunity is if he cracks or something else happens.	3227839	1472001407051	1472001407163	t	84
6307	67856	My only opportunity is if he cracks or something else happens.	My only opportunity is if he cracks or something else happens.	3227842	1472001407171	1472001407283	u	85
6307	67856	My only opportunity is if he cracks or something else happens.	My only opportunity is if he cracks or something else happens.	3227873	1472001407411	1472001407547	n	78
6307	67856	My only opportunity is if he cracks or something else happens.	My only opportunity is if he cracks or something else happens.	3227875	1472001407507	1472001407643	i	73
6307	67856	My only opportunity is if he cracks or something else happens.	My only opportunity is if he cracks or something else happens.	3227878	1472001407747	1472001407883	t	84
6307	67856	My only opportunity is if he cracks or something else happens.	My only opportunity is if he cracks or something else happens.	3227881	1472001407851	1472001407979	y	89
6307	67856	My only opportunity is if he cracks or something else happens.	My only opportunity is if he cracks or something else happens.	3227884	1472001408011	1472001408131	 	32
6307	67856	My only opportunity is if he cracks or something else happens.	My only opportunity is if he cracks or something else happens.	3227909	1472001408115	1472001408243	i	73
6307	67856	My only opportunity is if he cracks or something else happens.	My only opportunity is if he cracks or something else happens.	3227911	1472001408283	1472001408395	s	83
6307	67856	My only opportunity is if he cracks or something else happens.	My only opportunity is if he cracks or something else happens.	3227912	1472001408379	1472001408483	 	32
6307	67856	My only opportunity is if he cracks or something else happens.	My only opportunity is if he cracks or something else happens.	3227913	1472001408731	1472001408859	i	73
6307	67856	My only opportunity is if he cracks or something else happens.	My only opportunity is if he cracks or something else happens.	3227914	1472001408907	1472001409019	f	70
6307	67856	My only opportunity is if he cracks or something else happens.	My only opportunity is if he cracks or something else happens.	3227939	1472001409011	1472001409123	 	32
6307	67856	My only opportunity is if he cracks or something else happens.	My only opportunity is if he cracks or something else happens.	3227941	1472001409219	1472001409323	h	72
6307	67856	My only opportunity is if he cracks or something else happens.	My only opportunity is if he cracks or something else happens.	3227943	1472001409347	1472001409459	e	69
6307	67856	My only opportunity is if he cracks or something else happens.	My only opportunity is if he cracks or something else happens.	3227947	1472001409467	1472001409563	 	32
6307	67856	My only opportunity is if he cracks or something else happens.	My only opportunity is if he cracks or something else happens.	3227951	1472001409723	1472001409835	c	67
6307	67856	My only opportunity is if he cracks or something else happens.	My only opportunity is if he cracks or something else happens.	3227987	1472001409819	1472001409939	r	82
6307	67856	My only opportunity is if he cracks or something else happens.	My only opportunity is if he cracks or something else happens.	3227989	1472001409940	1472001410059	a	65
6307	67856	My only opportunity is if he cracks or something else happens.	My only opportunity is if he cracks or something else happens.	3227993	1472001410203	1472001410323	c	67
6307	67856	My only opportunity is if he cracks or something else happens.	My only opportunity is if he cracks or something else happens.	3227998	1472001410347	1472001410467	k	75
6307	67856	My only opportunity is if he cracks or something else happens.	My only opportunity is if he cracks or something else happens.	3228005	1472001410491	1472001410603	s	83
6307	67856	My only opportunity is if he cracks or something else happens.	My only opportunity is if he cracks or something else happens.	3228053	1472001410571	1472001410683	 	32
6307	67856	My only opportunity is if he cracks or something else happens.	My only opportunity is if he cracks or something else happens.	3228056	1472001410731	1472001410859	o	79
6307	67856	My only opportunity is if he cracks or something else happens.	My only opportunity is if he cracks or something else happens.	3228060	1472001411059	1472001411171	r	82
6307	67856	My only opportunity is if he cracks or something else happens.	My only opportunity is if he cracks or something else happens.	3228063	1472001411195	1472001411283	 	32
6307	67856	My only opportunity is if he cracks or something else happens.	My only opportunity is if he cracks or something else happens.	3228065	1472001411407	1472001411531	s	83
6307	67856	My only opportunity is if he cracks or something else happens.	My only opportunity is if he cracks or something else happens.	3228089	1472001411507	1472001411627	o	79
6307	67856	My only opportunity is if he cracks or something else happens.	My only opportunity is if he cracks or something else happens.	3228090	1472001411675	1472001411776	m	77
6307	67856	My only opportunity is if he cracks or something else happens.	My only opportunity is if he cracks or something else happens.	3228091	1472001411747	1472001411875	e	69
6307	67856	My only opportunity is if he cracks or something else happens.	My only opportunity is if he cracks or something else happens.	3228092	1472001411979	1472001412088	t	84
6307	67856	My only opportunity is if he cracks or something else happens.	My only opportunity is if he cracks or something else happens.	3228094	1472001412059	1472001412171	h	72
6307	67856	My only opportunity is if he cracks or something else happens.	My only opportunity is if he cracks or something else happens.	3228119	1472001412139	1472001412267	i	73
6307	67856	My only opportunity is if he cracks or something else happens.	My only opportunity is if he cracks or something else happens.	3228122	1472001412283	1472001412387	n	78
6307	67856	My only opportunity is if he cracks or something else happens.	My only opportunity is if he cracks or something else happens.	3228123	1472001412331	1472001412435	g	71
6307	67856	My only opportunity is if he cracks or something else happens.	My only opportunity is if he cracks or something else happens.	3228125	1472001412467	1472001412579	 	32
6307	67856	My only opportunity is if he cracks or something else happens.	My only opportunity is if he cracks or something else happens.	3228127	1472001412603	1472001412723	e	69
6307	67856	My only opportunity is if he cracks or something else happens.	My only opportunity is if he cracks or something else happens.	3228156	1472001412707	1472001412827	l	76
6307	67856	My only opportunity is if he cracks or something else happens.	My only opportunity is if he cracks or something else happens.	3228158	1472001412859	1472001412987	s	83
6307	67856	My only opportunity is if he cracks or something else happens.	My only opportunity is if he cracks or something else happens.	3228162	1472001413083	1472001413187	e	69
6307	67856	My only opportunity is if he cracks or something else happens.	My only opportunity is if he cracks or something else happens.	3228164	1472001413203	1472001413327	 	32
6307	67856	My only opportunity is if he cracks or something else happens.	My only opportunity is if he cracks or something else happens.	3228167	1472001413328	1472001413419	h	72
6307	67856	My only opportunity is if he cracks or something else happens.	My only opportunity is if he cracks or something else happens.	3228169	1472001413451	1472001413551	a	65
6307	67856	My only opportunity is if he cracks or something else happens.	My only opportunity is if he cracks or something else happens.	3228194	1472001413623	1472001413719	p	80
6307	67856	My only opportunity is if he cracks or something else happens.	My only opportunity is if he cracks or something else happens.	3228195	1472001413788	1472001413898	p	80
6307	67856	My only opportunity is if he cracks or something else happens.	My only opportunity is if he cracks or something else happens.	3228196	1472001413927	1472001414043	e	69
6307	67856	My only opportunity is if he cracks or something else happens.	My only opportunity is if he cracks or something else happens.	3228197	1472001414019	1472001414115	n	78
6307	67856	My only opportunity is if he cracks or something else happens.	My only opportunity is if he cracks or something else happens.	3228198	1472001414227	1472001414347	s	83
6307	67856	My only opportunity is if he cracks or something else happens.	My only opportunity is if he cracks or something else happens.	3228275	1472001414483	1472001414587	.	190
6307	67874	That s all I have to say.	Thats all I have to say.	3228552	1472001422116	1472001422307	SHIFT	16
6307	67874	That s all I have to say.	Thats all I have to say.	3228554	1472001422251	1472001422347	T	84
6307	67874	That s all I have to say.	Thats all I have to say.	3228556	1472001422467	1472001422515	h	72
6307	67874	That s all I have to say.	Thats all I have to say.	3228557	1472001422819	1472001422947	a	65
6307	67874	That s all I have to say.	Thats all I have to say.	3228558	1472001422971	1472001423075	t	84
6307	67874	That s all I have to say.	Thats all I have to say.	3228560	1472001423131	1472001423251	s	83
6307	67874	That s all I have to say.	Thats all I have to say.	3228619	1472001423315	1472001423443	 	32
6307	67874	That s all I have to say.	Thats all I have to say.	3228620	1472001423779	1472001423907	a	65
6307	67874	That s all I have to say.	Thats all I have to say.	3228621	1472001424115	1472001424211	l	76
6307	67874	That s all I have to say.	Thats all I have to say.	3228622	1472001424283	1472001424387	l	76
6307	67874	That s all I have to say.	Thats all I have to say.	3228623	1472001424419	1472001424547	 	32
6307	67874	That s all I have to say.	Thats all I have to say.	3228646	1472001424563	1472001424667	i	73
6307	67874	That s all I have to say.	Thats all I have to say.	3228648	1472001424707	1472001424827	 	32
6307	67874	That s all I have to say.	Thats all I have to say.	3228651	1472001424819	1472001424931	h	72
6307	67874	That s all I have to say.	Thats all I have to say.	3228652	1472001424939	1472001425059	a	65
6307	67874	That s all I have to say.	Thats all I have to say.	3228665	1472001425051	1472001425163	v	86
6307	67874	That s all I have to say.	Thats all I have to say.	3228668	1472001425155	1472001425267	e	69
6307	67874	That s all I have to say.	Thats all I have to say.	3228672	1472001425283	1472001425395	 	32
6307	67874	That s all I have to say.	Thats all I have to say.	3228675	1472001425379	1472001425483	t	84
6307	67874	That s all I have to say.	Thats all I have to say.	3228679	1472001425475	1472001425619	o	79
6307	67874	That s all I have to say.	Thats all I have to say.	3228860	1472001425595	1472001425723	 	32
6307	67874	That s all I have to say.	Thats all I have to say.	3228863	1472001425739	1472001425859	s	83
6307	67874	That s all I have to say.	Thats all I have to say.	3228867	1472001425939	1472001426051	a	65
6307	67874	That s all I have to say.	Thats all I have to say.	3228871	1472001426003	1472001426139	y	89
6307	67874	That s all I have to say.	Thats all I have to say.	3228872	1472001427483	1472001427595	.	190
6307	67874	That s all I have to say.	Thats all I have to say.	3228874	1472001430347	1472001430495	BKSP	8
6307	67874	That s all I have to say.	Thats all I have to say.	3228876	1472001430519	1472001430703	SHIFT	16
6307	67874	That s all I have to say.	Thats all I have to say.	3228949	1472001430627	1472001430739	I	73
6307	67889	On appeal they were finally placed in Division Two.	On appeal they were finally placed in Division Two.	3229274	1472001439975	1472001440199	SHIFT	16
6307	67889	On appeal they were finally placed in Division Two.	On appeal they were finally placed in Division Two.	3229276	1472001440063	1472001440200	O	79
6307	67889	On appeal they were finally placed in Division Two.	On appeal they were finally placed in Division Two.	3229280	1472001440263	1472001440383	n	78
6307	67889	On appeal they were finally placed in Division Two.	On appeal they were finally placed in Division Two.	3229283	1472001440439	1472001440567	 	32
6307	67889	On appeal they were finally placed in Division Two.	On appeal they were finally placed in Division Two.	3229289	1472001440551	1472001440671	a	65
6307	67889	On appeal they were finally placed in Division Two.	On appeal they were finally placed in Division Two.	3229324	1472001440663	1472001440767	p	80
6307	67889	On appeal they were finally placed in Division Two.	On appeal they were finally placed in Division Two.	3229325	1472001440831	1472001440935	p	80
6307	67889	On appeal they were finally placed in Division Two.	On appeal they were finally placed in Division Two.	3229326	1472001440983	1472001441095	e	69
6307	67889	On appeal they were finally placed in Division Two.	On appeal they were finally placed in Division Two.	3229327	1472001441295	1472001441415	a	65
6307	67889	On appeal they were finally placed in Division Two.	On appeal they were finally placed in Division Two.	3229329	1472001441463	1472001441567	l	76
6307	67889	On appeal they were finally placed in Division Two.	On appeal they were finally placed in Division Two.	3229331	1472001441671	1472001441783	 	32
6307	67889	On appeal they were finally placed in Division Two.	On appeal they were finally placed in Division Two.	3229357	1472001442023	1472001442119	t	84
6307	67889	On appeal they were finally placed in Division Two.	On appeal they were finally placed in Division Two.	3229360	1472001442207	1472001442311	h	72
6307	67889	On appeal they were finally placed in Division Two.	On appeal they were finally placed in Division Two.	3229366	1472001442287	1472001442407	e	69
6307	67889	On appeal they were finally placed in Division Two.	On appeal they were finally placed in Division Two.	3229370	1472001442631	1472001442735	y	89
6307	67889	On appeal they were finally placed in Division Two.	On appeal they were finally placed in Division Two.	3229375	1472001442823	1472001442927	 	32
6307	67889	On appeal they were finally placed in Division Two.	On appeal they were finally placed in Division Two.	3229413	1472001442967	1472001443079	w	87
6307	67889	On appeal they were finally placed in Division Two.	On appeal they were finally placed in Division Two.	3229417	1472001443167	1472001443271	e	69
6307	67889	On appeal they were finally placed in Division Two.	On appeal they were finally placed in Division Two.	3229419	1472001443359	1472001443447	r	82
6307	67889	On appeal they were finally placed in Division Two.	On appeal they were finally placed in Division Two.	3229420	1472001443535	1472001443647	e	69
6307	67889	On appeal they were finally placed in Division Two.	On appeal they were finally placed in Division Two.	3229421	1472001443687	1472001443807	 	32
6307	67889	On appeal they were finally placed in Division Two.	On appeal they were finally placed in Division Two.	3229436	1472001443839	1472001443943	f	70
6307	67889	On appeal they were finally placed in Division Two.	On appeal they were finally placed in Division Two.	3229438	1472001443935	1472001444047	i	73
6307	67889	On appeal they were finally placed in Division Two.	On appeal they were finally placed in Division Two.	3229440	1472001444127	1472001444207	n	78
6307	67889	On appeal they were finally placed in Division Two.	On appeal they were finally placed in Division Two.	3229443	1472001444199	1472001444311	a	65
6307	67889	On appeal they were finally placed in Division Two.	On appeal they were finally placed in Division Two.	3229445	1472001444343	1472001444431	l	76
6307	67889	On appeal they were finally placed in Division Two.	On appeal they were finally placed in Division Two.	3229459	1472001444495	1472001444599	l	76
6307	67889	On appeal they were finally placed in Division Two.	On appeal they were finally placed in Division Two.	3229462	1472001444895	1472001445015	y	89
6307	67889	On appeal they were finally placed in Division Two.	On appeal they were finally placed in Division Two.	3229465	1472001445079	1472001445199	 	32
6307	67889	On appeal they were finally placed in Division Two.	On appeal they were finally placed in Division Two.	3229468	1472001445215	1472001445359	p	80
6307	67889	On appeal they were finally placed in Division Two.	On appeal they were finally placed in Division Two.	3229471	1472001445383	1472001445495	l	76
6307	67889	On appeal they were finally placed in Division Two.	On appeal they were finally placed in Division Two.	3229491	1472001445519	1472001445647	a	65
6307	67889	On appeal they were finally placed in Division Two.	On appeal they were finally placed in Division Two.	3229496	1472001445703	1472001445799	c	67
6307	67889	On appeal they were finally placed in Division Two.	On appeal they were finally placed in Division Two.	3229500	1472001445815	1472001445935	e	69
6307	67889	On appeal they were finally placed in Division Two.	On appeal they were finally placed in Division Two.	3229503	1472001446095	1472001446215	d	68
6307	67889	On appeal they were finally placed in Division Two.	On appeal they were finally placed in Division Two.	3229506	1472001446255	1472001446351	 	32
6307	67889	On appeal they were finally placed in Division Two.	On appeal they were finally placed in Division Two.	3229578	1472001446815	1472001446935	i	73
6307	67889	On appeal they were finally placed in Division Two.	On appeal they were finally placed in Division Two.	3229581	1472001446983	1472001447087	n	78
6307	67889	On appeal they were finally placed in Division Two.	On appeal they were finally placed in Division Two.	3229584	1472001447135	1472001447255	 	32
6307	67889	On appeal they were finally placed in Division Two.	On appeal they were finally placed in Division Two.	3229590	1472001447415	1472001447807	SHIFT	16
6307	67889	On appeal they were finally placed in Division Two.	On appeal they were finally placed in Division Two.	3229588	1472001447711	1472001447799	D	68
6307	67889	On appeal they were finally placed in Division Two.	On appeal they were finally placed in Division Two.	3229594	1472001447991	1472001448111	i	73
6307	67889	On appeal they were finally placed in Division Two.	On appeal they were finally placed in Division Two.	3229615	1472001448327	1472001448415	v	86
6307	67889	On appeal they were finally placed in Division Two.	On appeal they were finally placed in Division Two.	3229617	1472001448511	1472001448623	i	73
6307	67889	On appeal they were finally placed in Division Two.	On appeal they were finally placed in Division Two.	3229623	1472001448615	1472001448735	s	83
6307	67889	On appeal they were finally placed in Division Two.	On appeal they were finally placed in Division Two.	3229626	1472001448751	1472001448935	i	73
6307	67889	On appeal they were finally placed in Division Two.	On appeal they were finally placed in Division Two.	3229664	1472001448895	1472001449063	o	79
6307	67889	On appeal they were finally placed in Division Two.	On appeal they were finally placed in Division Two.	3229667	1472001449079	1472001449223	n	78
6307	67889	On appeal they were finally placed in Division Two.	On appeal they were finally placed in Division Two.	3229671	1472001449215	1472001449343	 	32
6307	67889	On appeal they were finally placed in Division Two.	On appeal they were finally placed in Division Two.	3229673	1472001449344	1472001449503	SHIFT	16
6307	67889	On appeal they were finally placed in Division Two.	On appeal they were finally placed in Division Two.	3229675	1472001449479	1472001449607	T	84
6307	67889	On appeal they were finally placed in Division Two.	On appeal they were finally placed in Division Two.	3229676	1472001449655	1472001449783	w	87
6307	67889	On appeal they were finally placed in Division Two.	On appeal they were finally placed in Division Two.	3229678	1472001449784	1472001449895	o	79
6307	67889	On appeal they were finally placed in Division Two.	On appeal they were finally placed in Division Two.	3229694	1472001450192	1472001450298	.	190
6307	67904	We're not a lock for the pole.	we're not a lock for the pole.	3230054	1472001457855	1472001457975	w	87
6307	67904	We're not a lock for the pole.	we're not a lock for the pole.	3230060	1472001458431	1472001458531	e	69
6307	67904	We're not a lock for the pole.	we're not a lock for the pole.	3230067	1472001458887	1472001459019	'	222
6307	67904	We're not a lock for the pole.	we're not a lock for the pole.	3230074	1472001459271	1472001459375	r	82
6307	67904	We're not a lock for the pole.	we're not a lock for the pole.	3230081	1472001459403	1472001459515	e	69
6307	67904	We're not a lock for the pole.	we're not a lock for the pole.	3230108	1472001459543	1472001459671	 	32
6307	67904	We're not a lock for the pole.	we're not a lock for the pole.	3230110	1472001459755	1472001459863	n	78
6307	67904	We're not a lock for the pole.	we're not a lock for the pole.	3230112	1472001459835	1472001459955	o	79
6307	67904	We're not a lock for the pole.	we're not a lock for the pole.	3230114	1472001459899	1472001460003	t	84
6307	67904	We're not a lock for the pole.	we're not a lock for the pole.	3230118	1472001460075	1472001460195	 	32
6307	67904	We're not a lock for the pole.	we're not a lock for the pole.	3230125	1472001460211	1472001460343	a	65
6307	67904	We're not a lock for the pole.	we're not a lock for the pole.	3230128	1472001460307	1472001460463	 	32
6307	67904	We're not a lock for the pole.	we're not a lock for the pole.	3230133	1472001460427	1472001460511	l	76
6307	67904	We're not a lock for the pole.	we're not a lock for the pole.	3230138	1472001460595	1472001460699	o	79
6307	67904	We're not a lock for the pole.	we're not a lock for the pole.	3230162	1472001460683	1472001460779	c	67
6307	67904	We're not a lock for the pole.	we're not a lock for the pole.	3230163	1472001460795	1472001460907	k	75
6307	67904	We're not a lock for the pole.	we're not a lock for the pole.	3230164	1472001460931	1472001461051	 	32
6307	67904	We're not a lock for the pole.	we're not a lock for the pole.	3230166	1472001461043	1472001461163	f	70
6307	67904	We're not a lock for the pole.	we're not a lock for the pole.	3230168	1472001461147	1472001461275	o	79
6307	67904	We're not a lock for the pole.	we're not a lock for the pole.	3230191	1472001461259	1472001461371	r	82
6307	67904	We're not a lock for the pole.	we're not a lock for the pole.	3230193	1472001461379	1472001461492	 	32
6307	67904	We're not a lock for the pole.	we're not a lock for the pole.	3230195	1472001461467	1472001461563	t	84
6307	67904	We're not a lock for the pole.	we're not a lock for the pole.	3230197	1472001461587	1472001461707	h	72
6307	67904	We're not a lock for the pole.	we're not a lock for the pole.	3230199	1472001461723	1472001461835	e	69
6307	67904	We're not a lock for the pole.	we're not a lock for the pole.	3230201	1472001461859	1472001461995	 	32
6307	67904	We're not a lock for the pole.	we're not a lock for the pole.	3230210	1472001462051	1472001462275	p	80
6307	67904	We're not a lock for the pole.	we're not a lock for the pole.	3230212	1472001462219	1472001462331	o	79
6307	67904	We're not a lock for the pole.	we're not a lock for the pole.	3230214	1472001462395	1472001462499	l	76
6307	67904	We're not a lock for the pole.	we're not a lock for the pole.	3230216	1472001462547	1472001462659	e	69
6307	67904	We're not a lock for the pole.	we're not a lock for the pole.	3230217	1472001462819	1472001462923	.	190
6307	67916	Was it a car wreck?	was it a car wreck?	3230379	1472001466651	1472001466747	w	87
6307	67916	Was it a car wreck?	was it a car wreck?	3230381	1472001466859	1472001466987	a	65
6307	67916	Was it a car wreck?	was it a car wreck?	3230384	1472001467059	1472001467163	s	83
6307	67916	Was it a car wreck?	was it a car wreck?	3230387	1472001467155	1472001467315	 	32
6307	67916	Was it a car wreck?	was it a car wreck?	3230412	1472001467251	1472001467411	i	73
6307	67916	Was it a car wreck?	was it a car wreck?	3230414	1472001467459	1472001467571	t	84
6307	67916	Was it a car wreck?	was it a car wreck?	3230416	1472001467595	1472001467715	 	32
6307	67916	Was it a car wreck?	was it a car wreck?	3230417	1472001467716	1472001467835	a	65
6307	67916	Was it a car wreck?	was it a car wreck?	3230419	1472001467795	1472001467931	 	32
6307	67916	Was it a car wreck?	was it a car wreck?	3230421	1472001468011	1472001468091	c	67
6307	67916	Was it a car wreck?	was it a car wreck?	3230466	1472001468291	1472001468419	a	65
6307	67916	Was it a car wreck?	was it a car wreck?	3230469	1472001468435	1472001468539	r	82
6307	67916	Was it a car wreck?	was it a car wreck?	3230472	1472001468635	1472001468755	 	32
6307	67916	Was it a car wreck?	was it a car wreck?	3230476	1472001469275	1472001469395	w	87
6307	67916	Was it a car wreck?	was it a car wreck?	3230480	1472001469435	1472001469523	r	82
6307	67916	Was it a car wreck?	was it a car wreck?	3230507	1472001469571	1472001469691	e	69
6307	67916	Was it a car wreck?	was it a car wreck?	3230508	1472001469843	1472001469963	c	67
6307	67916	Was it a car wreck?	was it a car wreck?	3230509	1472001470019	1472001470123	k	75
6307	67916	Was it a car wreck?	was it a car wreck?	3230511	1472001470299	1472001470491	SHIFT	16
6307	67916	Was it a car wreck?	was it a car wreck?	3230513	1472001470419	1472001470531	?	191
6307	67920	X-rays were negative, and Hakim is listed as day to day.	X-rays were negative, and Hakim was listed as day to day.	3230859	1472001478187	1472001478483	SHIFT	16
6307	67920	X-rays were negative, and Hakim is listed as day to day.	X-rays were negative, and Hakim was listed as day to day.	3230855	1472001478371	1472001478467	X	88
6307	67920	X-rays were negative, and Hakim is listed as day to day.	X-rays were negative, and Hakim was listed as day to day.	3230862	1472001478887	1472001479027	-	189
6307	67920	X-rays were negative, and Hakim is listed as day to day.	X-rays were negative, and Hakim was listed as day to day.	3230864	1472001479155	1472001479363	SHIFT	16
6307	67920	X-rays were negative, and Hakim is listed as day to day.	X-rays were negative, and Hakim was listed as day to day.	3230866	1472001479307	1472001479411	R	82
6307	67920	X-rays were negative, and Hakim is listed as day to day.	X-rays were negative, and Hakim was listed as day to day.	3230868	1472001479475	1472001479579	a	65
6307	67920	X-rays were negative, and Hakim is listed as day to day.	X-rays were negative, and Hakim was listed as day to day.	3230871	1472001479651	1472001479755	y	89
6307	67920	X-rays were negative, and Hakim is listed as day to day.	X-rays were negative, and Hakim was listed as day to day.	3230968	1472001479867	1472001479995	s	83
6307	67920	X-rays were negative, and Hakim is listed as day to day.	X-rays were negative, and Hakim was listed as day to day.	3230970	1472001480787	1472001480891	BKSP	8
6307	67920	X-rays were negative, and Hakim is listed as day to day.	X-rays were negative, and Hakim was listed as day to day.	3230972	1472001480979	1472001481059	BKSP	8
6307	67920	X-rays were negative, and Hakim is listed as day to day.	X-rays were negative, and Hakim was listed as day to day.	3230975	1472001481131	1472001481195	BKSP	8
6307	67920	X-rays were negative, and Hakim is listed as day to day.	X-rays were negative, and Hakim was listed as day to day.	3230979	1472001481259	1472001481323	BKSP	8
6307	67920	X-rays were negative, and Hakim is listed as day to day.	X-rays were negative, and Hakim was listed as day to day.	3230984	1472001481987	1472001482091	r	82
6307	67920	X-rays were negative, and Hakim is listed as day to day.	X-rays were negative, and Hakim was listed as day to day.	3230988	1472001482099	1472001482227	a	65
6307	67920	X-rays were negative, and Hakim is listed as day to day.	X-rays were negative, and Hakim was listed as day to day.	3230989	1472001482267	1472001482363	y	89
6307	67920	X-rays were negative, and Hakim is listed as day to day.	X-rays were negative, and Hakim was listed as day to day.	3230990	1472001482364	1472001482483	s	83
6307	67920	X-rays were negative, and Hakim is listed as day to day.	X-rays were negative, and Hakim was listed as day to day.	3231007	1472001482487	1472001482603	 	32
6307	67920	X-rays were negative, and Hakim is listed as day to day.	X-rays were negative, and Hakim was listed as day to day.	3231008	1472001482659	1472001482779	w	87
6307	67920	X-rays were negative, and Hakim is listed as day to day.	X-rays were negative, and Hakim was listed as day to day.	3231009	1472001482867	1472001482987	e	69
6307	67920	X-rays were negative, and Hakim is listed as day to day.	X-rays were negative, and Hakim was listed as day to day.	3231010	1472001483075	1472001483163	r	82
6307	67920	X-rays were negative, and Hakim is listed as day to day.	X-rays were negative, and Hakim was listed as day to day.	3231011	1472001483259	1472001483371	e	69
6307	67920	X-rays were negative, and Hakim is listed as day to day.	X-rays were negative, and Hakim was listed as day to day.	3231034	1472001483375	1472001483491	 	32
6307	67920	X-rays were negative, and Hakim is listed as day to day.	X-rays were negative, and Hakim was listed as day to day.	3231035	1472001483555	1472001483659	n	78
6307	67920	X-rays were negative, and Hakim is listed as day to day.	X-rays were negative, and Hakim was listed as day to day.	3231036	1472001483691	1472001483803	e	69
6307	67920	X-rays were negative, and Hakim is listed as day to day.	X-rays were negative, and Hakim was listed as day to day.	3231037	1472001483851	1472001483947	g	71
6307	67920	X-rays were negative, and Hakim is listed as day to day.	X-rays were negative, and Hakim was listed as day to day.	3231038	1472001484027	1472001484147	a	65
6307	67920	X-rays were negative, and Hakim is listed as day to day.	X-rays were negative, and Hakim was listed as day to day.	3231055	1472001484179	1472001484299	t	84
6307	67920	X-rays were negative, and Hakim is listed as day to day.	X-rays were negative, and Hakim was listed as day to day.	3231057	1472001484387	1472001484507	i	73
6307	67920	X-rays were negative, and Hakim is listed as day to day.	X-rays were negative, and Hakim was listed as day to day.	3231059	1472001484603	1472001484707	v	86
6307	67920	X-rays were negative, and Hakim is listed as day to day.	X-rays were negative, and Hakim was listed as day to day.	3231062	1472001484701	1472001484803	e	69
6307	67920	X-rays were negative, and Hakim is listed as day to day.	X-rays were negative, and Hakim was listed as day to day.	3231065	1472001484804	1472001484915	 	32
6307	67920	X-rays were negative, and Hakim is listed as day to day.	X-rays were negative, and Hakim was listed as day to day.	3231231	1472001484939	1472001485075	a	65
6307	67920	X-rays were negative, and Hakim is listed as day to day.	X-rays were negative, and Hakim was listed as day to day.	3231235	1472001485067	1472001485171	n	78
6307	67920	X-rays were negative, and Hakim is listed as day to day.	X-rays were negative, and Hakim was listed as day to day.	3231237	1472001485179	1472001485291	d	68
6307	67920	X-rays were negative, and Hakim is listed as day to day.	X-rays were negative, and Hakim was listed as day to day.	3231239	1472001486107	1472001486219	BKSP	8
6307	67920	X-rays were negative, and Hakim is listed as day to day.	X-rays were negative, and Hakim was listed as day to day.	3231241	1472001486291	1472001486383	BKSP	8
6307	67920	X-rays were negative, and Hakim is listed as day to day.	X-rays were negative, and Hakim was listed as day to day.	3231242	1472001486435	1472001486519	BKSP	8
6307	67920	X-rays were negative, and Hakim is listed as day to day.	X-rays were negative, and Hakim was listed as day to day.	3231243	1472001486563	1472001486651	BKSP	8
6307	67920	X-rays were negative, and Hakim is listed as day to day.	X-rays were negative, and Hakim was listed as day to day.	3231244	1472001487951	1472001488071	,	188
6307	67920	X-rays were negative, and Hakim is listed as day to day.	X-rays were negative, and Hakim was listed as day to day.	3231245	1472001488119	1472001488239	 	32
6307	67920	X-rays were negative, and Hakim is listed as day to day.	X-rays were negative, and Hakim was listed as day to day.	3231283	1472001488263	1472001488387	a	65
6307	67920	X-rays were negative, and Hakim is listed as day to day.	X-rays were negative, and Hakim was listed as day to day.	3231285	1472001488388	1472001488491	n	78
6307	67920	X-rays were negative, and Hakim is listed as day to day.	X-rays were negative, and Hakim was listed as day to day.	3231291	1472001488527	1472001488639	d	68
6307	67920	X-rays were negative, and Hakim is listed as day to day.	X-rays were negative, and Hakim was listed as day to day.	3231295	1472001488640	1472001488743	 	32
6307	67920	X-rays were negative, and Hakim is listed as day to day.	X-rays were negative, and Hakim was listed as day to day.	3231299	1472001488983	1472001489151	SHIFT	16
6307	67920	X-rays were negative, and Hakim is listed as day to day.	X-rays were negative, and Hakim was listed as day to day.	3231364	1472001489119	1472001489215	H	72
6307	67920	X-rays were negative, and Hakim is listed as day to day.	X-rays were negative, and Hakim was listed as day to day.	3231367	1472001489279	1472001489399	a	65
6307	67920	X-rays were negative, and Hakim is listed as day to day.	X-rays were negative, and Hakim was listed as day to day.	3231370	1472001489479	1472001489591	k	75
6307	67920	X-rays were negative, and Hakim is listed as day to day.	X-rays were negative, and Hakim was listed as day to day.	3231372	1472001489695	1472001489799	i	73
6307	67920	X-rays were negative, and Hakim is listed as day to day.	X-rays were negative, and Hakim was listed as day to day.	3231373	1472001489927	1472001490039	m	77
6307	67920	X-rays were negative, and Hakim is listed as day to day.	X-rays were negative, and Hakim was listed as day to day.	3231374	1472001490391	1472001490487	 	32
6307	67920	X-rays were negative, and Hakim is listed as day to day.	X-rays were negative, and Hakim was listed as day to day.	3231385	1472001490543	1472001490655	w	87
6307	67920	X-rays were negative, and Hakim is listed as day to day.	X-rays were negative, and Hakim was listed as day to day.	3231388	1472001490759	1472001490871	a	65
6307	67920	X-rays were negative, and Hakim is listed as day to day.	X-rays were negative, and Hakim was listed as day to day.	3231391	1472001490951	1472001491055	s	83
6307	67920	X-rays were negative, and Hakim is listed as day to day.	X-rays were negative, and Hakim was listed as day to day.	3231395	1472001491039	1472001491175	 	32
6307	67920	X-rays were negative, and Hakim is listed as day to day.	X-rays were negative, and Hakim was listed as day to day.	3231428	1472001491135	1472001491295	l	76
6307	67920	X-rays were negative, and Hakim is listed as day to day.	X-rays were negative, and Hakim was listed as day to day.	3231430	1472001491263	1472001491375	i	73
6307	67920	X-rays were negative, and Hakim is listed as day to day.	X-rays were negative, and Hakim was listed as day to day.	3231435	1472001491439	1472001491559	s	83
6307	67920	X-rays were negative, and Hakim is listed as day to day.	X-rays were negative, and Hakim was listed as day to day.	3231441	1472001491560	1472001491647	t	84
6307	67920	X-rays were negative, and Hakim is listed as day to day.	X-rays were negative, and Hakim was listed as day to day.	3231445	1472001491695	1472001491815	e	69
6307	67920	X-rays were negative, and Hakim is listed as day to day.	X-rays were negative, and Hakim was listed as day to day.	3231448	1472001491911	1472001492039	d	68
6307	67920	X-rays were negative, and Hakim is listed as day to day.	X-rays were negative, and Hakim was listed as day to day.	3231472	1472001492063	1472001492167	 	32
6307	67920	X-rays were negative, and Hakim is listed as day to day.	X-rays were negative, and Hakim was listed as day to day.	3231473	1472001492207	1472001492327	a	65
6307	67920	X-rays were negative, and Hakim is listed as day to day.	X-rays were negative, and Hakim was listed as day to day.	3231474	1472001492423	1472001492543	s	83
6307	67920	X-rays were negative, and Hakim is listed as day to day.	X-rays were negative, and Hakim was listed as day to day.	3231475	1472001492551	1472001492671	 	32
6307	67920	X-rays were negative, and Hakim is listed as day to day.	X-rays were negative, and Hakim was listed as day to day.	3231476	1472001492903	1472001493015	d	68
6307	67920	X-rays were negative, and Hakim is listed as day to day.	X-rays were negative, and Hakim was listed as day to day.	3231497	1472001493151	1472001493271	a	65
6307	67920	X-rays were negative, and Hakim is listed as day to day.	X-rays were negative, and Hakim was listed as day to day.	3231499	1472001493247	1472001493351	y	89
6307	67920	X-rays were negative, and Hakim is listed as day to day.	X-rays were negative, and Hakim was listed as day to day.	3231503	1472001493383	1472001493511	 	32
6307	67920	X-rays were negative, and Hakim is listed as day to day.	X-rays were negative, and Hakim was listed as day to day.	3231506	1472001493512	1472001493623	t	84
6307	67920	X-rays were negative, and Hakim is listed as day to day.	X-rays were negative, and Hakim was listed as day to day.	3231510	1472001493624	1472001493759	o	79
6307	67920	X-rays were negative, and Hakim is listed as day to day.	X-rays were negative, and Hakim was listed as day to day.	3231552	1472001493735	1472001493847	 	32
6307	67920	X-rays were negative, and Hakim is listed as day to day.	X-rays were negative, and Hakim was listed as day to day.	3231555	1472001493887	1472001493999	d	68
6307	67920	X-rays were negative, and Hakim is listed as day to day.	X-rays were negative, and Hakim was listed as day to day.	3231557	1472001494135	1472001494263	a	65
6307	67920	X-rays were negative, and Hakim is listed as day to day.	X-rays were negative, and Hakim was listed as day to day.	3231558	1472001494247	1472001494335	y	89
6307	67920	X-rays were negative, and Hakim is listed as day to day.	X-rays were negative, and Hakim was listed as day to day.	3231559	1472001494679	1472001494783	.	190
6307	67946	The reserve receiver is expected to see a specialist this week.	The reserve reciever is expected to see a specialist this week.	3231856	1472001501919	1472001502079	SHIFT	16
6307	67946	The reserve receiver is expected to see a specialist this week.	The reserve reciever is expected to see a specialist this week.	3231857	1472001501991	1472001502095	T	84
6307	67946	The reserve receiver is expected to see a specialist this week.	The reserve reciever is expected to see a specialist this week.	3231858	1472001502183	1472001502279	h	72
6307	67946	The reserve receiver is expected to see a specialist this week.	The reserve reciever is expected to see a specialist this week.	3231859	1472001502287	1472001502399	e	69
6307	67946	The reserve receiver is expected to see a specialist this week.	The reserve reciever is expected to see a specialist this week.	3231860	1472001502375	1472001502503	 	32
6307	67946	The reserve receiver is expected to see a specialist this week.	The reserve reciever is expected to see a specialist this week.	3231861	1472001502535	1472001502647	r	82
6307	67946	The reserve receiver is expected to see a specialist this week.	The reserve reciever is expected to see a specialist this week.	3231912	1472001502679	1472001502799	e	69
6307	67946	The reserve receiver is expected to see a specialist this week.	The reserve reciever is expected to see a specialist this week.	3231914	1472001502919	1472001503047	s	83
6307	67946	The reserve receiver is expected to see a specialist this week.	The reserve reciever is expected to see a specialist this week.	3231915	1472001503159	1472001503263	e	69
6307	67946	The reserve receiver is expected to see a specialist this week.	The reserve reciever is expected to see a specialist this week.	3231916	1472001503343	1472001503455	r	82
6307	67946	The reserve receiver is expected to see a specialist this week.	The reserve reciever is expected to see a specialist this week.	3231918	1472001503631	1472001503743	v	86
6307	67946	The reserve receiver is expected to see a specialist this week.	The reserve reciever is expected to see a specialist this week.	3231950	1472001503747	1472001503863	e	69
6307	67946	The reserve receiver is expected to see a specialist this week.	The reserve reciever is expected to see a specialist this week.	3231955	1472001503887	1472001503991	 	32
6307	67946	The reserve receiver is expected to see a specialist this week.	The reserve reciever is expected to see a specialist this week.	3231958	1472001504039	1472001504151	r	82
6307	67946	The reserve receiver is expected to see a specialist this week.	The reserve reciever is expected to see a specialist this week.	3231963	1472001504247	1472001504359	e	69
6307	67946	The reserve receiver is expected to see a specialist this week.	The reserve reciever is expected to see a specialist this week.	3231965	1472001504487	1472001504607	c	67
6307	67946	The reserve receiver is expected to see a specialist this week.	The reserve reciever is expected to see a specialist this week.	3231987	1472001504611	1472001504727	i	73
6307	67946	The reserve receiver is expected to see a specialist this week.	The reserve reciever is expected to see a specialist this week.	3231988	1472001504783	1472001504911	e	69
6307	67946	The reserve receiver is expected to see a specialist this week.	The reserve reciever is expected to see a specialist this week.	3231991	1472001505159	1472001505247	v	86
6307	67946	The reserve receiver is expected to see a specialist this week.	The reserve reciever is expected to see a specialist this week.	3231994	1472001505295	1472001505423	e	69
6307	67946	The reserve receiver is expected to see a specialist this week.	The reserve reciever is expected to see a specialist this week.	3231997	1472001505535	1472001505663	r	82
6307	67946	The reserve receiver is expected to see a specialist this week.	The reserve reciever is expected to see a specialist this week.	3232088	1472001505799	1472001505927	 	32
6307	67946	The reserve receiver is expected to see a specialist this week.	The reserve reciever is expected to see a specialist this week.	3232089	1472001506599	1472001506775	i	73
6307	67946	The reserve receiver is expected to see a specialist this week.	The reserve reciever is expected to see a specialist this week.	3232091	1472001506903	1472001507071	s	83
6307	67946	The reserve receiver is expected to see a specialist this week.	The reserve reciever is expected to see a specialist this week.	3232093	1472001507135	1472001507311	 	32
6307	67946	The reserve receiver is expected to see a specialist this week.	The reserve reciever is expected to see a specialist this week.	3232097	1472001507751	1472001507871	e	69
6307	67946	The reserve receiver is expected to see a specialist this week.	The reserve reciever is expected to see a specialist this week.	3232139	1472001508359	1472001508479	x	88
6307	67946	The reserve receiver is expected to see a specialist this week.	The reserve reciever is expected to see a specialist this week.	3232140	1472001508567	1472001508687	p	80
6307	67946	The reserve receiver is expected to see a specialist this week.	The reserve reciever is expected to see a specialist this week.	3232141	1472001508719	1472001508847	e	69
6307	67946	The reserve receiver is expected to see a specialist this week.	The reserve reciever is expected to see a specialist this week.	3232142	1472001508975	1472001509103	c	67
6307	67946	The reserve receiver is expected to see a specialist this week.	The reserve reciever is expected to see a specialist this week.	3232144	1472001509119	1472001509239	t	84
6307	67946	The reserve receiver is expected to see a specialist this week.	The reserve reciever is expected to see a specialist this week.	3232180	1472001509255	1472001509367	e	69
6307	67946	The reserve receiver is expected to see a specialist this week.	The reserve reciever is expected to see a specialist this week.	3232181	1472001509463	1472001509583	d	68
6307	67946	The reserve receiver is expected to see a specialist this week.	The reserve reciever is expected to see a specialist this week.	3232183	1472001509615	1472001509711	 	32
6307	67946	The reserve receiver is expected to see a specialist this week.	The reserve reciever is expected to see a specialist this week.	3232188	1472001509727	1472001509831	t	84
6307	67946	The reserve receiver is expected to see a specialist this week.	The reserve reciever is expected to see a specialist this week.	3232192	1472001509839	1472001509983	o	79
6307	67946	The reserve receiver is expected to see a specialist this week.	The reserve reciever is expected to see a specialist this week.	3232210	1472001509991	1472001510095	 	32
6307	67946	The reserve receiver is expected to see a specialist this week.	The reserve reciever is expected to see a specialist this week.	3232211	1472001510127	1472001510239	s	83
6307	67946	The reserve receiver is expected to see a specialist this week.	The reserve reciever is expected to see a specialist this week.	3232212	1472001510343	1472001510431	e	69
6307	67946	The reserve receiver is expected to see a specialist this week.	The reserve reciever is expected to see a specialist this week.	3232213	1472001510511	1472001510615	e	69
6307	67946	The reserve receiver is expected to see a specialist this week.	The reserve reciever is expected to see a specialist this week.	3232214	1472001510639	1472001510743	 	32
6307	67946	The reserve receiver is expected to see a specialist this week.	The reserve reciever is expected to see a specialist this week.	3232228	1472001510791	1472001510919	a	65
6307	67946	The reserve receiver is expected to see a specialist this week.	The reserve reciever is expected to see a specialist this week.	3232230	1472001510871	1472001510991	 	32
6307	67946	The reserve receiver is expected to see a specialist this week.	The reserve reciever is expected to see a specialist this week.	3232233	1472001511023	1472001511127	s	83
6307	67946	The reserve receiver is expected to see a specialist this week.	The reserve reciever is expected to see a specialist this week.	3232236	1472001511135	1472001511279	p	80
6307	67946	The reserve receiver is expected to see a specialist this week.	The reserve reciever is expected to see a specialist this week.	3232264	1472001511271	1472001511367	e	69
6307	67946	The reserve receiver is expected to see a specialist this week.	The reserve reciever is expected to see a specialist this week.	3232266	1472001511535	1472001511647	c	67
6307	67946	The reserve receiver is expected to see a specialist this week.	The reserve reciever is expected to see a specialist this week.	3232269	1472001511695	1472001511767	i	85
6307	67946	The reserve receiver is expected to see a specialist this week.	The reserve reciever is expected to see a specialist this week.	3232272	1472001511879	1472001511991	a	65
6307	67946	The reserve receiver is expected to see a specialist this week.	The reserve reciever is expected to see a specialist this week.	3232275	1472001511992	1472001512103	l	76
6307	67946	The reserve receiver is expected to see a specialist this week.	The reserve reciever is expected to see a specialist this week.	3232436	1472001512171	1472001512279	i	73
6307	67946	The reserve receiver is expected to see a specialist this week.	The reserve reciever is expected to see a specialist this week.	3232439	1472001512311	1472001512423	s	83
6307	67946	The reserve receiver is expected to see a specialist this week.	The reserve reciever is expected to see a specialist this week.	3232442	1472001512447	1472001512559	t	84
6307	67946	The reserve receiver is expected to see a specialist this week.	The reserve reciever is expected to see a specialist this week.	3232446	1472001512607	1472001512733	 	32
6307	67946	The reserve receiver is expected to see a specialist this week.	The reserve reciever is expected to see a specialist this week.	3232449	1472001513847	1472001513935	BKSP	8
6307	67946	The reserve receiver is expected to see a specialist this week.	The reserve reciever is expected to see a specialist this week.	3232453	1472001514119	1472001514807	BKSP	8
6307	67946	The reserve receiver is expected to see a specialist this week.	The reserve reciever is expected to see a specialist this week.	3232459	1472001514967	1472001515039	BKSP	8
6307	67946	The reserve receiver is expected to see a specialist this week.	The reserve reciever is expected to see a specialist this week.	3232464	1472001515987	1472001516103	c	67
6307	67946	The reserve receiver is expected to see a specialist this week.	The reserve reciever is expected to see a specialist this week.	3232479	1472001516108	1472001516214	i	73
6307	67946	The reserve receiver is expected to see a specialist this week.	The reserve reciever is expected to see a specialist this week.	3232480	1472001516267	1472001516399	a	65
6307	67946	The reserve receiver is expected to see a specialist this week.	The reserve reciever is expected to see a specialist this week.	3232481	1472001516387	1472001516499	l	76
6307	67946	The reserve receiver is expected to see a specialist this week.	The reserve reciever is expected to see a specialist this week.	3232482	1472001516619	1472001516739	i	73
6307	67946	The reserve receiver is expected to see a specialist this week.	The reserve reciever is expected to see a specialist this week.	3232483	1472001516783	1472001516915	s	83
6307	67946	The reserve receiver is expected to see a specialist this week.	The reserve reciever is expected to see a specialist this week.	3232525	1472001516903	1472001517019	t	84
6307	67946	The reserve receiver is expected to see a specialist this week.	The reserve reciever is expected to see a specialist this week.	3232526	1472001517075	1472001517203	 	32
6307	67946	The reserve receiver is expected to see a specialist this week.	The reserve reciever is expected to see a specialist this week.	3232527	1472001517479	1472001517611	t	84
6307	67946	The reserve receiver is expected to see a specialist this week.	The reserve reciever is expected to see a specialist this week.	3232528	1472001517635	1472001517747	h	72
6307	67946	The reserve receiver is expected to see a specialist this week.	The reserve reciever is expected to see a specialist this week.	3232529	1472001517875	1472001517987	i	73
6307	67946	The reserve receiver is expected to see a specialist this week.	The reserve reciever is expected to see a specialist this week.	3232530	1472001518027	1472001518147	s	83
6307	67946	The reserve receiver is expected to see a specialist this week.	The reserve reciever is expected to see a specialist this week.	3232546	1472001518163	1472001518275	 	32
6307	67946	The reserve receiver is expected to see a specialist this week.	The reserve reciever is expected to see a specialist this week.	3232548	1472001518299	1472001518419	w	87
6307	67946	The reserve receiver is expected to see a specialist this week.	The reserve reciever is expected to see a specialist this week.	3232551	1472001518503	1472001518611	e	69
6307	67946	The reserve receiver is expected to see a specialist this week.	The reserve reciever is expected to see a specialist this week.	3232553	1472001518675	1472001518795	e	69
6307	67946	The reserve receiver is expected to see a specialist this week.	The reserve reciever is expected to see a specialist this week.	3232558	1472001518819	1472001518915	k	75
6307	67946	The reserve receiver is expected to see a specialist this week.	The reserve reciever is expected to see a specialist this week.	3232596	1472001519739	1472001519835	.	190
6307	67969	He said he had been surprised to see his name on the list.	He said he had been surprised to see his name on the list.	3232950	1472001527499	1472001527666	SHIFT	16
6307	67969	He said he had been surprised to see his name on the list.	He said he had been surprised to see his name on the list.	3232953	1472001527602	1472001527755	H	72
6307	67969	He said he had been surprised to see his name on the list.	He said he had been surprised to see his name on the list.	3232957	1472001527859	1472001527971	e	69
6307	67969	He said he had been surprised to see his name on the list.	He said he had been surprised to see his name on the list.	3232962	1472001527979	1472001528075	 	32
6307	67969	He said he had been surprised to see his name on the list.	He said he had been surprised to see his name on the list.	3232964	1472001528139	1472001528235	s	83
6307	67969	He said he had been surprised to see his name on the list.	He said he had been surprised to see his name on the list.	3232966	1472001528339	1472001528466	a	65
6307	67969	He said he had been surprised to see his name on the list.	He said he had been surprised to see his name on the list.	3233011	1472001528603	1472001528714	d	68
6307	67969	He said he had been surprised to see his name on the list.	He said he had been surprised to see his name on the list.	3233014	1472001529018	1472001529146	BKSP	8
6307	67969	He said he had been surprised to see his name on the list.	He said he had been surprised to see his name on the list.	3233020	1472001529579	1472001529706	i	73
6307	67969	He said he had been surprised to see his name on the list.	He said he had been surprised to see his name on the list.	3233024	1472001529802	1472001529906	d	68
6307	67969	He said he had been surprised to see his name on the list.	He said he had been surprised to see his name on the list.	3233027	1472001529954	1472001530074	 	32
6307	67969	He said he had been surprised to see his name on the list.	He said he had been surprised to see his name on the list.	3233031	1472001531099	1472001531194	h	72
6307	67969	He said he had been surprised to see his name on the list.	He said he had been surprised to see his name on the list.	3233112	1472001531211	1472001531314	e	69
6307	67969	He said he had been surprised to see his name on the list.	He said he had been surprised to see his name on the list.	3233115	1472001531355	1472001531474	 	32
6307	67969	He said he had been surprised to see his name on the list.	He said he had been surprised to see his name on the list.	3233121	1472001533403	1472001533498	h	72
6307	67969	He said he had been surprised to see his name on the list.	He said he had been surprised to see his name on the list.	3233125	1472001533514	1472001533642	a	65
6307	67969	He said he had been surprised to see his name on the list.	He said he had been surprised to see his name on the list.	3233129	1472001533762	1472001533890	d	68
6307	67969	He said he had been surprised to see his name on the list.	He said he had been surprised to see his name on the list.	3233143	1472001533923	1472001534042	 	32
6307	67969	He said he had been surprised to see his name on the list.	He said he had been surprised to see his name on the list.	3233146	1472001534090	1472001534194	b	66
6307	67969	He said he had been surprised to see his name on the list.	He said he had been surprised to see his name on the list.	3233148	1472001534307	1472001534418	e	69
6307	67969	He said he had been surprised to see his name on the list.	He said he had been surprised to see his name on the list.	3233150	1472001534506	1472001534618	e	69
6307	67969	He said he had been surprised to see his name on the list.	He said he had been surprised to see his name on the list.	3233153	1472001534619	1472001534754	n	78
6307	67969	He said he had been surprised to see his name on the list.	He said he had been surprised to see his name on the list.	3233165	1472001534738	1472001534875	 	32
6307	67969	He said he had been surprised to see his name on the list.	He said he had been surprised to see his name on the list.	3233166	1472001534827	1472001534946	s	83
6307	67969	He said he had been surprised to see his name on the list.	He said he had been surprised to see his name on the list.	3233167	1472001535010	1472001535138	u	85
6307	67969	He said he had been surprised to see his name on the list.	He said he had been surprised to see his name on the list.	3233168	1472001535171	1472001535282	r	82
6307	67969	He said he had been surprised to see his name on the list.	He said he had been surprised to see his name on the list.	3233169	1472001535362	1472001535507	p	80
6307	67969	He said he had been surprised to see his name on the list.	He said he had been surprised to see his name on the list.	3233170	1472001535650	1472001535771	r	82
6307	67969	He said he had been surprised to see his name on the list.	He said he had been surprised to see his name on the list.	3233203	1472001535803	1472001535890	i	73
6307	67969	He said he had been surprised to see his name on the list.	He said he had been surprised to see his name on the list.	3233205	1472001536002	1472001536130	s	83
6307	67969	He said he had been surprised to see his name on the list.	He said he had been surprised to see his name on the list.	3233207	1472001536242	1472001536362	e	69
6307	67969	He said he had been surprised to see his name on the list.	He said he had been surprised to see his name on the list.	3233209	1472001536474	1472001536602	d	68
6307	67969	He said he had been surprised to see his name on the list.	He said he had been surprised to see his name on the list.	3233211	1472001536610	1472001536762	 	32
6307	67969	He said he had been surprised to see his name on the list.	He said he had been surprised to see his name on the list.	3233221	1472001536882	1472001537002	t	84
6307	67969	He said he had been surprised to see his name on the list.	He said he had been surprised to see his name on the list.	3233225	1472001536986	1472001537130	o	79
6307	67969	He said he had been surprised to see his name on the list.	He said he had been surprised to see his name on the list.	3233229	1472001537107	1472001537242	 	32
6307	67969	He said he had been surprised to see his name on the list.	He said he had been surprised to see his name on the list.	3233234	1472001537314	1472001537450	s	83
6307	67969	He said he had been surprised to see his name on the list.	He said he had been surprised to see his name on the list.	3233238	1472001537530	1472001537634	e	69
6307	67969	He said he had been surprised to see his name on the list.	He said he had been surprised to see his name on the list.	3233256	1472001537714	1472001537818	e	69
6307	67969	He said he had been surprised to see his name on the list.	He said he had been surprised to see his name on the list.	3233257	1472001537842	1472001537979	 	32
6307	67969	He said he had been surprised to see his name on the list.	He said he had been surprised to see his name on the list.	3233260	1472001537946	1472001538084	h	72
6307	67969	He said he had been surprised to see his name on the list.	He said he had been surprised to see his name on the list.	3233262	1472001538042	1472001538187	i	73
6307	67969	He said he had been surprised to see his name on the list.	He said he had been surprised to see his name on the list.	3233278	1472001538106	1472001538218	s	83
6307	67969	He said he had been surprised to see his name on the list.	He said he had been surprised to see his name on the list.	3233280	1472001538242	1472001538378	 	32
6307	67969	He said he had been surprised to see his name on the list.	He said he had been surprised to see his name on the list.	3233282	1472001538402	1472001538498	n	78
6307	67969	He said he had been surprised to see his name on the list.	He said he had been surprised to see his name on the list.	3233284	1472001538482	1472001538618	a	65
6307	67969	He said he had been surprised to see his name on the list.	He said he had been surprised to see his name on the list.	3233285	1472001538650	1472001538762	m	77
6307	67969	He said he had been surprised to see his name on the list.	He said he had been surprised to see his name on the list.	3233286	1472001538730	1472001538842	e	69
6307	67969	He said he had been surprised to see his name on the list.	He said he had been surprised to see his name on the list.	3233287	1472001538826	1472001538962	 	32
6307	67969	He said he had been surprised to see his name on the list.	He said he had been surprised to see his name on the list.	3233289	1472001538914	1472001539066	o	79
6307	67969	He said he had been surprised to see his name on the list.	He said he had been surprised to see his name on the list.	3233292	1472001539114	1472001539250	n	78
6307	67969	He said he had been surprised to see his name on the list.	He said he had been surprised to see his name on the list.	3233295	1472001539234	1472001539370	 	32
6307	67969	He said he had been surprised to see his name on the list.	He said he had been surprised to see his name on the list.	3233315	1472001539346	1472001539459	t	84
6307	67969	He said he had been surprised to see his name on the list.	He said he had been surprised to see his name on the list.	3233318	1472001539474	1472001539586	h	72
6307	67969	He said he had been surprised to see his name on the list.	He said he had been surprised to see his name on the list.	3233320	1472001539618	1472001539739	e	69
6307	67969	He said he had been surprised to see his name on the list.	He said he had been surprised to see his name on the list.	3233324	1472001539707	1472001539859	 	32
6307	67969	He said he had been surprised to see his name on the list.	He said he had been surprised to see his name on the list.	3233327	1472001539818	1472001540007	l	76
6307	67969	He said he had been surprised to see his name on the list.	He said he had been surprised to see his name on the list.	3233365	1472001539970	1472001540090	i	73
6307	67969	He said he had been surprised to see his name on the list.	He said he had been surprised to see his name on the list.	3233368	1472001540082	1472001540210	s	83
6307	67969	He said he had been surprised to see his name on the list.	He said he had been surprised to see his name on the list.	3233372	1472001540278	1472001540378	t	84
6307	67969	He said he had been surprised to see his name on the list.	He said he had been surprised to see his name on the list.	3233374	1472001541010	1472001541138	.	190
6307	67988	Would you mind taking the lead on this?	Would you mind taking the lead in this?	3233562	1472001545998	1472001546222	SHIFT	16
6307	67988	Would you mind taking the lead on this?	Would you mind taking the lead in this?	3233561	1472001546106	1472001546190	W	87
6307	67988	Would you mind taking the lead on this?	Would you mind taking the lead in this?	3233563	1472001546462	1472001546630	o	79
6307	67988	Would you mind taking the lead on this?	Would you mind taking the lead in this?	3233565	1472001546574	1472001546710	u	85
6307	67988	Would you mind taking the lead on this?	Would you mind taking the lead in this?	3233568	1472001546782	1472001546914	l	76
6307	67988	Would you mind taking the lead on this?	Would you mind taking the lead in this?	3233571	1472001547182	1472001547318	d	68
6307	67988	Would you mind taking the lead on this?	Would you mind taking the lead in this?	3233590	1472001547334	1472001547470	 	32
6307	67988	Would you mind taking the lead on this?	Would you mind taking the lead in this?	3233592	1472001547471	1472001547585	y	89
6307	67988	Would you mind taking the lead on this?	Would you mind taking the lead in this?	3233593	1472001547535	1472001547710	o	79
6307	67988	Would you mind taking the lead on this?	Would you mind taking the lead in this?	3233595	1472001547670	1472001547782	u	85
6307	67988	Would you mind taking the lead on this?	Would you mind taking the lead in this?	3233629	1472001547758	1472001547918	 	32
6307	67988	Would you mind taking the lead on this?	Would you mind taking the lead in this?	3233633	1472001548014	1472001548150	m	77
6307	67988	Would you mind taking the lead on this?	Would you mind taking the lead in this?	3233638	1472001548134	1472001548278	i	73
6307	67988	Would you mind taking the lead on this?	Would you mind taking the lead in this?	3233641	1472001548294	1472001548406	n	78
6307	67988	Would you mind taking the lead on this?	Would you mind taking the lead in this?	3233645	1472001548414	1472001548526	d	68
6307	67988	Would you mind taking the lead on this?	Would you mind taking the lead in this?	3233662	1472001548510	1472001548630	 	32
6307	67988	Would you mind taking the lead on this?	Would you mind taking the lead in this?	3233664	1472001548678	1472001548774	t	84
6307	67988	Would you mind taking the lead on this?	Would you mind taking the lead in this?	3233667	1472001548798	1472001548918	a	65
6307	67988	Would you mind taking the lead on this?	Would you mind taking the lead in this?	3233670	1472001548958	1472001549054	k	75
6307	67988	Would you mind taking the lead on this?	Would you mind taking the lead in this?	3233674	1472001549150	1472001549238	i	73
6307	67988	Would you mind taking the lead on this?	Would you mind taking the lead in this?	3233677	1472001549310	1472001549414	n	78
6307	67988	Would you mind taking the lead on this?	Would you mind taking the lead in this?	3233691	1472001549419	1472001549521	g	71
6307	67988	Would you mind taking the lead on this?	Would you mind taking the lead in this?	3233693	1472001549494	1472001549614	 	32
6307	67988	Would you mind taking the lead on this?	Would you mind taking the lead in this?	3233698	1472001549654	1472001549742	t	84
6307	67988	Would you mind taking the lead on this?	Would you mind taking the lead in this?	3233700	1472001549743	1472001549846	h	72
6307	67988	Would you mind taking the lead on this?	Would you mind taking the lead in this?	3233703	1472001549910	1472001550014	e	69
6307	67988	Would you mind taking the lead on this?	Would you mind taking the lead in this?	3233739	1472001549966	1472001550102	 	32
6307	67988	Would you mind taking the lead on this?	Would you mind taking the lead in this?	3233742	1472001550118	1472001550254	l	76
6307	67988	Would you mind taking the lead on this?	Would you mind taking the lead in this?	3233743	1472001550262	1472001550366	e	69
6307	67988	Would you mind taking the lead on this?	Would you mind taking the lead in this?	3233746	1472001550526	1472001550654	a	65
6307	67988	Would you mind taking the lead on this?	Would you mind taking the lead in this?	3233749	1472001550766	1472001550894	d	68
6307	67988	Would you mind taking the lead on this?	Would you mind taking the lead in this?	3233792	1472001550870	1472001550998	 	32
6307	67988	Would you mind taking the lead on this?	Would you mind taking the lead in this?	3233796	1472001551342	1472001551462	i	73
6307	67988	Would you mind taking the lead on this?	Would you mind taking the lead in this?	3233800	1472001551534	1472001551694	n	78
6307	67988	Would you mind taking the lead on this?	Would you mind taking the lead in this?	3233805	1472001551710	1472001551846	 	32
6307	67988	Would you mind taking the lead on this?	Would you mind taking the lead in this?	3233808	1472001551926	1472001552078	t	84
6307	67988	Would you mind taking the lead on this?	Would you mind taking the lead in this?	3233909	1472001552071	1472001552222	h	72
6307	67988	Would you mind taking the lead on this?	Would you mind taking the lead in this?	3233912	1472001552230	1472001552350	u	85
6307	67988	Would you mind taking the lead on this?	Would you mind taking the lead in this?	3233915	1472001552342	1472001552478	s	83
6307	67988	Would you mind taking the lead on this?	Would you mind taking the lead in this?	3233919	1472001553035	1472001553142	BKSP	8
6307	67988	Would you mind taking the lead on this?	Would you mind taking the lead in this?	3233922	1472001553222	1472001553310	BKSP	8
6307	67988	Would you mind taking the lead on this?	Would you mind taking the lead in this?	3233926	1472001553870	1472001553966	i	73
6307	67988	Would you mind taking the lead on this?	Would you mind taking the lead in this?	3233932	1472001554030	1472001554166	s	83
6307	67988	Would you mind taking the lead on this?	Would you mind taking the lead in this?	3233939	1472001554222	1472001554414	SHIFT	16
6307	67988	Would you mind taking the lead on this?	Would you mind taking the lead in this?	3233916	1472001554334	1472001554470	?	191
6307	68000	Leaks have indicated that Clinton has narrowed his choice.	Leaks have indicated that Clinton has narrowed his choice.	3234247	1472001560422	1472001560542	l	76
6307	68000	Leaks have indicated that Clinton has narrowed his choice.	Leaks have indicated that Clinton has narrowed his choice.	3234250	1472001561022	1472001561134	BKSP	8
6307	68000	Leaks have indicated that Clinton has narrowed his choice.	Leaks have indicated that Clinton has narrowed his choice.	3234253	1472001561270	1472001561478	SHIFT	16
6307	68000	Leaks have indicated that Clinton has narrowed his choice.	Leaks have indicated that Clinton has narrowed his choice.	3234256	1472001561414	1472001561518	L	76
6307	68000	Leaks have indicated that Clinton has narrowed his choice.	Leaks have indicated that Clinton has narrowed his choice.	3234258	1472001561638	1472001561750	e	69
6307	68000	Leaks have indicated that Clinton has narrowed his choice.	Leaks have indicated that Clinton has narrowed his choice.	3234260	1472001561886	1472001562014	a	65
6307	68000	Leaks have indicated that Clinton has narrowed his choice.	Leaks have indicated that Clinton has narrowed his choice.	3234262	1472001562102	1472001562206	s	83
6307	68000	Leaks have indicated that Clinton has narrowed his choice.	Leaks have indicated that Clinton has narrowed his choice.	3234319	1472001562470	1472001562598	BKSP	8
6307	68000	Leaks have indicated that Clinton has narrowed his choice.	Leaks have indicated that Clinton has narrowed his choice.	3234323	1472001562718	1472001562798	k	75
6307	68000	Leaks have indicated that Clinton has narrowed his choice.	Leaks have indicated that Clinton has narrowed his choice.	3234328	1472001562830	1472001562950	s	83
6307	68000	Leaks have indicated that Clinton has narrowed his choice.	Leaks have indicated that Clinton has narrowed his choice.	3234334	1472001562974	1472001563078	 	32
6307	68000	Leaks have indicated that Clinton has narrowed his choice.	Leaks have indicated that Clinton has narrowed his choice.	3234339	1472001563638	1472001563742	h	72
6307	68000	Leaks have indicated that Clinton has narrowed his choice.	Leaks have indicated that Clinton has narrowed his choice.	3234382	1472001563710	1472001563838	a	65
6307	68000	Leaks have indicated that Clinton has narrowed his choice.	Leaks have indicated that Clinton has narrowed his choice.	3234384	1472001564254	1472001564358	v	86
6307	68000	Leaks have indicated that Clinton has narrowed his choice.	Leaks have indicated that Clinton has narrowed his choice.	3234387	1472001564414	1472001564526	e	69
6307	68000	Leaks have indicated that Clinton has narrowed his choice.	Leaks have indicated that Clinton has narrowed his choice.	3234389	1472001564550	1472001564662	 	32
6307	68000	Leaks have indicated that Clinton has narrowed his choice.	Leaks have indicated that Clinton has narrowed his choice.	3234391	1472001564774	1472001564886	i	73
6307	68000	Leaks have indicated that Clinton has narrowed his choice.	Leaks have indicated that Clinton has narrowed his choice.	3234394	1472001564974	1472001565070	n	78
6307	68000	Leaks have indicated that Clinton has narrowed his choice.	Leaks have indicated that Clinton has narrowed his choice.	3234456	1472001565174	1472001565286	d	68
6307	68000	Leaks have indicated that Clinton has narrowed his choice.	Leaks have indicated that Clinton has narrowed his choice.	3234457	1472001565278	1472001565406	i	73
6307	68000	Leaks have indicated that Clinton has narrowed his choice.	Leaks have indicated that Clinton has narrowed his choice.	3234458	1472001565502	1472001565630	a	65
6307	68000	Leaks have indicated that Clinton has narrowed his choice.	Leaks have indicated that Clinton has narrowed his choice.	3234459	1472001566142	1472001566270	BKSP	8
6307	68000	Leaks have indicated that Clinton has narrowed his choice.	Leaks have indicated that Clinton has narrowed his choice.	3234461	1472001566246	1472001566350	c	67
6307	68000	Leaks have indicated that Clinton has narrowed his choice.	Leaks have indicated that Clinton has narrowed his choice.	3234464	1472001566494	1472001566614	a	65
6307	68000	Leaks have indicated that Clinton has narrowed his choice.	Leaks have indicated that Clinton has narrowed his choice.	3234488	1472001566622	1472001566726	t	84
6307	68000	Leaks have indicated that Clinton has narrowed his choice.	Leaks have indicated that Clinton has narrowed his choice.	3234494	1472001566750	1472001566862	e	69
6307	68000	Leaks have indicated that Clinton has narrowed his choice.	Leaks have indicated that Clinton has narrowed his choice.	3234497	1472001566950	1472001567078	d	68
6307	68000	Leaks have indicated that Clinton has narrowed his choice.	Leaks have indicated that Clinton has narrowed his choice.	3234500	1472001567070	1472001567190	 	32
6307	68000	Leaks have indicated that Clinton has narrowed his choice.	Leaks have indicated that Clinton has narrowed his choice.	3234503	1472001567246	1472001567342	t	84
6307	68000	Leaks have indicated that Clinton has narrowed his choice.	Leaks have indicated that Clinton has narrowed his choice.	3234520	1472001567442	1472001567518	h	72
6307	68000	Leaks have indicated that Clinton has narrowed his choice.	Leaks have indicated that Clinton has narrowed his choice.	3234521	1472001567574	1472001567702	a	65
6307	68000	Leaks have indicated that Clinton has narrowed his choice.	Leaks have indicated that Clinton has narrowed his choice.	3234522	1472001567710	1472001567814	t	84
6307	68000	Leaks have indicated that Clinton has narrowed his choice.	Leaks have indicated that Clinton has narrowed his choice.	3234523	1472001567846	1472001567966	 	32
6307	68000	Leaks have indicated that Clinton has narrowed his choice.	Leaks have indicated that Clinton has narrowed his choice.	3234544	1472001568094	1472001568262	SHIFT	16
6307	68000	Leaks have indicated that Clinton has narrowed his choice.	Leaks have indicated that Clinton has narrowed his choice.	3234527	1472001568134	1472001568230	C	67
6307	68000	Leaks have indicated that Clinton has narrowed his choice.	Leaks have indicated that Clinton has narrowed his choice.	3234545	1472001568390	1472001568518	l	76
6307	68000	Leaks have indicated that Clinton has narrowed his choice.	Leaks have indicated that Clinton has narrowed his choice.	3234546	1472001568574	1472001568678	i	73
6307	68000	Leaks have indicated that Clinton has narrowed his choice.	Leaks have indicated that Clinton has narrowed his choice.	3234547	1472001568774	1472001568870	n	78
6307	68000	Leaks have indicated that Clinton has narrowed his choice.	Leaks have indicated that Clinton has narrowed his choice.	3234548	1472001568878	1472001568990	t	84
6307	68000	Leaks have indicated that Clinton has narrowed his choice.	Leaks have indicated that Clinton has narrowed his choice.	3234562	1472001568982	1472001569102	o	79
6307	68000	Leaks have indicated that Clinton has narrowed his choice.	Leaks have indicated that Clinton has narrowed his choice.	3234563	1472001569166	1472001569286	n	78
6307	68000	Leaks have indicated that Clinton has narrowed his choice.	Leaks have indicated that Clinton has narrowed his choice.	3234564	1472001569310	1472001569422	 	32
6307	68000	Leaks have indicated that Clinton has narrowed his choice.	Leaks have indicated that Clinton has narrowed his choice.	3234565	1472001569423	1472001569526	h	72
6307	68000	Leaks have indicated that Clinton has narrowed his choice.	Leaks have indicated that Clinton has narrowed his choice.	3234566	1472001569486	1472001569630	a	65
6307	68000	Leaks have indicated that Clinton has narrowed his choice.	Leaks have indicated that Clinton has narrowed his choice.	3234567	1472001569734	1472001569846	s	83
6307	68000	Leaks have indicated that Clinton has narrowed his choice.	Leaks have indicated that Clinton has narrowed his choice.	3234609	1472001569910	1472001570022	 	32
6307	68000	Leaks have indicated that Clinton has narrowed his choice.	Leaks have indicated that Clinton has narrowed his choice.	3234612	1472001570142	1472001570254	n	78
6307	68000	Leaks have indicated that Clinton has narrowed his choice.	Leaks have indicated that Clinton has narrowed his choice.	3234615	1472001570302	1472001570430	a	65
6307	68000	Leaks have indicated that Clinton has narrowed his choice.	Leaks have indicated that Clinton has narrowed his choice.	3234619	1472001570470	1472001570566	r	82
6307	68000	Leaks have indicated that Clinton has narrowed his choice.	Leaks have indicated that Clinton has narrowed his choice.	3234622	1472001570614	1472001570718	r	82
6307	68000	Leaks have indicated that Clinton has narrowed his choice.	Leaks have indicated that Clinton has narrowed his choice.	3234643	1472001570838	1472001570974	o	79
6307	68000	Leaks have indicated that Clinton has narrowed his choice.	Leaks have indicated that Clinton has narrowed his choice.	3234644	1472001570950	1472001571078	w	87
6307	68000	Leaks have indicated that Clinton has narrowed his choice.	Leaks have indicated that Clinton has narrowed his choice.	3234647	1472001571182	1472001571294	e	69
6307	68000	Leaks have indicated that Clinton has narrowed his choice.	Leaks have indicated that Clinton has narrowed his choice.	3234649	1472001571414	1472001571542	d	68
6307	68000	Leaks have indicated that Clinton has narrowed his choice.	Leaks have indicated that Clinton has narrowed his choice.	3234735	1472001571534	1472001571662	 	32
6307	68000	Leaks have indicated that Clinton has narrowed his choice.	Leaks have indicated that Clinton has narrowed his choice.	3234736	1472001572438	1472001572558	h	72
6307	68000	Leaks have indicated that Clinton has narrowed his choice.	Leaks have indicated that Clinton has narrowed his choice.	3234738	1472001572522	1472001572674	i	73
6307	68000	Leaks have indicated that Clinton has narrowed his choice.	Leaks have indicated that Clinton has narrowed his choice.	3234742	1472001572622	1472001572746	s	83
6307	68000	Leaks have indicated that Clinton has narrowed his choice.	Leaks have indicated that Clinton has narrowed his choice.	3234746	1472001572747	1472001572858	 	32
6307	68000	Leaks have indicated that Clinton has narrowed his choice.	Leaks have indicated that Clinton has narrowed his choice.	3234752	1472001573510	1472001573634	c	67
6307	68000	Leaks have indicated that Clinton has narrowed his choice.	Leaks have indicated that Clinton has narrowed his choice.	3234787	1472001573646	1472001573790	h	72
6307	68000	Leaks have indicated that Clinton has narrowed his choice.	Leaks have indicated that Clinton has narrowed his choice.	3234790	1472001573850	1472001574122	o	79
6307	68000	Leaks have indicated that Clinton has narrowed his choice.	Leaks have indicated that Clinton has narrowed his choice.	3234792	1472001574142	1472001574242	i	73
6307	68000	Leaks have indicated that Clinton has narrowed his choice.	Leaks have indicated that Clinton has narrowed his choice.	3234794	1472001574730	1472001574830	c	67
6307	68000	Leaks have indicated that Clinton has narrowed his choice.	Leaks have indicated that Clinton has narrowed his choice.	3234797	1472001574906	1472001575046	e	69
6307	68000	Leaks have indicated that Clinton has narrowed his choice.	Leaks have indicated that Clinton has narrowed his choice.	3234838	1472001575305	1472001575426	.	190
6307	68019	He is recovering from a left knee injury.	He is recovering from a left knee injury.	3235047	1472001580274	1472001580338	h	72
6307	68019	He is recovering from a left knee injury.	He is recovering from a left knee injury.	3235050	1472001580698	1472001580834	BKSP	8
6307	68019	He is recovering from a left knee injury.	He is recovering from a left knee injury.	3235056	1472001580882	1472001581058	SHIFT	16
6307	68019	He is recovering from a left knee injury.	He is recovering from a left knee injury.	3235060	1472001581010	1472001581106	H	72
6307	68019	He is recovering from a left knee injury.	He is recovering from a left knee injury.	3235064	1472001581218	1472001581338	e	69
6307	68019	He is recovering from a left knee injury.	He is recovering from a left knee injury.	3235067	1472001581346	1472001581498	 	32
6307	68019	He is recovering from a left knee injury.	He is recovering from a left knee injury.	3235071	1472001581530	1472001581658	i	73
6307	68019	He is recovering from a left knee injury.	He is recovering from a left knee injury.	3235106	1472001581602	1472001581722	s	83
6307	68019	He is recovering from a left knee injury.	He is recovering from a left knee injury.	3235110	1472001581754	1472001581866	 	32
6307	68019	He is recovering from a left knee injury.	He is recovering from a left knee injury.	3235113	1472001582154	1472001582266	r	82
6307	68019	He is recovering from a left knee injury.	He is recovering from a left knee injury.	3235116	1472001582362	1472001582474	e	69
6307	68019	He is recovering from a left knee injury.	He is recovering from a left knee injury.	3235119	1472001582618	1472001582722	c	67
6307	68019	He is recovering from a left knee injury.	He is recovering from a left knee injury.	3235140	1472001582706	1472001582810	o	79
6307	68019	He is recovering from a left knee injury.	He is recovering from a left knee injury.	3235142	1472001582914	1472001583010	v	86
6307	68019	He is recovering from a left knee injury.	He is recovering from a left knee injury.	3235145	1472001582994	1472001583130	e	69
6307	68019	He is recovering from a left knee injury.	He is recovering from a left knee injury.	3235148	1472001583218	1472001583330	r	82
6307	68019	He is recovering from a left knee injury.	He is recovering from a left knee injury.	3235152	1472001583338	1472001583458	i	73
6307	68019	He is recovering from a left knee injury.	He is recovering from a left knee injury.	3235154	1472001583506	1472001583602	n	78
6307	68019	He is recovering from a left knee injury.	He is recovering from a left knee injury.	3235176	1472001583594	1472001583706	g	71
6307	68019	He is recovering from a left knee injury.	He is recovering from a left knee injury.	3235179	1472001583714	1472001583834	 	32
6307	68019	He is recovering from a left knee injury.	He is recovering from a left knee injury.	3235180	1472001583835	1472001583946	f	70
6307	68019	He is recovering from a left knee injury.	He is recovering from a left knee injury.	3235182	1472001584018	1472001584138	r	82
6307	68019	He is recovering from a left knee injury.	He is recovering from a left knee injury.	3235184	1472001584122	1472001584250	o	79
6307	68019	He is recovering from a left knee injury.	He is recovering from a left knee injury.	3235186	1472001584306	1472001584442	m	77
6307	68019	He is recovering from a left knee injury.	He is recovering from a left knee injury.	3235202	1472001584450	1472001584570	 	32
6307	68019	He is recovering from a left knee injury.	He is recovering from a left knee injury.	3235206	1472001584594	1472001584706	a	65
6307	68019	He is recovering from a left knee injury.	He is recovering from a left knee injury.	3235207	1472001584674	1472001584826	 	32
6307	68019	He is recovering from a left knee injury.	He is recovering from a left knee injury.	3235209	1472001584810	1472001584946	l	76
6307	68019	He is recovering from a left knee injury.	He is recovering from a left knee injury.	3235211	1472001584954	1472001585066	e	69
6307	68019	He is recovering from a left knee injury.	He is recovering from a left knee injury.	3235229	1472001585130	1472001585282	f	70
6307	68019	He is recovering from a left knee injury.	He is recovering from a left knee injury.	3235230	1472001585234	1472001585378	t	84
6307	68019	He is recovering from a left knee injury.	He is recovering from a left knee injury.	3235232	1472001585426	1472001585570	 	32
6307	68019	He is recovering from a left knee injury.	He is recovering from a left knee injury.	3235234	1472001585602	1472001585698	k	75
6307	68019	He is recovering from a left knee injury.	He is recovering from a left knee injury.	3235235	1472001585810	1472001585906	n	78
6307	68019	He is recovering from a left knee injury.	He is recovering from a left knee injury.	3235253	1472001585922	1472001586010	e	69
6307	68019	He is recovering from a left knee injury.	He is recovering from a left knee injury.	3235257	1472001586098	1472001586210	e	69
6307	68019	He is recovering from a left knee injury.	He is recovering from a left knee injury.	3235261	1472001586211	1472001586346	 	32
6307	68019	He is recovering from a left knee injury.	He is recovering from a left knee injury.	3235262	1472001586314	1472001586450	i	73
6307	68019	He is recovering from a left knee injury.	He is recovering from a left knee injury.	3235263	1472001586466	1472001586586	n	78
6307	68019	He is recovering from a left knee injury.	He is recovering from a left knee injury.	3235304	1472001586690	1472001586786	j	74
6307	68019	He is recovering from a left knee injury.	He is recovering from a left knee injury.	3235307	1472001586866	1472001586954	u	85
6307	68019	He is recovering from a left knee injury.	He is recovering from a left knee injury.	3235313	1472001587130	1472001587282	r	82
6307	68019	He is recovering from a left knee injury.	He is recovering from a left knee injury.	3235317	1472001587242	1472001587378	y	89
6307	68019	He is recovering from a left knee injury.	He is recovering from a left knee injury.	3235321	1472001587698	1472001587810	.	190
6307	68030	Hey TK, how are you doing?	hey TK, How are you doing?	3235508	1472001591874	1472001591986	h	72
6307	68030	Hey TK, how are you doing?	hey TK, How are you doing?	3235510	1472001592042	1472001592162	e	69
6307	68030	Hey TK, how are you doing?	hey TK, How are you doing?	3235514	1472001592194	1472001592306	y	89
6307	68030	Hey TK, how are you doing?	hey TK, How are you doing?	3235516	1472001592307	1472001592442	 	32
6307	68030	Hey TK, how are you doing?	hey TK, How are you doing?	3235611	1472001592498	1472001593146	SHIFT	16
6307	68030	Hey TK, how are you doing?	hey TK, How are you doing?	3235518	1472001592642	1472001592738	T	84
6307	68030	Hey TK, how are you doing?	hey TK, How are you doing?	3235608	1472001592970	1472001593074	K	75
6307	68030	Hey TK, how are you doing?	hey TK, How are you doing?	3235617	1472001593506	1472001593658	,	188
6307	68030	Hey TK, how are you doing?	hey TK, How are you doing?	3235620	1472001593738	1472001593882	 	32
6307	68030	Hey TK, how are you doing?	hey TK, How are you doing?	3235635	1472001594482	1472001594922	SHIFT	16
6307	68030	Hey TK, how are you doing?	hey TK, How are you doing?	3235630	1472001594786	1472001594898	H	72
6307	68030	Hey TK, how are you doing?	hey TK, How are you doing?	3235641	1472001594946	1472001595090	o	79
6307	68030	Hey TK, how are you doing?	hey TK, How are you doing?	3235655	1472001595154	1472001595266	w	87
6307	68030	Hey TK, how are you doing?	hey TK, How are you doing?	3235657	1472001595250	1472001595378	 	32
6307	68030	Hey TK, how are you doing?	hey TK, How are you doing?	3235660	1472001595410	1472001595543	a	65
6307	68030	Hey TK, how are you doing?	hey TK, How are you doing?	3235663	1472001595506	1472001595610	r	82
6307	68030	Hey TK, how are you doing?	hey TK, How are you doing?	3235665	1472001595650	1472001595770	e	69
6307	68030	Hey TK, how are you doing?	hey TK, How are you doing?	3235679	1472001595738	1472001595890	 	32
6307	68030	Hey TK, how are you doing?	hey TK, How are you doing?	3235680	1472001595874	1472001596018	y	89
6307	68030	Hey TK, how are you doing?	hey TK, How are you doing?	3235681	1472001595946	1472001596138	o	79
6307	68030	Hey TK, how are you doing?	hey TK, How are you doing?	3235683	1472001596098	1472001596250	u	85
6307	68030	Hey TK, how are you doing?	hey TK, How are you doing?	3235685	1472001596218	1472001596339	 	32
6307	68030	Hey TK, how are you doing?	hey TK, How are you doing?	3235743	1472001596306	1472001596434	d	68
6307	68030	Hey TK, how are you doing?	hey TK, How are you doing?	3235745	1472001596426	1472001596594	o	79
6307	68030	Hey TK, how are you doing?	hey TK, How are you doing?	3235747	1472001596538	1472001596658	i	73
6307	68030	Hey TK, how are you doing?	hey TK, How are you doing?	3235749	1472001596754	1472001596834	n	78
6307	68030	Hey TK, how are you doing?	hey TK, How are you doing?	3235752	1472001596866	1472001596970	g	71
6307	68030	Hey TK, how are you doing?	hey TK, How are you doing?	3235754	1472001596994	1472001597170	SHIFT	16
6307	68030	Hey TK, how are you doing?	hey TK, How are you doing?	3235750	1472001597098	1472001597242	?	191
