PARTICIPANT_ID	TEST_SECTION_ID	SENTENCE	USER_INPUT	KEYSTROKE_ID	PRESS_TIME	RELEASE_TIME	LETTER	KEYCODE
6430	69107	These are big storms and traffic isn't moving.	These are big storms and traccice isn't moving	3286879	1472002853119	1472002853402	SHIFT	16
6430	69107	These are big storms and traffic isn't moving.	These are big storms and traccice isn't moving	3286884	1472002853315	1472002853426	T	84
6430	69107	These are big storms and traffic isn't moving.	These are big storms and traccice isn't moving	3286888	1472002853366	1472002853450	H	72
6430	69107	These are big storms and traffic isn't moving.	These are big storms and traccice isn't moving	3286891	1472002853520	1472002853652	e	69
6430	69107	These are big storms and traffic isn't moving.	These are big storms and traccice isn't moving	3286895	1472002853690	1472002853818	s	83
6430	69107	These are big storms and traffic isn't moving.	These are big storms and traccice isn't moving	3286974	1472002853806	1472002853930	e	69
6430	69107	These are big storms and traffic isn't moving.	These are big storms and traccice isn't moving	3286978	1472002854061	1472002854129	BKSP	8
6430	69107	These are big storms and traffic isn't moving.	These are big storms and traccice isn't moving	3286982	1472002854205	1472002854269	BKSP	8
6430	69107	These are big storms and traffic isn't moving.	These are big storms and traccice isn't moving	3286986	1472002854357	1472002854420	BKSP	8
6430	69107	These are big storms and traffic isn't moving.	These are big storms and traccice isn't moving	3286987	1472002854493	1472002854569	BKSP	8
6430	69107	These are big storms and traffic isn't moving.	These are big storms and traccice isn't moving	3286988	1472002854722	1472002854794	h	72
6430	69107	These are big storms and traffic isn't moving.	These are big storms and traccice isn't moving	3286989	1472002854881	1472002854981	e	69
6430	69107	These are big storms and traffic isn't moving.	These are big storms and traccice isn't moving	3286990	1472002855040	1472002855152	s	83
6430	69107	These are big storms and traffic isn't moving.	These are big storms and traccice isn't moving	3286992	1472002855156	1472002855288	e	69
6430	69107	These are big storms and traffic isn't moving.	These are big storms and traccice isn't moving	3286995	1472002855340	1472002855384	 	32
6430	69107	These are big storms and traffic isn't moving.	These are big storms and traccice isn't moving	3287017	1472002855401	1472002855569	a	65
6430	69107	These are big storms and traffic isn't moving.	These are big storms and traccice isn't moving	3287021	1472002855557	1472002855681	r	82
6430	69107	These are big storms and traffic isn't moving.	These are big storms and traccice isn't moving	3287024	1472002855653	1472002855721	e	69
6430	69107	These are big storms and traffic isn't moving.	These are big storms and traccice isn't moving	3287026	1472002855706	1472002855797	 	32
6430	69107	These are big storms and traffic isn't moving.	These are big storms and traccice isn't moving	3287029	1472002856315	1472002856407	v	86
6430	69107	These are big storms and traffic isn't moving.	These are big storms and traccice isn't moving	3287063	1472002856498	1472002856574	i	73
6430	69107	These are big storms and traffic isn't moving.	These are big storms and traccice isn't moving	3287065	1472002856833	1472002856889	BKSP	8
6430	69107	These are big storms and traffic isn't moving.	These are big storms and traccice isn't moving	3287067	1472002856958	1472002857050	BKSP	8
6430	69107	These are big storms and traffic isn't moving.	These are big storms and traccice isn't moving	3287069	1472002857062	1472002857142	b	66
6430	69107	These are big storms and traffic isn't moving.	These are big storms and traccice isn't moving	3287071	1472002857187	1472002857263	i	73
6430	69107	These are big storms and traffic isn't moving.	These are big storms and traccice isn't moving	3287073	1472002857293	1472002857377	g	71
6430	69107	These are big storms and traffic isn't moving.	These are big storms and traccice isn't moving	3287076	1472002857432	1472002857512	 	32
6430	69107	These are big storms and traffic isn't moving.	These are big storms and traccice isn't moving	3287094	1472002857533	1472002857669	s	83
6430	69107	These are big storms and traffic isn't moving.	These are big storms and traccice isn't moving	3287099	1472002857670	1472002857745	t	84
6430	69107	These are big storms and traffic isn't moving.	These are big storms and traccice isn't moving	3287106	1472002857791	1472002857855	o	79
6430	69107	These are big storms and traffic isn't moving.	These are big storms and traccice isn't moving	3287113	1472002857885	1472002857973	r	82
6430	69107	These are big storms and traffic isn't moving.	These are big storms and traccice isn't moving	3287116	1472002858125	1472002858265	s	83
6430	69107	These are big storms and traffic isn't moving.	These are big storms and traccice isn't moving	3287215	1472002858331	1472002858398	 	32
6430	69107	These are big storms and traffic isn't moving.	These are big storms and traccice isn't moving	3287220	1472002858764	1472002858824	BKSP	8
6430	69107	These are big storms and traffic isn't moving.	These are big storms and traccice isn't moving	3287225	1472002858901	1472002858965	BKSP	8
6430	69107	These are big storms and traffic isn't moving.	These are big storms and traccice isn't moving	3287231	1472002859050	1472002859114	BKSP	8
6430	69107	These are big storms and traffic isn't moving.	These are big storms and traccice isn't moving	3287236	1472002859190	1472002859258	BKSP	8
6430	69107	These are big storms and traffic isn't moving.	These are big storms and traccice isn't moving	3287239	1472002859338	1472002859390	BKSP	8
6430	69107	These are big storms and traffic isn't moving.	These are big storms and traccice isn't moving	3287243	1472002859785	1472002859873	r	82
6430	69107	These are big storms and traffic isn't moving.	These are big storms and traccice isn't moving	3287245	1472002859899	1472002859978	o	79
6430	69107	These are big storms and traffic isn't moving.	These are big storms and traccice isn't moving	3287248	1472002860285	1472002860353	BKSP	8
6430	69107	These are big storms and traffic isn't moving.	These are big storms and traccice isn't moving	3287252	1472002860408	1472002860501	BKSP	8
6430	69107	These are big storms and traffic isn't moving.	These are big storms and traccice isn't moving	3287255	1472002860512	1472002860604	t	84
6430	69107	These are big storms and traffic isn't moving.	These are big storms and traccice isn't moving	3287257	1472002860622	1472002860706	o	79
6430	69107	These are big storms and traffic isn't moving.	These are big storms and traccice isn't moving	3287262	1472002860723	1472002860811	r	82
6430	69107	These are big storms and traffic isn't moving.	These are big storms and traccice isn't moving	3287264	1472002860892	1472002860973	m	77
6430	69107	These are big storms and traffic isn't moving.	These are big storms and traccice isn't moving	3287267	1472002861024	1472002861112	s	83
6430	69107	These are big storms and traffic isn't moving.	These are big storms and traccice isn't moving	3287271	1472002861179	1472002861247	 	32
6430	69107	These are big storms and traffic isn't moving.	These are big storms and traccice isn't moving	3287275	1472002861264	1472002861412	a	65
6430	69107	These are big storms and traffic isn't moving.	These are big storms and traccice isn't moving	3287308	1472002861372	1472002861448	n	78
6430	69107	These are big storms and traffic isn't moving.	These are big storms and traccice isn't moving	3287311	1472002861485	1472002861581	d	68
6430	69107	These are big storms and traffic isn't moving.	These are big storms and traccice isn't moving	3287312	1472002861593	1472002861685	 	32
6430	69107	These are big storms and traffic isn't moving.	These are big storms and traccice isn't moving	3287313	1472002861755	1472002861794	t	84
6430	69107	These are big storms and traffic isn't moving.	These are big storms and traccice isn't moving	3287314	1472002861875	1472002861947	r	82
6430	69107	These are big storms and traffic isn't moving.	These are big storms and traccice isn't moving	3287315	1472002861973	1472002862101	a	65
6430	69107	These are big storms and traffic isn't moving.	These are big storms and traccice isn't moving	3287345	1472002862154	1472002862226	c	67
6430	69107	These are big storms and traffic isn't moving.	These are big storms and traccice isn't moving	3287347	1472002862303	1472002862383	c	67
6430	69107	These are big storms and traffic isn't moving.	These are big storms and traccice isn't moving	3287349	1472002862412	1472002862500	i	73
6430	69107	These are big storms and traffic isn't moving.	These are big storms and traccice isn't moving	3287351	1472002862512	1472002862616	c	67
6430	69107	These are big storms and traffic isn't moving.	These are big storms and traccice isn't moving	3287354	1472002862656	1472002862720	e	69
6430	69107	These are big storms and traffic isn't moving.	These are big storms and traccice isn't moving	3287424	1472002862794	1472002862838	 	32
6430	69107	These are big storms and traffic isn't moving.	These are big storms and traccice isn't moving	3287428	1472002862924	1472002862988	i	73
6430	69107	These are big storms and traffic isn't moving.	These are big storms and traccice isn't moving	3287431	1472002863043	1472002863131	s	83
6430	69107	These are big storms and traffic isn't moving.	These are big storms and traccice isn't moving	3287435	1472002863211	1472002863295	n	78
6430	69107	These are big storms and traffic isn't moving.	These are big storms and traccice isn't moving	3287439	1472002864267	1472002864339	;	186
6430	69107	These are big storms and traffic isn't moving.	These are big storms and traccice isn't moving	3287496	1472002864418	1472002864494	t	84
6430	69107	These are big storms and traffic isn't moving.	These are big storms and traccice isn't moving	3287498	1472002864587	1472002864655	 	32
6430	69107	These are big storms and traffic isn't moving.	These are big storms and traccice isn't moving	3287500	1472002864756	1472002864840	m	77
6430	69107	These are big storms and traffic isn't moving.	These are big storms and traccice isn't moving	3287502	1472002864879	1472002864971	o	79
6430	69107	These are big storms and traffic isn't moving.	These are big storms and traccice isn't moving	3287504	1472002865123	1472002865191	BKSP	8
6430	69107	These are big storms and traffic isn't moving.	These are big storms and traccice isn't moving	3287505	1472002865261	1472002865333	BKSP	8
6430	69107	These are big storms and traffic isn't moving.	These are big storms and traccice isn't moving	3287506	1472002865406	1472002865482	BKSP	8
6430	69107	These are big storms and traffic isn't moving.	These are big storms and traccice isn't moving	3287508	1472002865575	1472002865623	BKSP	8
6430	69107	These are big storms and traffic isn't moving.	These are big storms and traccice isn't moving	3287510	1472002865704	1472002865796	BKSP	8
6430	69107	These are big storms and traffic isn't moving.	These are big storms and traccice isn't moving	3287512	1472002866271	1472002866335	'	222
6430	69107	These are big storms and traffic isn't moving.	These are big storms and traccice isn't moving	3287527	1472002866409	1472002866493	t	84
6430	69107	These are big storms and traffic isn't moving.	These are big storms and traccice isn't moving	3287530	1472002866545	1472002866613	 	32
6430	69107	These are big storms and traffic isn't moving.	These are big storms and traccice isn't moving	3287534	1472002866707	1472002866799	m	77
6430	69107	These are big storms and traffic isn't moving.	These are big storms and traccice isn't moving	3287537	1472002866819	1472002866915	o	79
6430	69107	These are big storms and traffic isn't moving.	These are big storms and traccice isn't moving	3287539	1472002866953	1472002867045	v	86
6430	69107	These are big storms and traffic isn't moving.	These are big storms and traccice isn't moving	3287737	1472002867065	1472002867157	i	73
6430	69107	These are big storms and traffic isn't moving.	These are big storms and traccice isn't moving	3287739	1472002867185	1472002867297	n	78
6430	69107	These are big storms and traffic isn't moving.	These are big storms and traccice isn't moving	3287741	1472002867305	1472002867385	g	71
6430	69135	You are welcome in Palacios this weekend, of course.	You are welcome in Palacios this weekend, of course. 	3287968	1472002876336	1472002876760	SHIFT	16
6430	69135	You are welcome in Palacios this weekend, of course.	You are welcome in Palacios this weekend, of course. 	3287965	1472002876688	1472002876756	Y	89
6430	69135	You are welcome in Palacios this weekend, of course.	You are welcome in Palacios this weekend, of course. 	3287971	1472002876779	1472002876883	o	79
6430	69135	You are welcome in Palacios this weekend, of course.	You are welcome in Palacios this weekend, of course. 	3287976	1472002876919	1472002876987	u	85
6430	69135	You are welcome in Palacios this weekend, of course.	You are welcome in Palacios this weekend, of course. 	3287979	1472002877120	1472002877196	 	32
6430	69135	You are welcome in Palacios this weekend, of course.	You are welcome in Palacios this weekend, of course. 	3287983	1472002877280	1472002877372	a	65
6430	69135	You are welcome in Palacios this weekend, of course.	You are welcome in Palacios this weekend, of course. 	3288003	1472002877699	1472002877826	r	82
6430	69135	You are welcome in Palacios this weekend, of course.	You are welcome in Palacios this weekend, of course. 	3288006	1472002877811	1472002877923	e	69
6430	69135	You are welcome in Palacios this weekend, of course.	You are welcome in Palacios this weekend, of course. 	3288008	1472002877956	1472002878048	 	32
6430	69135	You are welcome in Palacios this weekend, of course.	You are welcome in Palacios this weekend, of course. 	3288010	1472002878087	1472002878187	w	87
6430	69135	You are welcome in Palacios this weekend, of course.	You are welcome in Palacios this weekend, of course. 	3288012	1472002878227	1472002878299	o	79
6430	69135	You are welcome in Palacios this weekend, of course.	You are welcome in Palacios this weekend, of course. 	3288049	1472002878564	1472002878632	BKSP	8
6430	69135	You are welcome in Palacios this weekend, of course.	You are welcome in Palacios this weekend, of course. 	3288052	1472002878664	1472002878760	e	69
6430	69135	You are welcome in Palacios this weekend, of course.	You are welcome in Palacios this weekend, of course. 	3288054	1472002878808	1472002878896	l	76
6430	69135	You are welcome in Palacios this weekend, of course.	You are welcome in Palacios this weekend, of course. 	3288055	1472002878966	1472002879055	c	67
6430	69135	You are welcome in Palacios this weekend, of course.	You are welcome in Palacios this weekend, of course. 	3288056	1472002879046	1472002879130	o	79
6430	69135	You are welcome in Palacios this weekend, of course.	You are welcome in Palacios this weekend, of course. 	3288057	1472002879186	1472002879274	m	77
6430	69135	You are welcome in Palacios this weekend, of course.	You are welcome in Palacios this weekend, of course. 	3288079	1472002879332	1472002879412	e	69
6430	69135	You are welcome in Palacios this weekend, of course.	You are welcome in Palacios this weekend, of course. 	3288081	1472002879433	1472002879509	 	32
6430	69135	You are welcome in Palacios this weekend, of course.	You are welcome in Palacios this weekend, of course. 	3288083	1472002879563	1472002879666	i	73
6430	69135	You are welcome in Palacios this weekend, of course.	You are welcome in Palacios this weekend, of course. 	3288085	1472002879639	1472002879715	n	78
6430	69135	You are welcome in Palacios this weekend, of course.	You are welcome in Palacios this weekend, of course. 	3288087	1472002879796	1472002879876	 	32
6430	69135	You are welcome in Palacios this weekend, of course.	You are welcome in Palacios this weekend, of course. 	3288130	1472002879950	1472002880162	SHIFT	16
6430	69135	You are welcome in Palacios this weekend, of course.	You are welcome in Palacios this weekend, of course. 	3288128	1472002880054	1472002880154	P	80
6430	69135	You are welcome in Palacios this weekend, of course.	You are welcome in Palacios this weekend, of course. 	3288132	1472002880270	1472002880349	l	76
6430	69135	You are welcome in Palacios this weekend, of course.	You are welcome in Palacios this weekend, of course. 	3288134	1472002880449	1472002880545	a	65
6430	69135	You are welcome in Palacios this weekend, of course.	You are welcome in Palacios this weekend, of course. 	3288136	1472002880832	1472002880892	BKSP	8
6430	69135	You are welcome in Palacios this weekend, of course.	You are welcome in Palacios this weekend, of course. 	3288139	1472002880965	1472002881085	BKSP	8
6430	69135	You are welcome in Palacios this weekend, of course.	You are welcome in Palacios this weekend, of course. 	3288142	1472002881128	1472002881244	a	65
6430	69135	You are welcome in Palacios this weekend, of course.	You are welcome in Palacios this weekend, of course. 	3288144	1472002881296	1472002881364	l	76
6430	69135	You are welcome in Palacios this weekend, of course.	You are welcome in Palacios this weekend, of course. 	3288170	1472002881434	1472002881542	a	65
6430	69135	You are welcome in Palacios this weekend, of course.	You are welcome in Palacios this weekend, of course. 	3288173	1472002882127	1472002882222	c	67
6430	69135	You are welcome in Palacios this weekend, of course.	You are welcome in Palacios this weekend, of course. 	3288175	1472002882239	1472002882356	i	73
6430	69135	You are welcome in Palacios this weekend, of course.	You are welcome in Palacios this weekend, of course. 	3288177	1472002882347	1472002882522	o	79
6430	69135	You are welcome in Palacios this weekend, of course.	You are welcome in Palacios this weekend, of course. 	3288314	1472002882495	1472002882563	u	85
6430	69135	You are welcome in Palacios this weekend, of course.	You are welcome in Palacios this weekend, of course. 	3288316	1472002882622	1472002882686	s	83
6430	69135	You are welcome in Palacios this weekend, of course.	You are welcome in Palacios this weekend, of course. 	3288320	1472002882784	1472002882856	 	32
6430	69135	You are welcome in Palacios this weekend, of course.	You are welcome in Palacios this weekend, of course. 	3288325	1472002883183	1472002883251	BKSP	8
6430	69135	You are welcome in Palacios this weekend, of course.	You are welcome in Palacios this weekend, of course. 	3288330	1472002883326	1472002883398	BKSP	8
6430	69135	You are welcome in Palacios this weekend, of course.	You are welcome in Palacios this weekend, of course. 	3288336	1472002883475	1472002884310	BKSP	8
6430	69135	You are welcome in Palacios this weekend, of course.	You are welcome in Palacios this weekend, of course. 	3288340	1472002884458	1472002884518	BKSP	8
6430	69135	You are welcome in Palacios this weekend, of course.	You are welcome in Palacios this weekend, of course. 	3288345	1472002884602	1472002884677	BKSP	8
6430	69135	You are welcome in Palacios this weekend, of course.	You are welcome in Palacios this weekend, of course. 	3288350	1472002885177	1472002885252	BKSP	8
6430	69135	You are welcome in Palacios this weekend, of course.	You are welcome in Palacios this weekend, of course. 	3288355	1472002885446	1472002885674	SHIFT	16
6430	69135	You are welcome in Palacios this weekend, of course.	You are welcome in Palacios this weekend, of course. 	3288359	1472002885594	1472002885682	P	80
6430	69135	You are welcome in Palacios this weekend, of course.	You are welcome in Palacios this weekend, of course. 	3288362	1472002885823	1472002885910	a	65
6430	69135	You are welcome in Palacios this weekend, of course.	You are welcome in Palacios this weekend, of course. 	3288365	1472002885953	1472002886025	l	76
6430	69135	You are welcome in Palacios this weekend, of course.	You are welcome in Palacios this weekend, of course. 	3288390	1472002886144	1472002886240	a	65
6430	69135	You are welcome in Palacios this weekend, of course.	You are welcome in Palacios this weekend, of course. 	3288393	1472002886766	1472002886850	c	67
6430	69135	You are welcome in Palacios this weekend, of course.	You are welcome in Palacios this weekend, of course. 	3288396	1472002886967	1472002887011	i	73
6430	69135	You are welcome in Palacios this weekend, of course.	You are welcome in Palacios this weekend, of course. 	3288399	1472002887076	1472002887176	o	79
6430	69135	You are welcome in Palacios this weekend, of course.	You are welcome in Palacios this weekend, of course. 	3288403	1472002887284	1472002887375	s	83
6430	69135	You are welcome in Palacios this weekend, of course.	You are welcome in Palacios this weekend, of course. 	3288416	1472002887491	1472002887570	 	32
6430	69135	You are welcome in Palacios this weekend, of course.	You are welcome in Palacios this weekend, of course. 	3288419	1472002887648	1472002887723	t	84
6430	69135	You are welcome in Palacios this weekend, of course.	You are welcome in Palacios this weekend, of course. 	3288423	1472002887740	1472002887811	h	72
6430	69135	You are welcome in Palacios this weekend, of course.	You are welcome in Palacios this weekend, of course. 	3288426	1472002887844	1472002887911	i	73
6430	69135	You are welcome in Palacios this weekend, of course.	You are welcome in Palacios this weekend, of course. 	3288428	1472002887944	1472002888027	s	83
6430	69135	You are welcome in Palacios this weekend, of course.	You are welcome in Palacios this weekend, of course. 	3288442	1472002888106	1472002888173	 	32
6430	69135	You are welcome in Palacios this weekend, of course.	You are welcome in Palacios this weekend, of course. 	3288444	1472002888230	1472002888305	w	87
6430	69135	You are welcome in Palacios this weekend, of course.	You are welcome in Palacios this weekend, of course. 	3288447	1472002888397	1472002888460	e	69
6430	69135	You are welcome in Palacios this weekend, of course.	You are welcome in Palacios this weekend, of course. 	3288450	1472002888546	1472002888614	e	69
6430	69135	You are welcome in Palacios this weekend, of course.	You are welcome in Palacios this weekend, of course. 	3288453	1472002888655	1472002888726	k	75
6430	69135	You are welcome in Palacios this weekend, of course.	You are welcome in Palacios this weekend, of course. 	3288473	1472002888859	1472002888919	e	69
6430	69135	You are welcome in Palacios this weekend, of course.	You are welcome in Palacios this weekend, of course. 	3288475	1472002889125	1472002889201	n	78
6430	69135	You are welcome in Palacios this weekend, of course.	You are welcome in Palacios this weekend, of course. 	3288477	1472002889338	1472002889389	d	68
6430	69135	You are welcome in Palacios this weekend, of course.	You are welcome in Palacios this weekend, of course. 	3288480	1472002889531	1472002889606	,	188
6430	69135	You are welcome in Palacios this weekend, of course.	You are welcome in Palacios this weekend, of course. 	3288483	1472002889984	1472002890055	 	32
6430	69135	You are welcome in Palacios this weekend, of course.	You are welcome in Palacios this weekend, of course. 	3288516	1472002890156	1472002890223	o	79
6430	69135	You are welcome in Palacios this weekend, of course.	You are welcome in Palacios this weekend, of course. 	3288519	1472002890266	1472002890333	f	70
6430	69135	You are welcome in Palacios this weekend, of course.	You are welcome in Palacios this weekend, of course. 	3288523	1472002890397	1472002890468	 	32
6430	69135	You are welcome in Palacios this weekend, of course.	You are welcome in Palacios this weekend, of course. 	3288525	1472002890616	1472002890707	c	67
6430	69135	You are welcome in Palacios this weekend, of course.	You are welcome in Palacios this weekend, of course. 	3288526	1472002890712	1472002890883	o	79
6430	69135	You are welcome in Palacios this weekend, of course.	You are welcome in Palacios this weekend, of course. 	3288527	1472002890848	1472002890916	u	85
6430	69135	You are welcome in Palacios this weekend, of course.	You are welcome in Palacios this weekend, of course. 	3288528	1472002890947	1472002891010	r	82
6430	69135	You are welcome in Palacios this weekend, of course.	You are welcome in Palacios this weekend, of course. 	3288529	1472002891111	1472002891222	s	83
6430	69135	You are welcome in Palacios this weekend, of course.	You are welcome in Palacios this weekend, of course. 	3288530	1472002891261	1472002891333	e	69
6430	69135	You are welcome in Palacios this weekend, of course.	You are welcome in Palacios this weekend, of course. 	3288531	1472002891408	1472002891483	.	190
6430	69135	You are welcome in Palacios this weekend, of course.	You are welcome in Palacios this weekend, of course. 	3288532	1472002891584	1472002891652	 	32
6430	69151	In a separate room, next door.	In a separate room, next door	3288632	1472002893788	1472002894009	SHIFT	16
6430	69151	In a separate room, next door.	In a separate room, next door	3288634	1472002893944	1472002894032	I	73
6430	69151	In a separate room, next door.	In a separate room, next door	3288635	1472002894052	1472002894151	n	78
6430	69151	In a separate room, next door.	In a separate room, next door	3288636	1472002894240	1472002894347	a	65
6430	69151	In a separate room, next door.	In a separate room, next door	3288637	1472002894660	1472002894727	BKSP	8
6430	69151	In a separate room, next door.	In a separate room, next door	3288638	1472002894855	1472002894930	 	32
6430	69151	In a separate room, next door.	In a separate room, next door	3288639	1472002894978	1472002895102	a	65
6430	69151	In a separate room, next door.	In a separate room, next door	3288698	1472002895121	1472002895184	 	32
6430	69151	In a separate room, next door.	In a separate room, next door	3288699	1472002895235	1472002895346	s	83
6430	69151	In a separate room, next door.	In a separate room, next door	3288701	1472002895394	1472002895461	e	69
6430	69151	In a separate room, next door.	In a separate room, next door	3288705	1472002895543	1472002895574	p	80
6430	69151	In a separate room, next door.	In a separate room, next door	3288708	1472002895977	1472002896136	a	65
6430	69151	In a separate room, next door.	In a separate room, next door	3288729	1472002896340	1472002896380	r	82
6430	69151	In a separate room, next door.	In a separate room, next door	3288731	1472002896428	1472002896579	a	65
6430	69151	In a separate room, next door.	In a separate room, next door	3288734	1472002896588	1472002896639	t	84
6430	69151	In a separate room, next door.	In a separate room, next door	3288737	1472002896682	1472002896781	e	69
6430	69151	In a separate room, next door.	In a separate room, next door	3288740	1472002896890	1472002896957	 	32
6430	69151	In a separate room, next door.	In a separate room, next door	3288761	1472002897090	1472002897169	r	82
6430	69151	In a separate room, next door.	In a separate room, next door	3288764	1472002897218	1472002897277	o	79
6430	69151	In a separate room, next door.	In a separate room, next door	3288768	1472002897563	1472002897630	o	79
6430	69151	In a separate room, next door.	In a separate room, next door	3288773	1472002897916	1472002898109	m	77
6430	69151	In a separate room, next door.	In a separate room, next door	3288803	1472002898100	1472002898175	,	188
6430	69151	In a separate room, next door.	In a separate room, next door	3288806	1472002898272	1472002898343	 	32
6430	69151	In a separate room, next door.	In a separate room, next door	3288809	1472002898460	1472002898543	n	78
6430	69151	In a separate room, next door.	In a separate room, next door	3288812	1472002898584	1472002898675	e	69
6430	69151	In a separate room, next door.	In a separate room, next door	3288814	1472002899021	1472002899100	x	88
6430	69151	In a separate room, next door.	In a separate room, next door	3288817	1472002899281	1472002899368	t	84
6430	69151	In a separate room, next door.	In a separate room, next door	3288824	1472002899501	1472002899580	 	32
6430	69151	In a separate room, next door.	In a separate room, next door	3288828	1472002899705	1472002899772	d	68
6430	69151	In a separate room, next door.	In a separate room, next door	3288833	1472002899848	1472002899911	o	79
6430	69151	In a separate room, next door.	In a separate room, next door	3288839	1472002899991	1472002900062	o	79
6430	69151	In a separate room, next door.	In a separate room, next door	3288844	1472002900112	1472002900191	r	82
6430	69157	Did you not read my first email?	Did you not read my first email?	3288975	1472002902674	1472002902926	SHIFT	16
6430	69157	Did you not read my first email?	Did you not read my first email?	3288978	1472002902846	1472002902938	D	68
6430	69157	Did you not read my first email?	Did you not read my first email?	3288980	1472002902966	1472002903037	i	73
6430	69157	Did you not read my first email?	Did you not read my first email?	3288981	1472002903102	1472002903177	d	68
6430	69157	Did you not read my first email?	Did you not read my first email?	3288982	1472002903313	1472002903408	 	32
6430	69157	Did you not read my first email?	Did you not read my first email?	3288983	1472002903487	1472002903566	y	89
6430	69157	Did you not read my first email?	Did you not read my first email?	3288998	1472002903571	1472002903722	o	79
6430	69157	Did you not read my first email?	Did you not read my first email?	3288999	1472002903679	1472002903754	u	85
6430	69157	Did you not read my first email?	Did you not read my first email?	3289000	1472002903881	1472002903960	 	32
6430	69157	Did you not read my first email?	Did you not read my first email?	3289001	1472002904045	1472002904122	n	78
6430	69157	Did you not read my first email?	Did you not read my first email?	3289002	1472002904161	1472002904256	o	79
6430	69157	Did you not read my first email?	Did you not read my first email?	3289012	1472002904284	1472002904359	t	84
6430	69157	Did you not read my first email?	Did you not read my first email?	3289014	1472002904393	1472002904469	 	32
6430	69157	Did you not read my first email?	Did you not read my first email?	3289017	1472002904500	1472002904644	r	82
6430	69157	Did you not read my first email?	Did you not read my first email?	3289019	1472002904617	1472002904724	e	69
6430	69157	Did you not read my first email?	Did you not read my first email?	3289043	1472002904712	1472002904860	a	65
6430	69157	Did you not read my first email?	Did you not read my first email?	3289044	1472002904865	1472002904968	d	68
6430	69157	Did you not read my first email?	Did you not read my first email?	3289047	1472002905035	1472002905102	 	32
6430	69157	Did you not read my first email?	Did you not read my first email?	3289051	1472002905196	1472002905275	m	77
6430	69157	Did you not read my first email?	Did you not read my first email?	3289053	1472002905369	1472002905428	y	89
6430	69157	Did you not read my first email?	Did you not read my first email?	3289057	1472002905681	1472002905768	 	32
6430	69157	Did you not read my first email?	Did you not read my first email?	3289075	1472002905859	1472002905939	f	70
6430	69157	Did you not read my first email?	Did you not read my first email?	3289076	1472002905964	1472002906043	i	73
6430	69157	Did you not read my first email?	Did you not read my first email?	3289078	1472002906082	1472002906150	r	82
6430	69157	Did you not read my first email?	Did you not read my first email?	3289080	1472002906209	1472002906337	s	83
6430	69157	Did you not read my first email?	Did you not read my first email?	3289083	1472002906371	1472002906435	t	84
6430	69157	Did you not read my first email?	Did you not read my first email?	3289103	1472002906548	1472002906592	 	32
6430	69157	Did you not read my first email?	Did you not read my first email?	3289104	1472002906694	1472002906778	e	69
6430	69157	Did you not read my first email?	Did you not read my first email?	3289105	1472002906827	1472002906911	m	77
6430	69157	Did you not read my first email?	Did you not read my first email?	3289106	1472002906945	1472002907053	a	65
6430	69157	Did you not read my first email?	Did you not read my first email?	3289107	1472002907065	1472002907137	i	73
6430	69157	Did you not read my first email?	Did you not read my first email?	3289146	1472002907225	1472002907289	l	76
6430	69157	Did you not read my first email?	Did you not read my first email?	3289149	1472002907433	1472002907745	SHIFT	16
6430	69157	Did you not read my first email?	Did you not read my first email?	3289151	1472002907665	1472002907757	?	191
6430	69160	The UN still recognizes Lisbon as the administrator of the territory.	The UN still recognizes Lisbon as the administrator of the territory.	3289263	1472002909998	1472002910406	SHIFT	16
6430	69160	The UN still recognizes Lisbon as the administrator of the territory.	The UN still recognizes Lisbon as the administrator of the territory.	3289259	1472002910262	1472002910351	T	84
6430	69160	The UN still recognizes Lisbon as the administrator of the territory.	The UN still recognizes Lisbon as the administrator of the territory.	3289266	1472002910379	1472002910446	H	72
6430	69160	The UN still recognizes Lisbon as the administrator of the territory.	The UN still recognizes Lisbon as the administrator of the territory.	3289268	1472002910521	1472002910593	e	69
6430	69160	The UN still recognizes Lisbon as the administrator of the territory.	The UN still recognizes Lisbon as the administrator of the territory.	3289269	1472002910654	1472002910764	 	32
6430	69160	The UN still recognizes Lisbon as the administrator of the territory.	The UN still recognizes Lisbon as the administrator of the territory.	3289300	1472002910782	1472002911346	SHIFT	16
6430	69160	The UN still recognizes Lisbon as the administrator of the territory.	The UN still recognizes Lisbon as the administrator of the territory.	3289270	1472002910955	1472002911054	U	85
6430	69160	The UN still recognizes Lisbon as the administrator of the territory.	The UN still recognizes Lisbon as the administrator of the territory.	3289299	1472002911134	1472002911206	N	78
6430	69160	The UN still recognizes Lisbon as the administrator of the territory.	The UN still recognizes Lisbon as the administrator of the territory.	3289305	1472002911493	1472002911573	 	32
6430	69160	The UN still recognizes Lisbon as the administrator of the territory.	The UN still recognizes Lisbon as the administrator of the territory.	3289308	1472002911698	1472002911782	s	83
6430	69160	The UN still recognizes Lisbon as the administrator of the territory.	The UN still recognizes Lisbon as the administrator of the territory.	3289310	1472002911841	1472002911905	t	84
6430	69160	The UN still recognizes Lisbon as the administrator of the territory.	The UN still recognizes Lisbon as the administrator of the territory.	3289311	1472002911935	1472002911999	i	73
6430	69160	The UN still recognizes Lisbon as the administrator of the territory.	The UN still recognizes Lisbon as the administrator of the territory.	3289333	1472002912078	1472002912142	l	76
6430	69160	The UN still recognizes Lisbon as the administrator of the territory.	The UN still recognizes Lisbon as the administrator of the territory.	3289337	1472002912215	1472002912283	l	76
6430	69160	The UN still recognizes Lisbon as the administrator of the territory.	The UN still recognizes Lisbon as the administrator of the territory.	3289340	1472002912355	1472002912443	 	32
6430	69160	The UN still recognizes Lisbon as the administrator of the territory.	The UN still recognizes Lisbon as the administrator of the territory.	3289343	1472002912497	1472002912569	r	82
6430	69160	The UN still recognizes Lisbon as the administrator of the territory.	The UN still recognizes Lisbon as the administrator of the territory.	3289345	1472002912603	1472002912691	e	69
6430	69160	The UN still recognizes Lisbon as the administrator of the territory.	The UN still recognizes Lisbon as the administrator of the territory.	3289404	1472002912849	1472002912933	c	67
6430	69160	The UN still recognizes Lisbon as the administrator of the territory.	The UN still recognizes Lisbon as the administrator of the territory.	3289405	1472002913398	1472002913478	o	79
6430	69160	The UN still recognizes Lisbon as the administrator of the territory.	The UN still recognizes Lisbon as the administrator of the territory.	3289409	1472002913883	1472002913949	g	71
6430	69160	The UN still recognizes Lisbon as the administrator of the territory.	The UN still recognizes Lisbon as the administrator of the territory.	3289411	1472002914227	1472002914289	n	78
6430	69160	The UN still recognizes Lisbon as the administrator of the territory.	The UN still recognizes Lisbon as the administrator of the territory.	3289413	1472002914329	1472002914400	i	73
6430	69160	The UN still recognizes Lisbon as the administrator of the territory.	The UN still recognizes Lisbon as the administrator of the territory.	3289459	1472002914624	1472002914712	z	90
6430	69160	The UN still recognizes Lisbon as the administrator of the territory.	The UN still recognizes Lisbon as the administrator of the territory.	3289460	1472002914918	1472002915002	e	69
6430	69160	The UN still recognizes Lisbon as the administrator of the territory.	The UN still recognizes Lisbon as the administrator of the territory.	3289461	1472002915372	1472002915456	s	83
6430	69160	The UN still recognizes Lisbon as the administrator of the territory.	The UN still recognizes Lisbon as the administrator of the territory.	3289462	1472002915615	1472002915675	 	32
6430	69160	The UN still recognizes Lisbon as the administrator of the territory.	The UN still recognizes Lisbon as the administrator of the territory.	3289464	1472002915766	1472002915986	SHIFT	16
6430	69160	The UN still recognizes Lisbon as the administrator of the territory.	The UN still recognizes Lisbon as the administrator of the territory.	3289525	1472002915918	1472002915994	L	76
6430	69160	The UN still recognizes Lisbon as the administrator of the territory.	The UN still recognizes Lisbon as the administrator of the territory.	3289526	1472002916213	1472002916261	i	73
6430	69160	The UN still recognizes Lisbon as the administrator of the territory.	The UN still recognizes Lisbon as the administrator of the territory.	3289527	1472002916303	1472002916395	s	83
6430	69160	The UN still recognizes Lisbon as the administrator of the territory.	The UN still recognizes Lisbon as the administrator of the territory.	3289529	1472002916869	1472002916905	v	86
6430	69160	The UN still recognizes Lisbon as the administrator of the territory.	The UN still recognizes Lisbon as the administrator of the territory.	3289532	1472002917076	1472002917180	o	79
6430	69160	The UN still recognizes Lisbon as the administrator of the territory.	The UN still recognizes Lisbon as the administrator of the territory.	3289534	1472002917304	1472002917376	n	78
6430	69160	The UN still recognizes Lisbon as the administrator of the territory.	The UN still recognizes Lisbon as the administrator of the territory.	3289584	1472002917488	1472002917572	 	32
6430	69160	The UN still recognizes Lisbon as the administrator of the territory.	The UN still recognizes Lisbon as the administrator of the territory.	3289585	1472002917653	1472002917769	a	65
6430	69160	The UN still recognizes Lisbon as the administrator of the territory.	The UN still recognizes Lisbon as the administrator of the territory.	3289587	1472002917969	1472002918029	BKSP	8
6430	69160	The UN still recognizes Lisbon as the administrator of the territory.	The UN still recognizes Lisbon as the administrator of the territory.	3289591	1472002918103	1472002918179	BKSP	8
6430	69160	The UN still recognizes Lisbon as the administrator of the territory.	The UN still recognizes Lisbon as the administrator of the territory.	3289595	1472002918256	1472002918332	BKSP	8
6430	69160	The UN still recognizes Lisbon as the administrator of the territory.	The UN still recognizes Lisbon as the administrator of the territory.	3289599	1472002918414	1472002918486	BKSP	8
6430	69160	The UN still recognizes Lisbon as the administrator of the territory.	The UN still recognizes Lisbon as the administrator of the territory.	3289604	1472002918556	1472002918648	BKSP	8
6430	69160	The UN still recognizes Lisbon as the administrator of the territory.	The UN still recognizes Lisbon as the administrator of the territory.	3289609	1472002918664	1472002918744	b	66
6430	69160	The UN still recognizes Lisbon as the administrator of the territory.	The UN still recognizes Lisbon as the administrator of the territory.	3289612	1472002918830	1472002918926	o	79
6430	69160	The UN still recognizes Lisbon as the administrator of the territory.	The UN still recognizes Lisbon as the administrator of the territory.	3289616	1472002919022	1472002919098	n	78
6430	69160	The UN still recognizes Lisbon as the administrator of the territory.	The UN still recognizes Lisbon as the administrator of the territory.	3289632	1472002919206	1472002919266	 	32
6430	69160	The UN still recognizes Lisbon as the administrator of the territory.	The UN still recognizes Lisbon as the administrator of the territory.	3289635	1472002919314	1472002919438	a	65
6430	69160	The UN still recognizes Lisbon as the administrator of the territory.	The UN still recognizes Lisbon as the administrator of the territory.	3289639	1472002919514	1472002919573	s	83
6430	69160	The UN still recognizes Lisbon as the administrator of the territory.	The UN still recognizes Lisbon as the administrator of the territory.	3289642	1472002919664	1472002919740	 	32
6430	69160	The UN still recognizes Lisbon as the administrator of the territory.	The UN still recognizes Lisbon as the administrator of the territory.	3289644	1472002919826	1472002919898	t	84
6430	69160	The UN still recognizes Lisbon as the administrator of the territory.	The UN still recognizes Lisbon as the administrator of the territory.	3289667	1472002919902	1472002919982	h	72
6430	69160	The UN still recognizes Lisbon as the administrator of the territory.	The UN still recognizes Lisbon as the administrator of the territory.	3289669	1472002920029	1472002920113	e	69
6430	69160	The UN still recognizes Lisbon as the administrator of the territory.	The UN still recognizes Lisbon as the administrator of the territory.	3289670	1472002920193	1472002920253	 	32
6430	69160	The UN still recognizes Lisbon as the administrator of the territory.	The UN still recognizes Lisbon as the administrator of the territory.	3289671	1472002920333	1472002920429	a	65
6430	69160	The UN still recognizes Lisbon as the administrator of the territory.	The UN still recognizes Lisbon as the administrator of the territory.	3289672	1472002920529	1472002920609	d	68
6430	69160	The UN still recognizes Lisbon as the administrator of the territory.	The UN still recognizes Lisbon as the administrator of the territory.	3289729	1472002920704	1472002920764	m	77
6430	69160	The UN still recognizes Lisbon as the administrator of the territory.	The UN still recognizes Lisbon as the administrator of the territory.	3289730	1472002921354	1472002921401	i	73
6430	69160	The UN still recognizes Lisbon as the administrator of the territory.	The UN still recognizes Lisbon as the administrator of the territory.	3289731	1472002921535	1472002921599	n	78
6430	69160	The UN still recognizes Lisbon as the administrator of the territory.	The UN still recognizes Lisbon as the administrator of the territory.	3289732	1472002921657	1472002921741	i	73
6430	69160	The UN still recognizes Lisbon as the administrator of the territory.	The UN still recognizes Lisbon as the administrator of the territory.	3289733	1472002921769	1472002921869	s	83
6430	69160	The UN still recognizes Lisbon as the administrator of the territory.	The UN still recognizes Lisbon as the administrator of the territory.	3289792	1472002921986	1472002922058	t	84
6430	69160	The UN still recognizes Lisbon as the administrator of the territory.	The UN still recognizes Lisbon as the administrator of the territory.	3289794	1472002922131	1472002922331	a	65
6430	69160	The UN still recognizes Lisbon as the administrator of the territory.	The UN still recognizes Lisbon as the administrator of the territory.	3289799	1472002922646	1472002922720	r	82
6430	69160	The UN still recognizes Lisbon as the administrator of the territory.	The UN still recognizes Lisbon as the administrator of the territory.	3289802	1472002922881	1472002922941	BKSP	8
6430	69160	The UN still recognizes Lisbon as the administrator of the territory.	The UN still recognizes Lisbon as the administrator of the territory.	3289804	1472002922999	1472002923087	BKSP	8
6430	69160	The UN still recognizes Lisbon as the administrator of the territory.	The UN still recognizes Lisbon as the administrator of the territory.	3289807	1472002923163	1472002923259	r	82
6430	69160	The UN still recognizes Lisbon as the administrator of the territory.	The UN still recognizes Lisbon as the administrator of the territory.	3289809	1472002923341	1472002923473	a	65
6430	69160	The UN still recognizes Lisbon as the administrator of the territory.	The UN still recognizes Lisbon as the administrator of the territory.	3289835	1472002923493	1472002923569	t	84
6430	69160	The UN still recognizes Lisbon as the administrator of the territory.	The UN still recognizes Lisbon as the administrator of the territory.	3289837	1472002923719	1472002923771	o	79
6430	69160	The UN still recognizes Lisbon as the administrator of the territory.	The UN still recognizes Lisbon as the administrator of the territory.	3289838	1472002923999	1472002924083	r	82
6430	69160	The UN still recognizes Lisbon as the administrator of the territory.	The UN still recognizes Lisbon as the administrator of the territory.	3289839	1472002924154	1472002924214	 	32
6430	69160	The UN still recognizes Lisbon as the administrator of the territory.	The UN still recognizes Lisbon as the administrator of the territory.	3289840	1472002924303	1472002924371	o	79
6430	69160	The UN still recognizes Lisbon as the administrator of the territory.	The UN still recognizes Lisbon as the administrator of the territory.	3289844	1472002924399	1472002924499	f	70
6430	69160	The UN still recognizes Lisbon as the administrator of the territory.	The UN still recognizes Lisbon as the administrator of the territory.	3289846	1472002924523	1472002924583	 	32
6430	69160	The UN still recognizes Lisbon as the administrator of the territory.	The UN still recognizes Lisbon as the administrator of the territory.	3289848	1472002924632	1472002924704	t	84
6430	69160	The UN still recognizes Lisbon as the administrator of the territory.	The UN still recognizes Lisbon as the administrator of the territory.	3289850	1472002924720	1472002924784	h	72
6430	69160	The UN still recognizes Lisbon as the administrator of the territory.	The UN still recognizes Lisbon as the administrator of the territory.	3289853	1472002924849	1472002924921	e	69
6430	69160	The UN still recognizes Lisbon as the administrator of the territory.	The UN still recognizes Lisbon as the administrator of the territory.	3289858	1472002924945	1472002925021	 	32
6430	69160	The UN still recognizes Lisbon as the administrator of the territory.	The UN still recognizes Lisbon as the administrator of the territory.	3289859	1472002925139	1472002925215	t	84
6430	69160	The UN still recognizes Lisbon as the administrator of the territory.	The UN still recognizes Lisbon as the administrator of the territory.	3289860	1472002925287	1472002925375	e	69
6430	69160	The UN still recognizes Lisbon as the administrator of the territory.	The UN still recognizes Lisbon as the administrator of the territory.	3289861	1472002925463	1472002925487	r	82
6430	69160	The UN still recognizes Lisbon as the administrator of the territory.	The UN still recognizes Lisbon as the administrator of the territory.	3289862	1472002925586	1472002925662	r	82
6430	69160	The UN still recognizes Lisbon as the administrator of the territory.	The UN still recognizes Lisbon as the administrator of the territory.	3289879	1472002925731	1472002925799	i	73
6430	69160	The UN still recognizes Lisbon as the administrator of the territory.	The UN still recognizes Lisbon as the administrator of the territory.	3289883	1472002925881	1472002925953	t	84
6430	69160	The UN still recognizes Lisbon as the administrator of the territory.	The UN still recognizes Lisbon as the administrator of the territory.	3289886	1472002925978	1472002926054	o	79
6430	69160	The UN still recognizes Lisbon as the administrator of the territory.	The UN still recognizes Lisbon as the administrator of the territory.	3289889	1472002926113	1472002926201	r	82
6430	69160	The UN still recognizes Lisbon as the administrator of the territory.	The UN still recognizes Lisbon as the administrator of the territory.	3289892	1472002926222	1472002926294	y	89
6430	69160	The UN still recognizes Lisbon as the administrator of the territory.	The UN still recognizes Lisbon as the administrator of the territory.	3289899	1472002926495	1472002926563	.	190
6430	69176	The team feels confident that Martin will be available.	The team feels confident that Martin will be available. 	3290051	1472002928290	1472002928538	SHIFT	16
6430	69176	The team feels confident that Martin will be available.	The team feels confident that Martin will be available. 	3290050	1472002928454	1472002928534	T	84
6430	69176	The team feels confident that Martin will be available.	The team feels confident that Martin will be available. 	3290056	1472002928565	1472002928633	h	72
6430	69176	The team feels confident that Martin will be available.	The team feels confident that Martin will be available. 	3290059	1472002928684	1472002928760	e	69
6430	69176	The team feels confident that Martin will be available.	The team feels confident that Martin will be available. 	3290062	1472002930181	1472002930241	 	32
6430	69176	The team feels confident that Martin will be available.	The team feels confident that Martin will be available. 	3290064	1472002930338	1472002930418	t	84
6430	69176	The team feels confident that Martin will be available.	The team feels confident that Martin will be available. 	3290087	1472002930434	1472002930506	h	72
6430	69176	The team feels confident that Martin will be available.	The team feels confident that Martin will be available. 	3290089	1472002930549	1472002930633	e	69
6430	69176	The team feels confident that Martin will be available.	The team feels confident that Martin will be available. 	3290092	1472002930686	1472002930798	a	65
6430	69176	The team feels confident that Martin will be available.	The team feels confident that Martin will be available. 	3290095	1472002930879	1472002930951	m	77
6430	69176	The team feels confident that Martin will be available.	The team feels confident that Martin will be available. 	3290098	1472002931304	1472002931359	BKSP	8
6430	69176	The team feels confident that Martin will be available.	The team feels confident that Martin will be available. 	3290102	1472002931442	1472002931506	BKSP	8
6430	69176	The team feels confident that Martin will be available.	The team feels confident that Martin will be available. 	3290106	1472002931600	1472002931644	BKSP	8
6430	69176	The team feels confident that Martin will be available.	The team feels confident that Martin will be available. 	3290110	1472002931726	1472002931802	BKSP	8
6430	69176	The team feels confident that Martin will be available.	The team feels confident that Martin will be available. 	3290114	1472002931818	1472002931914	e	69
6430	69176	The team feels confident that Martin will be available.	The team feels confident that Martin will be available. 	3290127	1472002931930	1472002932034	a	65
6430	69176	The team feels confident that Martin will be available.	The team feels confident that Martin will be available. 	3290128	1472002932042	1472002932114	m	77
6430	69176	The team feels confident that Martin will be available.	The team feels confident that Martin will be available. 	3290129	1472002932244	1472002932304	 	32
6430	69176	The team feels confident that Martin will be available.	The team feels confident that Martin will be available. 	3290131	1472002932331	1472002932403	f	70
6430	69176	The team feels confident that Martin will be available.	The team feels confident that Martin will be available. 	3290133	1472002932500	1472002932564	e	69
6430	69176	The team feels confident that Martin will be available.	The team feels confident that Martin will be available. 	3290177	1472002932658	1472002932714	e	69
6430	69176	The team feels confident that Martin will be available.	The team feels confident that Martin will be available. 	3290178	1472002932749	1472002932837	l	76
6430	69176	The team feels confident that Martin will be available.	The team feels confident that Martin will be available. 	3290181	1472002933286	1472002933358	s	83
6430	69176	The team feels confident that Martin will be available.	The team feels confident that Martin will be available. 	3290183	1472002933434	1472002933490	 	32
6430	69176	The team feels confident that Martin will be available.	The team feels confident that Martin will be available. 	3290187	1472002933730	1472002933814	c	67
6430	69176	The team feels confident that Martin will be available.	The team feels confident that Martin will be available. 	3290218	1472002933831	1472002933895	o	79
6430	69176	The team feels confident that Martin will be available.	The team feels confident that Martin will be available. 	3290219	1472002933965	1472002934057	n	78
6430	69176	The team feels confident that Martin will be available.	The team feels confident that Martin will be available. 	3290220	1472002934377	1472002934457	d	68
6430	69176	The team feels confident that Martin will be available.	The team feels confident that Martin will be available. 	3290222	1472002934564	1472002934636	i	73
6430	69176	The team feels confident that Martin will be available.	The team feels confident that Martin will be available. 	3290225	1472002934765	1472002934809	d	68
6430	69176	The team feels confident that Martin will be available.	The team feels confident that Martin will be available. 	3290257	1472002934968	1472002935000	e	69
6430	69176	The team feels confident that Martin will be available.	The team feels confident that Martin will be available. 	3290259	1472002935260	1472002935336	n	78
6430	69176	The team feels confident that Martin will be available.	The team feels confident that Martin will be available. 	3290261	1472002935356	1472002935440	t	84
6430	69176	The team feels confident that Martin will be available.	The team feels confident that Martin will be available. 	3290264	1472002935510	1472002935582	 	32
6430	69176	The team feels confident that Martin will be available.	The team feels confident that Martin will be available. 	3290270	1472002935608	1472002935728	t	84
6430	69176	The team feels confident that Martin will be available.	The team feels confident that Martin will be available. 	3290326	1472002935712	1472002935785	h	72
6430	69176	The team feels confident that Martin will be available.	The team feels confident that Martin will be available. 	3290331	1472002935776	1472002935908	a	65
6430	69176	The team feels confident that Martin will be available.	The team feels confident that Martin will be available. 	3290336	1472002935860	1472002935944	t	84
6430	69176	The team feels confident that Martin will be available.	The team feels confident that Martin will be available. 	3290343	1472002935997	1472002936057	 	32
6430	69176	The team feels confident that Martin will be available.	The team feels confident that Martin will be available. 	3290348	1472002936283	1472002936351	m	77
6430	69176	The team feels confident that Martin will be available.	The team feels confident that Martin will be available. 	3290352	1472002936665	1472002936713	BKSP	8
6430	69176	The team feels confident that Martin will be available.	The team feels confident that Martin will be available. 	3290382	1472002936850	1472002937182	SHIFT	16
6430	69176	The team feels confident that Martin will be available.	The team feels confident that Martin will be available. 	3290355	1472002936974	1472002937074	M	77
6430	69176	The team feels confident that Martin will be available.	The team feels confident that Martin will be available. 	3290384	1472002937146	1472002937218	A	65
6430	69176	The team feels confident that Martin will be available.	The team feels confident that Martin will be available. 	3290389	1472002937471	1472002937563	r	82
6430	69176	The team feels confident that Martin will be available.	The team feels confident that Martin will be available. 	3290393	1472002937818	1472002937877	BKSP	8
6430	69176	The team feels confident that Martin will be available.	The team feels confident that Martin will be available. 	3290398	1472002937934	1472002938022	BKSP	8
6430	69176	The team feels confident that Martin will be available.	The team feels confident that Martin will be available. 	3290404	1472002938030	1472002938154	a	65
6430	69176	The team feels confident that Martin will be available.	The team feels confident that Martin will be available. 	3290409	1472002938130	1472002938230	r	82
6430	69176	The team feels confident that Martin will be available.	The team feels confident that Martin will be available. 	3290411	1472002938316	1472002938392	t	84
6430	69176	The team feels confident that Martin will be available.	The team feels confident that Martin will be available. 	3290431	1472002938429	1472002938597	i	73
6430	69176	The team feels confident that Martin will be available.	The team feels confident that Martin will be available. 	3290432	1472002938876	1472002938960	n	78
6430	69176	The team feels confident that Martin will be available.	The team feels confident that Martin will be available. 	3290433	1472002939080	1472002939152	 	32
6430	69176	The team feels confident that Martin will be available.	The team feels confident that Martin will be available. 	3290435	1472002939212	1472002939296	w	87
6430	69176	The team feels confident that Martin will be available.	The team feels confident that Martin will be available. 	3290437	1472002939313	1472002939369	i	73
6430	69176	The team feels confident that Martin will be available.	The team feels confident that Martin will be available. 	3290476	1472002939462	1472002939538	l	76
6430	69176	The team feels confident that Martin will be available.	The team feels confident that Martin will be available. 	3290478	1472002939602	1472002939682	l	76
6430	69176	The team feels confident that Martin will be available.	The team feels confident that Martin will be available. 	3290480	1472002939754	1472002939818	 	32
6430	69176	The team feels confident that Martin will be available.	The team feels confident that Martin will be available. 	3290484	1472002939985	1472002940061	e	69
6430	69176	The team feels confident that Martin will be available.	The team feels confident that Martin will be available. 	3290489	1472002940166	1472002940218	 	32
6430	69176	The team feels confident that Martin will be available.	The team feels confident that Martin will be available. 	3290530	1472002940443	1472002940491	BKSP	8
6430	69176	The team feels confident that Martin will be available.	The team feels confident that Martin will be available. 	3290535	1472002940572	1472002940651	BKSP	8
6430	69176	The team feels confident that Martin will be available.	The team feels confident that Martin will be available. 	3290540	1472002940659	1472002940739	b	66
6430	69176	The team feels confident that Martin will be available.	The team feels confident that Martin will be available. 	3290544	1472002940818	1472002940906	e	69
6430	69176	The team feels confident that Martin will be available.	The team feels confident that Martin will be available. 	3290547	1472002940964	1472002941052	 	32
6430	69176	The team feels confident that Martin will be available.	The team feels confident that Martin will be available. 	3290552	1472002941118	1472002941218	a	65
6430	69176	The team feels confident that Martin will be available.	The team feels confident that Martin will be available. 	3290556	1472002941300	1472002941392	v	86
6430	69176	The team feels confident that Martin will be available.	The team feels confident that Martin will be available. 	3290586	1472002941672	1472002941736	i	73
6430	69176	The team feels confident that Martin will be available.	The team feels confident that Martin will be available. 	3290588	1472002942007	1472002942066	BKSP	8
6430	69176	The team feels confident that Martin will be available.	The team feels confident that Martin will be available. 	3290591	1472002942097	1472002942237	a	65
6430	69176	The team feels confident that Martin will be available.	The team feels confident that Martin will be available. 	3290596	1472002942217	1472002942293	i	73
6430	69176	The team feels confident that Martin will be available.	The team feels confident that Martin will be available. 	3290601	1472002942361	1472002942457	l	76
6430	69176	The team feels confident that Martin will be available.	The team feels confident that Martin will be available. 	3290606	1472002942557	1472002942669	a	65
6430	69176	The team feels confident that Martin will be available.	The team feels confident that Martin will be available. 	3290633	1472002942832	1472002942900	b	66
6430	69176	The team feels confident that Martin will be available.	The team feels confident that Martin will be available. 	3290635	1472002942974	1472002943042	l	76
6430	69176	The team feels confident that Martin will be available.	The team feels confident that Martin will be available. 	3290641	1472002943084	1472002943152	e	69
6430	69176	The team feels confident that Martin will be available.	The team feels confident that Martin will be available. 	3290645	1472002943209	1472002943293	.	190
6430	69176	The team feels confident that Martin will be available.	The team feels confident that Martin will be available. 	3290648	1472002943459	1472002943487	 	32
6430	69194	We know the engine is capable.	We know the engine is capable. 	3290742	1472002945543	1472002945807	SHIFT	16
6430	69194	We know the engine is capable.	We know the engine is capable. 	3290745	1472002945730	1472002945823	W	87
6430	69194	We know the engine is capable.	We know the engine is capable. 	3290748	1472002945867	1472002945951	e	69
6430	69194	We know the engine is capable.	We know the engine is capable. 	3290751	1472002946018	1472002946074	 	32
6430	69194	We know the engine is capable.	We know the engine is capable. 	3290754	1472002946153	1472002946248	k	75
6430	69194	We know the engine is capable.	We know the engine is capable. 	3290755	1472002946261	1472002946341	n	78
6430	69194	We know the engine is capable.	We know the engine is capable. 	3290759	1472002946377	1472002946453	o	79
6430	69194	We know the engine is capable.	We know the engine is capable. 	3290764	1472002946492	1472002946592	w	87
6430	69194	We know the engine is capable.	We know the engine is capable. 	3290770	1472002946610	1472002946686	 	32
6430	69194	We know the engine is capable.	We know the engine is capable. 	3290777	1472002946733	1472002946828	t	84
6430	69194	We know the engine is capable.	We know the engine is capable. 	3290807	1472002946821	1472002946897	h	72
6430	69194	We know the engine is capable.	We know the engine is capable. 	3290808	1472002946969	1472002947049	e	69
6430	69194	We know the engine is capable.	We know the engine is capable. 	3290809	1472002947139	1472002947207	 	32
6430	69194	We know the engine is capable.	We know the engine is capable. 	3290810	1472002947296	1472002947368	e	69
6430	69194	We know the engine is capable.	We know the engine is capable. 	3290811	1472002947485	1472002947565	n	78
6430	69194	We know the engine is capable.	We know the engine is capable. 	3290812	1472002947657	1472002947741	g	71
6430	69194	We know the engine is capable.	We know the engine is capable. 	3290836	1472002947788	1472002947876	i	73
6430	69194	We know the engine is capable.	We know the engine is capable. 	3290838	1472002947938	1472002948018	n	78
6430	69194	We know the engine is capable.	We know the engine is capable. 	3290839	1472002948062	1472002948118	e	69
6430	69194	We know the engine is capable.	We know the engine is capable. 	3290841	1472002948463	1472002948542	 	32
6430	69194	We know the engine is capable.	We know the engine is capable. 	3290843	1472002948627	1472002948711	i	73
6430	69194	We know the engine is capable.	We know the engine is capable. 	3290879	1472002948758	1472002948846	s	83
6430	69194	We know the engine is capable.	We know the engine is capable. 	3290882	1472002948906	1472002948974	 	32
6430	69194	We know the engine is capable.	We know the engine is capable. 	3290886	1472002949063	1472002949179	c	67
6430	69194	We know the engine is capable.	We know the engine is capable. 	3290889	1472002949231	1472002949287	a	65
6430	69194	We know the engine is capable.	We know the engine is capable. 	3290893	1472002949359	1472002949435	p	80
6430	69194	We know the engine is capable.	We know the engine is capable. 	3290932	1472002949549	1472002949585	a	65
6430	69194	We know the engine is capable.	We know the engine is capable. 	3290937	1472002949707	1472002949779	b	66
6430	69194	We know the engine is capable.	We know the engine is capable. 	3290943	1472002949965	1472002950029	l	76
6430	69194	We know the engine is capable.	We know the engine is capable. 	3290947	1472002950123	1472002950175	e	69
6430	69194	We know the engine is capable.	We know the engine is capable. 	3290952	1472002950278	1472002950345	.	190
6430	69194	We know the engine is capable.	We know the engine is capable. 	3290971	1472002950477	1472002950533	 	32
6430	69200	I was a bit rusty but I didn't want to miss the elections back home.	I was a bit rusty but I didn't want to miss the elections back home.	3291085	1472002952852	1472002953081	SHIFT	16
6430	69200	I was a bit rusty but I didn't want to miss the elections back home.	I was a bit rusty but I didn't want to miss the elections back home.	3291082	1472002953008	1472002953073	I	73
6430	69200	I was a bit rusty but I didn't want to miss the elections back home.	I was a bit rusty but I didn't want to miss the elections back home.	3291089	1472002953331	1472002953406	 	32
6430	69200	I was a bit rusty but I didn't want to miss the elections back home.	I was a bit rusty but I didn't want to miss the elections back home.	3291092	1472002953453	1472002953544	w	87
6430	69200	I was a bit rusty but I didn't want to miss the elections back home.	I was a bit rusty but I didn't want to miss the elections back home.	3291096	1472002953571	1472002953746	a	65
6430	69200	I was a bit rusty but I didn't want to miss the elections back home.	I was a bit rusty but I didn't want to miss the elections back home.	3291117	1472002953715	1472002953810	s	83
6430	69200	I was a bit rusty but I didn't want to miss the elections back home.	I was a bit rusty but I didn't want to miss the elections back home.	3291119	1472002953835	1472002953914	 	32
6430	69200	I was a bit rusty but I didn't want to miss the elections back home.	I was a bit rusty but I didn't want to miss the elections back home.	3291122	1472002953958	1472002954077	a	65
6430	69200	I was a bit rusty but I didn't want to miss the elections back home.	I was a bit rusty but I didn't want to miss the elections back home.	3291126	1472002954106	1472002954185	 	32
6430	69200	I was a bit rusty but I didn't want to miss the elections back home.	I was a bit rusty but I didn't want to miss the elections back home.	3291130	1472002954211	1472002954282	b	66
6430	69200	I was a bit rusty but I didn't want to miss the elections back home.	I was a bit rusty but I didn't want to miss the elections back home.	3291135	1472002954336	1472002954407	i	73
6430	69200	I was a bit rusty but I didn't want to miss the elections back home.	I was a bit rusty but I didn't want to miss the elections back home.	3291166	1472002954497	1472002954568	t	84
6430	69200	I was a bit rusty but I didn't want to miss the elections back home.	I was a bit rusty but I didn't want to miss the elections back home.	3291167	1472002954687	1472002954751	 	32
6430	69200	I was a bit rusty but I didn't want to miss the elections back home.	I was a bit rusty but I didn't want to miss the elections back home.	3291168	1472002954816	1472002954927	r	82
6430	69200	I was a bit rusty but I didn't want to miss the elections back home.	I was a bit rusty but I didn't want to miss the elections back home.	3291169	1472002955073	1472002955128	u	85
6430	69200	I was a bit rusty but I didn't want to miss the elections back home.	I was a bit rusty but I didn't want to miss the elections back home.	3291171	1472002955419	1472002955510	s	83
6430	69200	I was a bit rusty but I didn't want to miss the elections back home.	I was a bit rusty but I didn't want to miss the elections back home.	3291248	1472002955750	1472002955837	t	84
6430	69200	I was a bit rusty but I didn't want to miss the elections back home.	I was a bit rusty but I didn't want to miss the elections back home.	3291251	1472002955960	1472002956031	y	89
6430	69200	I was a bit rusty but I didn't want to miss the elections back home.	I was a bit rusty but I didn't want to miss the elections back home.	3291254	1472002956214	1472002956294	 	32
6430	69200	I was a bit rusty but I didn't want to miss the elections back home.	I was a bit rusty but I didn't want to miss the elections back home.	3291256	1472002956553	1472002956625	u	85
6430	69200	I was a bit rusty but I didn't want to miss the elections back home.	I was a bit rusty but I didn't want to miss the elections back home.	3291258	1472002956885	1472002956964	BKSP	8
6430	69200	I was a bit rusty but I didn't want to miss the elections back home.	I was a bit rusty but I didn't want to miss the elections back home.	3291260	1472002957215	1472002957287	b	66
6430	69200	I was a bit rusty but I didn't want to miss the elections back home.	I was a bit rusty but I didn't want to miss the elections back home.	3291295	1472002957369	1472002957425	u	85
6430	69200	I was a bit rusty but I didn't want to miss the elections back home.	I was a bit rusty but I didn't want to miss the elections back home.	3291299	1472002957482	1472002957545	t	84
6430	69200	I was a bit rusty but I didn't want to miss the elections back home.	I was a bit rusty but I didn't want to miss the elections back home.	3291301	1472002957593	1472002957652	 	32
6430	69200	I was a bit rusty but I didn't want to miss the elections back home.	I was a bit rusty but I didn't want to miss the elections back home.	3291303	1472002957922	1472002958138	SHIFT	16
6430	69200	I was a bit rusty but I didn't want to miss the elections back home.	I was a bit rusty but I didn't want to miss the elections back home.	3291305	1472002958087	1472002958146	I	73
6430	69200	I was a bit rusty but I didn't want to miss the elections back home.	I was a bit rusty but I didn't want to miss the elections back home.	3291307	1472002958284	1472002958363	 	32
6430	69200	I was a bit rusty but I didn't want to miss the elections back home.	I was a bit rusty but I didn't want to miss the elections back home.	3291321	1472002958432	1472002958511	d	68
6430	69200	I was a bit rusty but I didn't want to miss the elections back home.	I was a bit rusty but I didn't want to miss the elections back home.	3291323	1472002958533	1472002958600	i	73
6430	69200	I was a bit rusty but I didn't want to miss the elections back home.	I was a bit rusty but I didn't want to miss the elections back home.	3291327	1472002958631	1472002958723	d	68
6430	69200	I was a bit rusty but I didn't want to miss the elections back home.	I was a bit rusty but I didn't want to miss the elections back home.	3291331	1472002958715	1472002958814	n	78
6430	69200	I was a bit rusty but I didn't want to miss the elections back home.	I was a bit rusty but I didn't want to miss the elections back home.	3291334	1472002958885	1472002958953	t	84
6430	69200	I was a bit rusty but I didn't want to miss the elections back home.	I was a bit rusty but I didn't want to miss the elections back home.	3291357	1472002959027	1472002959114	 	32
6430	69200	I was a bit rusty but I didn't want to miss the elections back home.	I was a bit rusty but I didn't want to miss the elections back home.	3291360	1472002959164	1472002959244	w	87
6430	69200	I was a bit rusty but I didn't want to miss the elections back home.	I was a bit rusty but I didn't want to miss the elections back home.	3291361	1472002959341	1472002959440	a	65
6430	69200	I was a bit rusty but I didn't want to miss the elections back home.	I was a bit rusty but I didn't want to miss the elections back home.	3291362	1472002959498	1472002959586	n	78
6430	69200	I was a bit rusty but I didn't want to miss the elections back home.	I was a bit rusty but I didn't want to miss the elections back home.	3291363	1472002959627	1472002959710	t	84
6430	69200	I was a bit rusty but I didn't want to miss the elections back home.	I was a bit rusty but I didn't want to miss the elections back home.	3291391	1472002959795	1472002959870	 	32
6430	69200	I was a bit rusty but I didn't want to miss the elections back home.	I was a bit rusty but I didn't want to miss the elections back home.	3291400	1472002959948	1472002960015	t	84
6430	69200	I was a bit rusty but I didn't want to miss the elections back home.	I was a bit rusty but I didn't want to miss the elections back home.	3291405	1472002960033	1472002960096	o	79
6430	69200	I was a bit rusty but I didn't want to miss the elections back home.	I was a bit rusty but I didn't want to miss the elections back home.	3291410	1472002960174	1472002960249	 	32
6430	69200	I was a bit rusty but I didn't want to miss the elections back home.	I was a bit rusty but I didn't want to miss the elections back home.	3291415	1472002960340	1472002960427	m	77
6430	69200	I was a bit rusty but I didn't want to miss the elections back home.	I was a bit rusty but I didn't want to miss the elections back home.	3291445	1472002960508	1472002960571	i	73
6430	69200	I was a bit rusty but I didn't want to miss the elections back home.	I was a bit rusty but I didn't want to miss the elections back home.	3291449	1472002960640	1472002960695	s	83
6430	69200	I was a bit rusty but I didn't want to miss the elections back home.	I was a bit rusty but I didn't want to miss the elections back home.	3291452	1472002960790	1472002960869	s	83
6430	69200	I was a bit rusty but I didn't want to miss the elections back home.	I was a bit rusty but I didn't want to miss the elections back home.	3291455	1472002960910	1472002960993	 	32
6430	69200	I was a bit rusty but I didn't want to miss the elections back home.	I was a bit rusty but I didn't want to miss the elections back home.	3291457	1472002961060	1472002961139	t	84
6430	69200	I was a bit rusty but I didn't want to miss the elections back home.	I was a bit rusty but I didn't want to miss the elections back home.	3291462	1472002961171	1472002961230	h	72
6430	69200	I was a bit rusty but I didn't want to miss the elections back home.	I was a bit rusty but I didn't want to miss the elections back home.	3291464	1472002961291	1472002961362	e	69
6430	69200	I was a bit rusty but I didn't want to miss the elections back home.	I was a bit rusty but I didn't want to miss the elections back home.	3291466	1472002961423	1472002961486	 	32
6430	69200	I was a bit rusty but I didn't want to miss the elections back home.	I was a bit rusty but I didn't want to miss the elections back home.	3291468	1472002961596	1472002961635	e	69
6430	69200	I was a bit rusty but I didn't want to miss the elections back home.	I was a bit rusty but I didn't want to miss the elections back home.	3291474	1472002961695	1472002961766	l	76
6430	69200	I was a bit rusty but I didn't want to miss the elections back home.	I was a bit rusty but I didn't want to miss the elections back home.	3291494	1472002961811	1472002961894	e	69
6430	69200	I was a bit rusty but I didn't want to miss the elections back home.	I was a bit rusty but I didn't want to miss the elections back home.	3291497	1472002961949	1472002962044	c	67
6430	69200	I was a bit rusty but I didn't want to miss the elections back home.	I was a bit rusty but I didn't want to miss the elections back home.	3291499	1472002962159	1472002962218	t	84
6430	69200	I was a bit rusty but I didn't want to miss the elections back home.	I was a bit rusty but I didn't want to miss the elections back home.	3291502	1472002962266	1472002962422	i	73
6430	69200	I was a bit rusty but I didn't want to miss the elections back home.	I was a bit rusty but I didn't want to miss the elections back home.	3291553	1472002962383	1472002962510	o	79
6430	69200	I was a bit rusty but I didn't want to miss the elections back home.	I was a bit rusty but I didn't want to miss the elections back home.	3291555	1472002962471	1472002962574	n	78
6430	69200	I was a bit rusty but I didn't want to miss the elections back home.	I was a bit rusty but I didn't want to miss the elections back home.	3291558	1472002962583	1472002962662	s	83
6430	69200	I was a bit rusty but I didn't want to miss the elections back home.	I was a bit rusty but I didn't want to miss the elections back home.	3291561	1472002962779	1472002962846	 	32
6430	69200	I was a bit rusty but I didn't want to miss the elections back home.	I was a bit rusty but I didn't want to miss the elections back home.	3291563	1472002962885	1472002962964	b	66
6430	69200	I was a bit rusty but I didn't want to miss the elections back home.	I was a bit rusty but I didn't want to miss the elections back home.	3291565	1472002963027	1472002963134	a	65
6430	69200	I was a bit rusty but I didn't want to miss the elections back home.	I was a bit rusty but I didn't want to miss the elections back home.	3291576	1472002963395	1472002963482	c	67
6430	69200	I was a bit rusty but I didn't want to miss the elections back home.	I was a bit rusty but I didn't want to miss the elections back home.	3291577	1472002963550	1472002963617	k	75
6430	69200	I was a bit rusty but I didn't want to miss the elections back home.	I was a bit rusty but I didn't want to miss the elections back home.	3291579	1472002963689	1472002963772	 	32
6430	69200	I was a bit rusty but I didn't want to miss the elections back home.	I was a bit rusty but I didn't want to miss the elections back home.	3291582	1472002963878	1472002963949	h	72
6430	69200	I was a bit rusty but I didn't want to miss the elections back home.	I was a bit rusty but I didn't want to miss the elections back home.	3291588	1472002964010	1472002964089	o	79
6430	69200	I was a bit rusty but I didn't want to miss the elections back home.	I was a bit rusty but I didn't want to miss the elections back home.	3291616	1472002964129	1472002964232	m	77
6430	69200	I was a bit rusty but I didn't want to miss the elections back home.	I was a bit rusty but I didn't want to miss the elections back home.	3291620	1472002964277	1472002964344	e	69
6430	69200	I was a bit rusty but I didn't want to miss the elections back home.	I was a bit rusty but I didn't want to miss the elections back home.	3291623	1472002964400	1472002964479	.	190
6430	69215	Good luck this week, I can't see any sure things out there.	Good luck this week, I can't see any sure things out there.	3291725	1472002966392	1472002966700	SHIFT	16
6430	69215	Good luck this week, I can't see any sure things out there.	Good luck this week, I can't see any sure things out there.	3291728	1472002966648	1472002966708	G	71
6430	69215	Good luck this week, I can't see any sure things out there.	Good luck this week, I can't see any sure things out there.	3291731	1472002966756	1472002966827	o	79
6430	69215	Good luck this week, I can't see any sure things out there.	Good luck this week, I can't see any sure things out there.	3291734	1472002966922	1472002966973	o	79
6430	69215	Good luck this week, I can't see any sure things out there.	Good luck this week, I can't see any sure things out there.	3291736	1472002967198	1472002967233	l	76
6430	69215	Good luck this week, I can't see any sure things out there.	Good luck this week, I can't see any sure things out there.	3291738	1472002967607	1472002967614	BKSP	8
6430	69215	Good luck this week, I can't see any sure things out there.	Good luck this week, I can't see any sure things out there.	3291741	1472002967630	1472002967709	d	68
6430	69215	Good luck this week, I can't see any sure things out there.	Good luck this week, I can't see any sure things out there.	3291784	1472002967810	1472002967869	 	32
6430	69215	Good luck this week, I can't see any sure things out there.	Good luck this week, I can't see any sure things out there.	3291790	1472002967964	1472002968048	l	76
6430	69215	Good luck this week, I can't see any sure things out there.	Good luck this week, I can't see any sure things out there.	3291796	1472002968160	1472002968227	u	85
6430	69215	Good luck this week, I can't see any sure things out there.	Good luck this week, I can't see any sure things out there.	3291798	1472002968315	1472002968414	c	67
6430	69215	Good luck this week, I can't see any sure things out there.	Good luck this week, I can't see any sure things out there.	3291800	1472002968444	1472002968508	k	75
6430	69215	Good luck this week, I can't see any sure things out there.	Good luck this week, I can't see any sure things out there.	3291818	1472002968608	1472002968703	 	32
6430	69215	Good luck this week, I can't see any sure things out there.	Good luck this week, I can't see any sure things out there.	3291821	1472002968740	1472002968819	t	84
6430	69215	Good luck this week, I can't see any sure things out there.	Good luck this week, I can't see any sure things out there.	3291824	1472002968838	1472002968909	h	72
6430	69215	Good luck this week, I can't see any sure things out there.	Good luck this week, I can't see any sure things out there.	3291827	1472002968943	1472002969038	i	73
6430	69215	Good luck this week, I can't see any sure things out there.	Good luck this week, I can't see any sure things out there.	3291831	1472002969075	1472002969142	s	83
6430	69215	Good luck this week, I can't see any sure things out there.	Good luck this week, I can't see any sure things out there.	3291859	1472002969221	1472002969284	 	32
6430	69215	Good luck this week, I can't see any sure things out there.	Good luck this week, I can't see any sure things out there.	3291864	1472002969323	1472002969415	w	87
6430	69215	Good luck this week, I can't see any sure things out there.	Good luck this week, I can't see any sure things out there.	3291867	1472002969496	1472002969567	e	69
6430	69215	Good luck this week, I can't see any sure things out there.	Good luck this week, I can't see any sure things out there.	3291872	1472002969890	1472002969949	e	69
6430	69215	Good luck this week, I can't see any sure things out there.	Good luck this week, I can't see any sure things out there.	3291876	1472002970061	1472002970116	k	75
6430	69215	Good luck this week, I can't see any sure things out there.	Good luck this week, I can't see any sure things out there.	3291917	1472002970252	1472002970324	,	188
6430	69215	Good luck this week, I can't see any sure things out there.	Good luck this week, I can't see any sure things out there.	3291921	1472002970471	1472002970527	 	32
6430	69215	Good luck this week, I can't see any sure things out there.	Good luck this week, I can't see any sure things out there.	3291928	1472002970624	1472002970828	SHIFT	16
6430	69215	Good luck this week, I can't see any sure things out there.	Good luck this week, I can't see any sure things out there.	3291932	1472002970769	1472002970840	I	73
6430	69215	Good luck this week, I can't see any sure things out there.	Good luck this week, I can't see any sure things out there.	3291936	1472002970915	1472002971006	 	32
6430	69215	Good luck this week, I can't see any sure things out there.	Good luck this week, I can't see any sure things out there.	3291938	1472002971071	1472002971147	c	67
6430	69215	Good luck this week, I can't see any sure things out there.	Good luck this week, I can't see any sure things out there.	3291975	1472002971219	1472002971359	a	65
6430	69215	Good luck this week, I can't see any sure things out there.	Good luck this week, I can't see any sure things out there.	3291978	1472002971300	1472002971375	n	78
6430	69215	Good luck this week, I can't see any sure things out there.	Good luck this week, I can't see any sure things out there.	3291980	1472002971473	1472002971520	t	84
6430	69215	Good luck this week, I can't see any sure things out there.	Good luck this week, I can't see any sure things out there.	3291988	1472002971638	1472002971701	 	32
6430	69215	Good luck this week, I can't see any sure things out there.	Good luck this week, I can't see any sure things out there.	3291992	1472002972077	1472002972140	e	69
6430	69215	Good luck this week, I can't see any sure things out there.	Good luck this week, I can't see any sure things out there.	3292073	1472002972500	1472002972568	BKSP	8
6430	69215	Good luck this week, I can't see any sure things out there.	Good luck this week, I can't see any sure things out there.	3292077	1472002972556	1472002972648	s	83
6430	69215	Good luck this week, I can't see any sure things out there.	Good luck this week, I can't see any sure things out there.	3292080	1472002973012	1472002973092	e	69
6430	69215	Good luck this week, I can't see any sure things out there.	Good luck this week, I can't see any sure things out there.	3292084	1472002973509	1472002973597	e	69
6430	69215	Good luck this week, I can't see any sure things out there.	Good luck this week, I can't see any sure things out there.	3292088	1472002973789	1472002973853	 	32
6430	69215	Good luck this week, I can't see any sure things out there.	Good luck this week, I can't see any sure things out there.	3292092	1472002973897	1472002974024	a	65
6430	69215	Good luck this week, I can't see any sure things out there.	Good luck this week, I can't see any sure things out there.	3292119	1472002974080	1472002974156	n	78
6430	69215	Good luck this week, I can't see any sure things out there.	Good luck this week, I can't see any sure things out there.	3292124	1472002974337	1472002974401	y	89
6430	69215	Good luck this week, I can't see any sure things out there.	Good luck this week, I can't see any sure things out there.	3292132	1472002974480	1472002974564	 	32
6430	69215	Good luck this week, I can't see any sure things out there.	Good luck this week, I can't see any sure things out there.	3292136	1472002974667	1472002974763	s	83
6430	69215	Good luck this week, I can't see any sure things out there.	Good luck this week, I can't see any sure things out there.	3292141	1472002974838	1472002974906	u	85
6430	69215	Good luck this week, I can't see any sure things out there.	Good luck this week, I can't see any sure things out there.	3292165	1472002974942	1472002975034	r	82
6430	69215	Good luck this week, I can't see any sure things out there.	Good luck this week, I can't see any sure things out there.	3292169	1472002975056	1472002975164	e	69
6430	69215	Good luck this week, I can't see any sure things out there.	Good luck this week, I can't see any sure things out there.	3292173	1472002975177	1472002975240	 	32
6430	69215	Good luck this week, I can't see any sure things out there.	Good luck this week, I can't see any sure things out there.	3292176	1472002975323	1472002975405	t	84
6430	69215	Good luck this week, I can't see any sure things out there.	Good luck this week, I can't see any sure things out there.	3292205	1472002975395	1472002975447	h	72
6430	69215	Good luck this week, I can't see any sure things out there.	Good luck this week, I can't see any sure things out there.	3292207	1472002975600	1472002975672	i	73
6430	69215	Good luck this week, I can't see any sure things out there.	Good luck this week, I can't see any sure things out there.	3292209	1472002975711	1472002975811	n	78
6430	69215	Good luck this week, I can't see any sure things out there.	Good luck this week, I can't see any sure things out there.	3292211	1472002975850	1472002975934	g	71
6430	69215	Good luck this week, I can't see any sure things out there.	Good luck this week, I can't see any sure things out there.	3292215	1472002975981	1472002976069	s	83
6430	69215	Good luck this week, I can't see any sure things out there.	Good luck this week, I can't see any sure things out there.	3292219	1472002976128	1472002976200	 	32
6430	69215	Good luck this week, I can't see any sure things out there.	Good luck this week, I can't see any sure things out there.	3292238	1472002976278	1472002976425	o	79
6430	69215	Good luck this week, I can't see any sure things out there.	Good luck this week, I can't see any sure things out there.	3292241	1472002976393	1472002976469	u	85
6430	69215	Good luck this week, I can't see any sure things out there.	Good luck this week, I can't see any sure things out there.	3292245	1472002976505	1472002976589	t	84
6430	69215	Good luck this week, I can't see any sure things out there.	Good luck this week, I can't see any sure things out there.	3292249	1472002976656	1472002976736	 	32
6430	69215	Good luck this week, I can't see any sure things out there.	Good luck this week, I can't see any sure things out there.	3292254	1472002976787	1472002976889	t	84
6430	69215	Good luck this week, I can't see any sure things out there.	Good luck this week, I can't see any sure things out there.	3292294	1472002976879	1472002976963	h	72
6430	69215	Good luck this week, I can't see any sure things out there.	Good luck this week, I can't see any sure things out there.	3292296	1472002976989	1472002977104	e	69
6430	69215	Good luck this week, I can't see any sure things out there.	Good luck this week, I can't see any sure things out there.	3292297	1472002977084	1472002977228	r	82
6430	69215	Good luck this week, I can't see any sure things out there.	Good luck this week, I can't see any sure things out there.	3292299	1472002977200	1472002977284	e	69
6430	69215	Good luck this week, I can't see any sure things out there.	Good luck this week, I can't see any sure things out there.	3292301	1472002977435	1472002977527	.	190
6430	69227	Rumors have him scheduled to attend at least part of the Pacers' game.	Rumors have him scheduled to attend at least part of the Pacers' game.	3292407	1472002979994	1472002980270	SHIFT	16
6430	69227	Rumors have him scheduled to attend at least part of the Pacers' game.	Rumors have him scheduled to attend at least part of the Pacers' game.	3292411	1472002980238	1472002980310	R	82
6430	69227	Rumors have him scheduled to attend at least part of the Pacers' game.	Rumors have him scheduled to attend at least part of the Pacers' game.	3292415	1472002980394	1472002980478	u	85
6430	69227	Rumors have him scheduled to attend at least part of the Pacers' game.	Rumors have him scheduled to attend at least part of the Pacers' game.	3292419	1472002980577	1472002980661	m	77
6430	69227	Rumors have him scheduled to attend at least part of the Pacers' game.	Rumors have him scheduled to attend at least part of the Pacers' game.	3292423	1472002980720	1472002980800	o	79
6430	69227	Rumors have him scheduled to attend at least part of the Pacers' game.	Rumors have him scheduled to attend at least part of the Pacers' game.	3292429	1472002980862	1472002980938	r	82
6430	69227	Rumors have him scheduled to attend at least part of the Pacers' game.	Rumors have him scheduled to attend at least part of the Pacers' game.	3292446	1472002981105	1472002981193	s	83
6430	69227	Rumors have him scheduled to attend at least part of the Pacers' game.	Rumors have him scheduled to attend at least part of the Pacers' game.	3292448	1472002981295	1472002981359	 	32
6430	69227	Rumors have him scheduled to attend at least part of the Pacers' game.	Rumors have him scheduled to attend at least part of the Pacers' game.	3292451	1472002981475	1472002981551	h	72
6430	69227	Rumors have him scheduled to attend at least part of the Pacers' game.	Rumors have him scheduled to attend at least part of the Pacers' game.	3292452	1472002981563	1472002981692	a	65
6430	69227	Rumors have him scheduled to attend at least part of the Pacers' game.	Rumors have him scheduled to attend at least part of the Pacers' game.	3292480	1472002981683	1472002981767	v	86
6430	69227	Rumors have him scheduled to attend at least part of the Pacers' game.	Rumors have him scheduled to attend at least part of the Pacers' game.	3292482	1472002981815	1472002981891	e	69
6430	69227	Rumors have him scheduled to attend at least part of the Pacers' game.	Rumors have him scheduled to attend at least part of the Pacers' game.	3292484	1472002981954	1472002982010	 	32
6430	69227	Rumors have him scheduled to attend at least part of the Pacers' game.	Rumors have him scheduled to attend at least part of the Pacers' game.	3292487	1472002982188	1472002982268	h	72
6430	69227	Rumors have him scheduled to attend at least part of the Pacers' game.	Rumors have him scheduled to attend at least part of the Pacers' game.	3292492	1472002982338	1472002982422	i	73
6430	69227	Rumors have him scheduled to attend at least part of the Pacers' game.	Rumors have him scheduled to attend at least part of the Pacers' game.	3292495	1472002982463	1472002982559	m	77
6430	69227	Rumors have him scheduled to attend at least part of the Pacers' game.	Rumors have him scheduled to attend at least part of the Pacers' game.	3292555	1472002982594	1472002982658	e	69
6430	69227	Rumors have him scheduled to attend at least part of the Pacers' game.	Rumors have him scheduled to attend at least part of the Pacers' game.	3292556	1472002982766	1472002982830	 	32
6430	69227	Rumors have him scheduled to attend at least part of the Pacers' game.	Rumors have him scheduled to attend at least part of the Pacers' game.	3292557	1472002982892	1472002982980	s	83
6430	69227	Rumors have him scheduled to attend at least part of the Pacers' game.	Rumors have him scheduled to attend at least part of the Pacers' game.	3292558	1472002983379	1472002983451	BKSP	8
6430	69227	Rumors have him scheduled to attend at least part of the Pacers' game.	Rumors have him scheduled to attend at least part of the Pacers' game.	3292561	1472002983533	1472002983601	BKSP	8
6430	69227	Rumors have him scheduled to attend at least part of the Pacers' game.	Rumors have him scheduled to attend at least part of the Pacers' game.	3292564	1472002983672	1472002983836	BKSP	8
6430	69227	Rumors have him scheduled to attend at least part of the Pacers' game.	Rumors have him scheduled to attend at least part of the Pacers' game.	3292569	1472002984090	1472002984162	 	32
6430	69227	Rumors have him scheduled to attend at least part of the Pacers' game.	Rumors have him scheduled to attend at least part of the Pacers' game.	3292573	1472002984227	1472002984327	s	83
6430	69227	Rumors have him scheduled to attend at least part of the Pacers' game.	Rumors have him scheduled to attend at least part of the Pacers' game.	3292664	1472002984987	1472002985083	c	67
6430	69227	Rumors have him scheduled to attend at least part of the Pacers' game.	Rumors have him scheduled to attend at least part of the Pacers' game.	3292669	1472002985160	1472002985204	h	72
6430	69227	Rumors have him scheduled to attend at least part of the Pacers' game.	Rumors have him scheduled to attend at least part of the Pacers' game.	3292676	1472002985497	1472002985728	u	85
6430	69227	Rumors have him scheduled to attend at least part of the Pacers' game.	Rumors have him scheduled to attend at least part of the Pacers' game.	3292678	1472002985721	1472002985785	d	68
6430	69227	Rumors have him scheduled to attend at least part of the Pacers' game.	Rumors have him scheduled to attend at least part of the Pacers' game.	3292682	1472002986412	1472002986506	BKSP	8
6430	69227	Rumors have him scheduled to attend at least part of the Pacers' game.	Rumors have him scheduled to attend at least part of the Pacers' game.	3292687	1472002986731	1472002986795	BKSP	8
6430	69227	Rumors have him scheduled to attend at least part of the Pacers' game.	Rumors have him scheduled to attend at least part of the Pacers' game.	3292691	1472002987278	1472002987362	e	69
6430	69227	Rumors have him scheduled to attend at least part of the Pacers' game.	Rumors have him scheduled to attend at least part of the Pacers' game.	3292701	1472002987526	1472002987619	d	68
6430	69227	Rumors have him scheduled to attend at least part of the Pacers' game.	Rumors have him scheduled to attend at least part of the Pacers' game.	3292702	1472002987638	1472002987694	u	85
6430	69227	Rumors have him scheduled to attend at least part of the Pacers' game.	Rumors have him scheduled to attend at least part of the Pacers' game.	3292704	1472002987824	1472002987904	l	76
6430	69227	Rumors have him scheduled to attend at least part of the Pacers' game.	Rumors have him scheduled to attend at least part of the Pacers' game.	3292708	1472002987912	1472002987996	e	69
6430	69227	Rumors have him scheduled to attend at least part of the Pacers' game.	Rumors have him scheduled to attend at least part of the Pacers' game.	3292714	1472002988094	1472002988230	d	68
6430	69227	Rumors have him scheduled to attend at least part of the Pacers' game.	Rumors have him scheduled to attend at least part of the Pacers' game.	3292747	1472002988218	1472002988274	 	32
6430	69227	Rumors have him scheduled to attend at least part of the Pacers' game.	Rumors have him scheduled to attend at least part of the Pacers' game.	3292751	1472002988443	1472002988523	t	84
6430	69227	Rumors have him scheduled to attend at least part of the Pacers' game.	Rumors have him scheduled to attend at least part of the Pacers' game.	3292754	1472002988539	1472002988611	o	79
6430	69227	Rumors have him scheduled to attend at least part of the Pacers' game.	Rumors have him scheduled to attend at least part of the Pacers' game.	3292757	1472002988691	1472002988783	 	32
6430	69227	Rumors have him scheduled to attend at least part of the Pacers' game.	Rumors have him scheduled to attend at least part of the Pacers' game.	3292761	1472002988802	1472002988918	a	65
6430	69227	Rumors have him scheduled to attend at least part of the Pacers' game.	Rumors have him scheduled to attend at least part of the Pacers' game.	3292764	1472002988959	1472002989047	t	84
6430	69227	Rumors have him scheduled to attend at least part of the Pacers' game.	Rumors have him scheduled to attend at least part of the Pacers' game.	3292798	1472002989394	1472002989454	t	84
6430	69227	Rumors have him scheduled to attend at least part of the Pacers' game.	Rumors have him scheduled to attend at least part of the Pacers' game.	3292802	1472002989577	1472002989645	e	69
6430	69227	Rumors have him scheduled to attend at least part of the Pacers' game.	Rumors have him scheduled to attend at least part of the Pacers' game.	3292805	1472002989691	1472002989751	n	78
6430	69227	Rumors have him scheduled to attend at least part of the Pacers' game.	Rumors have him scheduled to attend at least part of the Pacers' game.	3292808	1472002989989	1472002990077	d	68
6430	69227	Rumors have him scheduled to attend at least part of the Pacers' game.	Rumors have him scheduled to attend at least part of the Pacers' game.	3292810	1472002990169	1472002990233	 	32
6430	69227	Rumors have him scheduled to attend at least part of the Pacers' game.	Rumors have him scheduled to attend at least part of the Pacers' game.	3292838	1472002990278	1472002990390	a	65
6430	69227	Rumors have him scheduled to attend at least part of the Pacers' game.	Rumors have him scheduled to attend at least part of the Pacers' game.	3292840	1472002990501	1472002990569	t	84
6430	69227	Rumors have him scheduled to attend at least part of the Pacers' game.	Rumors have him scheduled to attend at least part of the Pacers' game.	3292842	1472002990654	1472002990730	 	32
6430	69227	Rumors have him scheduled to attend at least part of the Pacers' game.	Rumors have him scheduled to attend at least part of the Pacers' game.	3292844	1472002990823	1472002990899	l	76
6430	69227	Rumors have him scheduled to attend at least part of the Pacers' game.	Rumors have him scheduled to attend at least part of the Pacers' game.	3292845	1472002990915	1472002991015	e	69
6430	69227	Rumors have him scheduled to attend at least part of the Pacers' game.	Rumors have him scheduled to attend at least part of the Pacers' game.	3292882	1472002991064	1472002991168	a	65
6430	69227	Rumors have him scheduled to attend at least part of the Pacers' game.	Rumors have him scheduled to attend at least part of the Pacers' game.	3292884	1472002991218	1472002991366	s	83
6430	69227	Rumors have him scheduled to attend at least part of the Pacers' game.	Rumors have him scheduled to attend at least part of the Pacers' game.	3292887	1472002991416	1472002991488	t	84
6430	69227	Rumors have him scheduled to attend at least part of the Pacers' game.	Rumors have him scheduled to attend at least part of the Pacers' game.	3292890	1472002991570	1472002991623	 	32
6430	69227	Rumors have him scheduled to attend at least part of the Pacers' game.	Rumors have him scheduled to attend at least part of the Pacers' game.	3292893	1472002992031	1472002992111	p	80
6430	69227	Rumors have him scheduled to attend at least part of the Pacers' game.	Rumors have him scheduled to attend at least part of the Pacers' game.	3292917	1472002992136	1472002992312	a	65
6430	69227	Rumors have him scheduled to attend at least part of the Pacers' game.	Rumors have him scheduled to attend at least part of the Pacers' game.	3292918	1472002992276	1472002992372	r	82
6430	69227	Rumors have him scheduled to attend at least part of the Pacers' game.	Rumors have him scheduled to attend at least part of the Pacers' game.	3292919	1472002992460	1472002992528	t	84
6430	69227	Rumors have him scheduled to attend at least part of the Pacers' game.	Rumors have him scheduled to attend at least part of the Pacers' game.	3292920	1472002992545	1472002992625	 	32
6430	69227	Rumors have him scheduled to attend at least part of the Pacers' game.	Rumors have him scheduled to attend at least part of the Pacers' game.	3292922	1472002992817	1472002992917	f	70
6430	69227	Rumors have him scheduled to attend at least part of the Pacers' game.	Rumors have him scheduled to attend at least part of the Pacers' game.	3292972	1472002993248	1472002993328	BKSP	8
6430	69227	Rumors have him scheduled to attend at least part of the Pacers' game.	Rumors have him scheduled to attend at least part of the Pacers' game.	3292973	1472002993462	1472002993538	p	80
6430	69227	Rumors have him scheduled to attend at least part of the Pacers' game.	Rumors have him scheduled to attend at least part of the Pacers' game.	3292975	1472002993692	1472002993820	f	70
6430	69227	Rumors have him scheduled to attend at least part of the Pacers' game.	Rumors have him scheduled to attend at least part of the Pacers' game.	3292977	1472002993962	1472002994018	BKSP	8
6430	69227	Rumors have him scheduled to attend at least part of the Pacers' game.	Rumors have him scheduled to attend at least part of the Pacers' game.	3292979	1472002994091	1472002994163	BKSP	8
6430	69227	Rumors have him scheduled to attend at least part of the Pacers' game.	Rumors have him scheduled to attend at least part of the Pacers' game.	3292981	1472002994249	1472002994325	o	79
6430	69227	Rumors have him scheduled to attend at least part of the Pacers' game.	Rumors have him scheduled to attend at least part of the Pacers' game.	3292985	1472002994363	1472002994463	f	70
6430	69227	Rumors have him scheduled to attend at least part of the Pacers' game.	Rumors have him scheduled to attend at least part of the Pacers' game.	3292988	1472002994471	1472002994535	 	32
6430	69227	Rumors have him scheduled to attend at least part of the Pacers' game.	Rumors have him scheduled to attend at least part of the Pacers' game.	3293003	1472002994598	1472002994686	t	84
6430	69227	Rumors have him scheduled to attend at least part of the Pacers' game.	Rumors have him scheduled to attend at least part of the Pacers' game.	3293004	1472002994690	1472002994762	h	72
6430	69227	Rumors have him scheduled to attend at least part of the Pacers' game.	Rumors have him scheduled to attend at least part of the Pacers' game.	3293007	1472002994810	1472002994910	e	69
6430	69227	Rumors have him scheduled to attend at least part of the Pacers' game.	Rumors have him scheduled to attend at least part of the Pacers' game.	3293010	1472002994894	1472002994966	 	32
6430	69227	Rumors have him scheduled to attend at least part of the Pacers' game.	Rumors have him scheduled to attend at least part of the Pacers' game.	3293044	1472002995063	1472002995319	SHIFT	16
6430	69227	Rumors have him scheduled to attend at least part of the Pacers' game.	Rumors have him scheduled to attend at least part of the Pacers' game.	3293015	1472002995203	1472002995283	P	80
6430	69227	Rumors have him scheduled to attend at least part of the Pacers' game.	Rumors have him scheduled to attend at least part of the Pacers' game.	3293046	1472002995239	1472002995323	A	65
6430	69227	Rumors have him scheduled to attend at least part of the Pacers' game.	Rumors have him scheduled to attend at least part of the Pacers' game.	3293047	1472002995432	1472002995546	a	65
6430	69227	Rumors have him scheduled to attend at least part of the Pacers' game.	Rumors have him scheduled to attend at least part of the Pacers' game.	3293049	1472002995536	1472002995652	c	67
6430	69227	Rumors have him scheduled to attend at least part of the Pacers' game.	Rumors have him scheduled to attend at least part of the Pacers' game.	3293051	1472002995713	1472002995885	e	69
6430	69227	Rumors have him scheduled to attend at least part of the Pacers' game.	Rumors have him scheduled to attend at least part of the Pacers' game.	3293052	1472002995837	1472002995945	r	82
6430	69227	Rumors have him scheduled to attend at least part of the Pacers' game.	Rumors have him scheduled to attend at least part of the Pacers' game.	3293054	1472002995997	1472002996088	s	83
6430	69227	Rumors have him scheduled to attend at least part of the Pacers' game.	Rumors have him scheduled to attend at least part of the Pacers' game.	3293104	1472002996456	1472002996508	BKSP	8
6430	69227	Rumors have him scheduled to attend at least part of the Pacers' game.	Rumors have him scheduled to attend at least part of the Pacers' game.	3293109	1472002996758	1472002996826	BKSP	8
6430	69227	Rumors have him scheduled to attend at least part of the Pacers' game.	Rumors have him scheduled to attend at least part of the Pacers' game.	3293113	1472002996898	1472002996974	BKSP	8
6430	69227	Rumors have him scheduled to attend at least part of the Pacers' game.	Rumors have him scheduled to attend at least part of the Pacers' game.	3293118	1472002997051	1472002997123	BKSP	8
6430	69227	Rumors have him scheduled to attend at least part of the Pacers' game.	Rumors have him scheduled to attend at least part of the Pacers' game.	3293122	1472002997215	1472002997283	BKSP	8
6430	69227	Rumors have him scheduled to attend at least part of the Pacers' game.	Rumors have him scheduled to attend at least part of the Pacers' game.	3293123	1472002997352	1472002997416	BKSP	8
6430	69227	Rumors have him scheduled to attend at least part of the Pacers' game.	Rumors have him scheduled to attend at least part of the Pacers' game.	3293124	1472002997475	1472002997595	a	65
6430	69227	Rumors have him scheduled to attend at least part of the Pacers' game.	Rumors have him scheduled to attend at least part of the Pacers' game.	3293125	1472002997644	1472002997744	c	67
6430	69227	Rumors have him scheduled to attend at least part of the Pacers' game.	Rumors have him scheduled to attend at least part of the Pacers' game.	3293127	1472002997855	1472002998027	e	69
6430	69227	Rumors have him scheduled to attend at least part of the Pacers' game.	Rumors have him scheduled to attend at least part of the Pacers' game.	3293129	1472002998007	1472002998103	r	82
6430	69227	Rumors have him scheduled to attend at least part of the Pacers' game.	Rumors have him scheduled to attend at least part of the Pacers' game.	3293131	1472002998179	1472002998267	s	83
6430	69227	Rumors have him scheduled to attend at least part of the Pacers' game.	Rumors have him scheduled to attend at least part of the Pacers' game.	3293158	1472002998708	1472002998780	'	222
6430	69227	Rumors have him scheduled to attend at least part of the Pacers' game.	Rumors have him scheduled to attend at least part of the Pacers' game.	3293161	1472002998964	1472002999028	 	32
6430	69227	Rumors have him scheduled to attend at least part of the Pacers' game.	Rumors have him scheduled to attend at least part of the Pacers' game.	3293163	1472002999083	1472002999183	g	71
6430	69227	Rumors have him scheduled to attend at least part of the Pacers' game.	Rumors have him scheduled to attend at least part of the Pacers' game.	3293167	1472002999233	1472002999333	a	65
6430	69227	Rumors have him scheduled to attend at least part of the Pacers' game.	Rumors have him scheduled to attend at least part of the Pacers' game.	3293171	1472002999355	1472002999423	m	77
6430	69227	Rumors have him scheduled to attend at least part of the Pacers' game.	Rumors have him scheduled to attend at least part of the Pacers' game.	3293202	1472002999502	1472002999554	e	69
6430	69227	Rumors have him scheduled to attend at least part of the Pacers' game.	Rumors have him scheduled to attend at least part of the Pacers' game.	3293204	1472002999968	1472003000044	.	190
6430	69240	Just told them I thought it would be impossible.	Just told them I thought it would be impossible.	3293285	1472003002333	1472003002613	SHIFT	16
6430	69240	Just told them I thought it would be impossible.	Just told them I thought it would be impossible.	3293286	1472003002565	1472003002641	J	74
6430	69240	Just told them I thought it would be impossible.	Just told them I thought it would be impossible.	3293290	1472003002716	1472003002800	u	85
6430	69240	Just told them I thought it would be impossible.	Just told them I thought it would be impossible.	3293294	1472003002845	1472003002985	s	83
6430	69240	Just told them I thought it would be impossible.	Just told them I thought it would be impossible.	3293298	1472003003037	1472003003109	t	84
6430	69240	Just told them I thought it would be impossible.	Just told them I thought it would be impossible.	3293302	1472003003117	1472003003181	 	32
6430	69240	Just told them I thought it would be impossible.	Just told them I thought it would be impossible.	3293318	1472003003266	1472003003342	t	84
6430	69240	Just told them I thought it would be impossible.	Just told them I thought it would be impossible.	3293321	1472003003354	1472003003414	o	79
6430	69240	Just told them I thought it would be impossible.	Just told them I thought it would be impossible.	3293324	1472003003519	1472003003587	l	76
6430	69240	Just told them I thought it would be impossible.	Just told them I thought it would be impossible.	3293326	1472003003607	1472003003711	d	68
6430	69240	Just told them I thought it would be impossible.	Just told them I thought it would be impossible.	3293328	1472003003784	1472003003864	 	32
6430	69240	Just told them I thought it would be impossible.	Just told them I thought it would be impossible.	3293367	1472003003913	1472003004013	t	84
6430	69240	Just told them I thought it would be impossible.	Just told them I thought it would be impossible.	3293369	1472003004031	1472003004107	h	72
6430	69240	Just told them I thought it would be impossible.	Just told them I thought it would be impossible.	3293371	1472003004167	1472003004239	e	69
6430	69240	Just told them I thought it would be impossible.	Just told them I thought it would be impossible.	3293373	1472003004271	1472003004319	m	77
6430	69240	Just told them I thought it would be impossible.	Just told them I thought it would be impossible.	3293376	1472003004434	1472003004498	 	32
6430	69240	Just told them I thought it would be impossible.	Just told them I thought it would be impossible.	3293374	1472003004628	1472003004836	SHIFT	16
6430	69240	Just told them I thought it would be impossible.	Just told them I thought it would be impossible.	3293377	1472003004776	1472003004852	I	73
6430	69240	Just told them I thought it would be impossible.	Just told them I thought it would be impossible.	3293379	1472003004946	1472003005034	 	32
6430	69240	Just told them I thought it would be impossible.	Just told them I thought it would be impossible.	3293380	1472003005061	1472003005161	t	84
6430	69240	Just told them I thought it would be impossible.	Just told them I thought it would be impossible.	3293381	1472003005187	1472003005275	h	72
6430	69240	Just told them I thought it would be impossible.	Just told them I thought it would be impossible.	3293382	1472003005320	1472003005464	o	79
6430	69240	Just told them I thought it would be impossible.	Just told them I thought it would be impossible.	3293409	1472003005424	1472003005512	u	85
6430	69240	Just told them I thought it would be impossible.	Just told them I thought it would be impossible.	3293413	1472003005546	1472003005618	g	71
6430	69240	Just told them I thought it would be impossible.	Just told them I thought it would be impossible.	3293417	1472003006069	1472003006127	BKSP	8
6430	69240	Just told them I thought it would be impossible.	Just told them I thought it would be impossible.	3293421	1472003006197	1472003006277	t	84
6430	69240	Just told them I thought it would be impossible.	Just told them I thought it would be impossible.	3293425	1472003006332	1472003006416	h	72
6430	69240	Just told them I thought it would be impossible.	Just told them I thought it would be impossible.	3293429	1472003006745	1472003006804	BKSP	8
6430	69240	Just told them I thought it would be impossible.	Just told them I thought it would be impossible.	3293434	1472003006883	1472003006975	BKSP	8
6430	69240	Just told them I thought it would be impossible.	Just told them I thought it would be impossible.	3293436	1472003007058	1472003007138	g	71
6430	69240	Just told them I thought it would be impossible.	Just told them I thought it would be impossible.	3293438	1472003007238	1472003007310	h	72
6430	69240	Just told them I thought it would be impossible.	Just told them I thought it would be impossible.	3293441	1472003007380	1472003007452	t	84
6430	69240	Just told them I thought it would be impossible.	Just told them I thought it would be impossible.	3293443	1472003007571	1472003007623	 	32
6430	69240	Just told them I thought it would be impossible.	Just told them I thought it would be impossible.	3293445	1472003007731	1472003007795	i	73
6430	69240	Just told them I thought it would be impossible.	Just told them I thought it would be impossible.	3293447	1472003007856	1472003007944	t	84
6430	69240	Just told them I thought it would be impossible.	Just told them I thought it would be impossible.	3293449	1472003007998	1472003008062	 	32
6430	69240	Just told them I thought it would be impossible.	Just told them I thought it would be impossible.	3293506	1472003008147	1472003008223	w	87
6430	69240	Just told them I thought it would be impossible.	Just told them I thought it would be impossible.	3293509	1472003008207	1472003008319	o	79
6430	69240	Just told them I thought it would be impossible.	Just told them I thought it would be impossible.	3293512	1472003008446	1472003008525	l	76
6430	69240	Just told them I thought it would be impossible.	Just told them I thought it would be impossible.	3293514	1472003008615	1472003008663	d	68
6430	69240	Just told them I thought it would be impossible.	Just told them I thought it would be impossible.	3293516	1472003008876	1472003008940	BKSP	8
6430	69240	Just told them I thought it would be impossible.	Just told them I thought it would be impossible.	3293518	1472003009009	1472003009097	BKSP	8
6430	69240	Just told them I thought it would be impossible.	Just told them I thought it would be impossible.	3293521	1472003009260	1472003009312	u	85
6430	69240	Just told them I thought it would be impossible.	Just told them I thought it would be impossible.	3293555	1472003009504	1472003009576	l	76
6430	69240	Just told them I thought it would be impossible.	Just told them I thought it would be impossible.	3293557	1472003009845	1472003009940	d	68
6430	69240	Just told them I thought it would be impossible.	Just told them I thought it would be impossible.	3293559	1472003010004	1472003010084	 	32
6430	69240	Just told them I thought it would be impossible.	Just told them I thought it would be impossible.	3293560	1472003010110	1472003010190	b	66
6430	69240	Just told them I thought it would be impossible.	Just told them I thought it would be impossible.	3293562	1472003010283	1472003010383	e	69
6430	69240	Just told them I thought it would be impossible.	Just told them I thought it would be impossible.	3293592	1472003010411	1472003010491	 	32
6430	69240	Just told them I thought it would be impossible.	Just told them I thought it would be impossible.	3293593	1472003010598	1472003010674	i	73
6430	69240	Just told them I thought it would be impossible.	Just told them I thought it would be impossible.	3293594	1472003010764	1472003010851	m	77
6430	69240	Just told them I thought it would be impossible.	Just told them I thought it would be impossible.	3293595	1472003010925	1472003010993	p	80
6430	69240	Just told them I thought it would be impossible.	Just told them I thought it would be impossible.	3293596	1472003011143	1472003011211	o	79
6430	69240	Just told them I thought it would be impossible.	Just told them I thought it would be impossible.	3293630	1472003011277	1472003011357	s	83
6430	69240	Just told them I thought it would be impossible.	Just told them I thought it would be impossible.	3293632	1472003011446	1472003011538	s	83
6430	69240	Just told them I thought it would be impossible.	Just told them I thought it would be impossible.	3293633	1472003011563	1472003011635	i	73
6430	69240	Just told them I thought it would be impossible.	Just told them I thought it would be impossible.	3293635	1472003011705	1472003011781	b	66
6430	69240	Just told them I thought it would be impossible.	Just told them I thought it would be impossible.	3293637	1472003011888	1472003011956	l	76
6430	69240	Just told them I thought it would be impossible.	Just told them I thought it would be impossible.	3293646	1472003012004	1472003012064	e	69
6430	69240	Just told them I thought it would be impossible.	Just told them I thought it would be impossible.	3293647	1472003012138	1472003012209	.	190
6430	69240	Just told them I thought it would be impossible.	Just told them I thought it would be impossible.	3293648	1472003012315	1472003012355	 	32
6430	69240	Just told them I thought it would be impossible.	Just told them I thought it would be impossible.	3293649	1472003012827	1472003012875	BKSP	8
6430	69250	US vessels will form two separate training units.	US vessels will form tow separate training units.	3293740	1472003014669	1472003015441	SHIFT	16
6430	69250	US vessels will form two separate training units.	US vessels will form tow separate training units.	3293735	1472003014924	1472003014977	U	85
6430	69250	US vessels will form two separate training units.	US vessels will form tow separate training units.	3293738	1472003015185	1472003015248	S	83
6430	69250	US vessels will form two separate training units.	US vessels will form tow separate training units.	3293743	1472003015494	1472003015578	 	32
6430	69250	US vessels will form two separate training units.	US vessels will form tow separate training units.	3293746	1472003015946	1472003016022	v	86
6430	69250	US vessels will form two separate training units.	US vessels will form tow separate training units.	3293748	1472003016150	1472003016217	e	69
6430	69250	US vessels will form two separate training units.	US vessels will form tow separate training units.	3293768	1472003016341	1472003016417	s	83
6430	69250	US vessels will form two separate training units.	US vessels will form tow separate training units.	3293769	1472003016488	1472003016588	s	83
6430	69250	US vessels will form two separate training units.	US vessels will form tow separate training units.	3293770	1472003016663	1472003016731	e	69
6430	69250	US vessels will form two separate training units.	US vessels will form tow separate training units.	3293771	1472003016809	1472003016889	l	76
6430	69250	US vessels will form two separate training units.	US vessels will form tow separate training units.	3293772	1472003016937	1472003017000	s	83
6430	69250	US vessels will form two separate training units.	US vessels will form tow separate training units.	3293803	1472003017124	1472003017164	 	32
6430	69250	US vessels will form two separate training units.	US vessels will form tow separate training units.	3293806	1472003017279	1472003017374	w	87
6430	69250	US vessels will form two separate training units.	US vessels will form tow separate training units.	3293808	1472003017414	1472003017474	i	73
6430	69250	US vessels will form two separate training units.	US vessels will form tow separate training units.	3293812	1472003017551	1472003017618	l	76
6430	69250	US vessels will form two separate training units.	US vessels will form tow separate training units.	3293815	1472003017697	1472003017765	l	76
6430	69250	US vessels will form two separate training units.	US vessels will form tow separate training units.	3293826	1472003017832	1472003017911	 	32
6430	69250	US vessels will form two separate training units.	US vessels will form tow separate training units.	3293828	1472003017976	1472003018060	f	70
6430	69250	US vessels will form two separate training units.	US vessels will form tow separate training units.	3293829	1472003018217	1472003018285	o	79
6430	69250	US vessels will form two separate training units.	US vessels will form tow separate training units.	3293831	1472003018369	1472003018428	r	82
6430	69250	US vessels will form two separate training units.	US vessels will form tow separate training units.	3293832	1472003018512	1472003018587	m	77
6430	69250	US vessels will form two separate training units.	US vessels will form tow separate training units.	3293867	1472003018909	1472003018973	 	32
6430	69250	US vessels will form two separate training units.	US vessels will form tow separate training units.	3293869	1472003019005	1472003019085	t	84
6430	69250	US vessels will form two separate training units.	US vessels will form tow separate training units.	3293871	1472003019137	1472003019197	o	79
6430	69250	US vessels will form two separate training units.	US vessels will form tow separate training units.	3293873	1472003019250	1472003019317	w	87
6430	69250	US vessels will form two separate training units.	US vessels will form tow separate training units.	3293876	1472003019415	1472003019491	 	32
6430	69250	US vessels will form two separate training units.	US vessels will form tow separate training units.	3293901	1472003019530	1472003019637	s	83
6430	69250	US vessels will form two separate training units.	US vessels will form tow separate training units.	3293902	1472003019682	1472003019757	e	69
6430	69250	US vessels will form two separate training units.	US vessels will form tow separate training units.	3293903	1472003019883	1472003019931	p	80
6430	69250	US vessels will form two separate training units.	US vessels will form tow separate training units.	3293904	1472003019991	1472003020102	a	65
6430	69250	US vessels will form two separate training units.	US vessels will form tow separate training units.	3293905	1472003020156	1472003020235	r	82
6430	69250	US vessels will form two separate training units.	US vessels will form tow separate training units.	3293928	1472003020275	1472003020426	a	65
6430	69250	US vessels will form two separate training units.	US vessels will form tow separate training units.	3293930	1472003020403	1472003020478	t	84
6430	69250	US vessels will form two separate training units.	US vessels will form tow separate training units.	3293931	1472003020526	1472003020633	e	69
6430	69250	US vessels will form two separate training units.	US vessels will form tow separate training units.	3293932	1472003020740	1472003020807	 	32
6430	69250	US vessels will form two separate training units.	US vessels will form tow separate training units.	3293934	1472003020878	1472003020961	t	84
6430	69250	US vessels will form two separate training units.	US vessels will form tow separate training units.	3293955	1472003021004	1472003021079	h	72
6430	69250	US vessels will form two separate training units.	US vessels will form tow separate training units.	3293957	1472003021128	1472003021239	r	82
6430	69250	US vessels will form two separate training units.	US vessels will form tow separate training units.	3293959	1472003021257	1472003021352	a	65
6430	69250	US vessels will form two separate training units.	US vessels will form tow separate training units.	3293961	1472003021589	1472003021659	i	73
6430	69250	US vessels will form two separate training units.	US vessels will form tow separate training units.	3293964	1472003021795	1472003021874	n	78
6430	69250	US vessels will form two separate training units.	US vessels will form tow separate training units.	3294015	1472003022006	1472003022073	BKSP	8
6430	69250	US vessels will form two separate training units.	US vessels will form tow separate training units.	3294018	1472003022154	1472003022225	BKSP	8
6430	69250	US vessels will form two separate training units.	US vessels will form tow separate training units.	3294020	1472003022306	1472003022377	BKSP	8
6430	69250	US vessels will form two separate training units.	US vessels will form tow separate training units.	3294022	1472003022473	1472003022524	BKSP	8
6430	69250	US vessels will form two separate training units.	US vessels will form tow separate training units.	3294024	1472003022606	1472003022689	BKSP	8
6430	69250	US vessels will form two separate training units.	US vessels will form tow separate training units.	3294025	1472003022732	1472003022823	r	82
6430	69250	US vessels will form two separate training units.	US vessels will form tow separate training units.	3294026	1472003022904	1472003022995	a	65
6430	69250	US vessels will form two separate training units.	US vessels will form tow separate training units.	3294027	1472003023017	1472003023088	i	73
6430	69250	US vessels will form two separate training units.	US vessels will form tow separate training units.	3294028	1472003023154	1472003023225	n	78
6430	69250	US vessels will form two separate training units.	US vessels will form tow separate training units.	3294029	1472003023272	1472003023373	i	73
6430	69250	US vessels will form two separate training units.	US vessels will form tow separate training units.	3294050	1472003023364	1472003023439	n	78
6430	69250	US vessels will form two separate training units.	US vessels will form tow separate training units.	3294053	1472003023464	1472003023547	g	71
6430	69250	US vessels will form two separate training units.	US vessels will form tow separate training units.	3294056	1472003023722	1472003023789	 	32
6430	69250	US vessels will form two separate training units.	US vessels will form tow separate training units.	3294060	1472003023887	1472003023962	u	85
6430	69250	US vessels will form two separate training units.	US vessels will form tow separate training units.	3294064	1472003024015	1472003024110	n	78
6430	69250	US vessels will form two separate training units.	US vessels will form tow separate training units.	3294067	1472003024146	1472003024233	i	73
6430	69250	US vessels will form two separate training units.	US vessels will form tow separate training units.	3294093	1472003024255	1472003024338	t	84
6430	69250	US vessels will form two separate training units.	US vessels will form tow separate training units.	3294095	1472003024563	1472003024652	s	83
6430	69250	US vessels will form two separate training units.	US vessels will form tow separate training units.	3294097	1472003024739	1472003024815	.	190
6430	69250	US vessels will form two separate training units.	US vessels will form tow separate training units.	3294099	1472003024951	1472003025006	 	32
6430	69250	US vessels will form two separate training units.	US vessels will form tow separate training units.	3294100	1472003025342	1472003025401	BKSP	8
6430	69262	Can you help get this cleared up?	Can you help get this cleared up?	3294197	1472003027449	1472003027697	SHIFT	16
6430	69262	Can you help get this cleared up?	Can you help get this cleared up?	3294195	1472003027589	1472003027694	C	67
6430	69262	Can you help get this cleared up?	Can you help get this cleared up?	3294198	1472003027761	1472003027856	a	65
6430	69262	Can you help get this cleared up?	Can you help get this cleared up?	3294199	1472003028830	1472003028897	n	78
6430	69262	Can you help get this cleared up?	Can you help get this cleared up?	3294200	1472003029035	1472003029094	 	32
6430	69262	Can you help get this cleared up?	Can you help get this cleared up?	3294201	1472003029234	1472003029321	y	89
6430	69262	Can you help get this cleared up?	Can you help get this cleared up?	3294207	1472003029361	1472003029488	o	79
6430	69262	Can you help get this cleared up?	Can you help get this cleared up?	3294210	1472003029449	1472003029500	u	85
6430	69262	Can you help get this cleared up?	Can you help get this cleared up?	3294213	1472003029656	1472003029708	 	32
6430	69262	Can you help get this cleared up?	Can you help get this cleared up?	3294216	1472003029816	1472003029879	h	72
6430	69262	Can you help get this cleared up?	Can you help get this cleared up?	3294218	1472003029925	1472003030008	e	69
6430	69262	Can you help get this cleared up?	Can you help get this cleared up?	3294228	1472003030035	1472003030099	l	76
6430	69262	Can you help get this cleared up?	Can you help get this cleared up?	3294231	1472003030209	1472003030233	o	79
6430	69262	Can you help get this cleared up?	Can you help get this cleared up?	3294234	1472003030437	1472003030520	 	32
6430	69262	Can you help get this cleared up?	Can you help get this cleared up?	3294236	1472003030564	1472003030631	g	71
6430	69262	Can you help get this cleared up?	Can you help get this cleared up?	3294238	1472003030698	1472003030801	e	69
6430	69262	Can you help get this cleared up?	Can you help get this cleared up?	3294246	1472003030806	1472003030897	t	84
6430	69262	Can you help get this cleared up?	Can you help get this cleared up?	3294248	1472003030922	1472003031001	 	32
6430	69262	Can you help get this cleared up?	Can you help get this cleared up?	3294250	1472003031060	1472003031143	t	84
6430	69262	Can you help get this cleared up?	Can you help get this cleared up?	3294252	1472003031161	1472003031213	h	72
6430	69262	Can you help get this cleared up?	Can you help get this cleared up?	3294253	1472003031254	1472003031373	i	73
6430	69262	Can you help get this cleared up?	Can you help get this cleared up?	3294270	1472003031419	1472003031502	s	83
6430	69262	Can you help get this cleared up?	Can you help get this cleared up?	3294272	1472003031654	1472003031729	 	32
6430	69262	Can you help get this cleared up?	Can you help get this cleared up?	3294275	1472003031825	1472003031912	c	67
6430	69262	Can you help get this cleared up?	Can you help get this cleared up?	3294278	1472003031940	1472003032019	l	76
6430	69262	Can you help get this cleared up?	Can you help get this cleared up?	3294281	1472003032054	1472003032150	e	69
6430	69262	Can you help get this cleared up?	Can you help get this cleared up?	3294307	1472003032158	1472003032306	a	65
6430	69262	Can you help get this cleared up?	Can you help get this cleared up?	3294309	1472003032444	1472003032523	r	82
6430	69262	Can you help get this cleared up?	Can you help get this cleared up?	3294311	1472003032567	1472003032662	e	69
6430	69262	Can you help get this cleared up?	Can you help get this cleared up?	3294313	1472003032767	1472003032870	d	68
6430	69262	Can you help get this cleared up?	Can you help get this cleared up?	3294315	1472003032935	1472003033006	 	32
6430	69262	Can you help get this cleared up?	Can you help get this cleared up?	3294328	1472003033097	1472003033168	u	85
6430	69262	Can you help get this cleared up?	Can you help get this cleared up?	3294329	1472003033265	1472003033328	p	80
6430	69262	Can you help get this cleared up?	Can you help get this cleared up?	3294330	1472003033445	1472003033722	SHIFT	16
6430	69262	Can you help get this cleared up?	Can you help get this cleared up?	3294331	1472003033654	1472003033737	?	191
6430	69269	I would like it paid through I Buy It.	I would like it paid through I Buy It.	3294427	1472003035633	1472003035901	SHIFT	16
6430	69269	I would like it paid through I Buy It.	I would like it paid through I Buy It.	3294429	1472003035825	1472003035903	I	73
6430	69269	I would like it paid through I Buy It.	I would like it paid through I Buy It.	3294430	1472003036000	1472003036079	 	32
6430	69269	I would like it paid through I Buy It.	I would like it paid through I Buy It.	3294431	1472003036151	1472003036231	w	87
6430	69269	I would like it paid through I Buy It.	I would like it paid through I Buy It.	3294432	1472003036235	1472003036363	o	79
6430	69269	I would like it paid through I Buy It.	I would like it paid through I Buy It.	3294466	1472003036335	1472003036395	u	85
6430	69269	I would like it paid through I Buy It.	I would like it paid through I Buy It.	3294468	1472003036471	1472003036559	l	76
6430	69269	I would like it paid through I Buy It.	I would like it paid through I Buy It.	3294472	1472003036621	1472003036680	d	68
6430	69269	I would like it paid through I Buy It.	I would like it paid through I Buy It.	3294476	1472003036741	1472003036821	 	32
6430	69269	I would like it paid through I Buy It.	I would like it paid through I Buy It.	3294479	1472003036933	1472003037004	l	76
6430	69269	I would like it paid through I Buy It.	I would like it paid through I Buy It.	3294483	1472003037119	1472003037211	i	73
6430	69269	I would like it paid through I Buy It.	I would like it paid through I Buy It.	3294504	1472003037299	1472003037390	t	84
6430	69269	I would like it paid through I Buy It.	I would like it paid through I Buy It.	3294506	1472003037517	1472003037564	 	32
6430	69269	I would like it paid through I Buy It.	I would like it paid through I Buy It.	3294508	1472003037671	1472003037742	i	73
6430	69269	I would like it paid through I Buy It.	I would like it paid through I Buy It.	3294510	1472003037803	1472003037871	t	84
6430	69269	I would like it paid through I Buy It.	I would like it paid through I Buy It.	3294512	1472003037953	1472003038021	 	32
6430	69269	I would like it paid through I Buy It.	I would like it paid through I Buy It.	3294567	1472003038185	1472003038245	BKSP	8
6430	69269	I would like it paid through I Buy It.	I would like it paid through I Buy It.	3294569	1472003038313	1472003038393	BKSP	8
6430	69269	I would like it paid through I Buy It.	I would like it paid through I Buy It.	3294571	1472003038471	1472003038547	BKSP	8
6430	69269	I would like it paid through I Buy It.	I would like it paid through I Buy It.	3294572	1472003038625	1472003038697	BKSP	8
6430	69269	I would like it paid through I Buy It.	I would like it paid through I Buy It.	3294573	1472003038779	1472003038863	BKSP	8
6430	69269	I would like it paid through I Buy It.	I would like it paid through I Buy It.	3294574	1472003038985	1472003039061	k	75
6430	69269	I would like it paid through I Buy It.	I would like it paid through I Buy It.	3294576	1472003039126	1472003039194	t	84
6430	69269	I would like it paid through I Buy It.	I would like it paid through I Buy It.	3294579	1472003039268	1472003039320	 	32
6430	69269	I would like it paid through I Buy It.	I would like it paid through I Buy It.	3294582	1472003039412	1472003039479	i	73
6430	69269	I would like it paid through I Buy It.	I would like it paid through I Buy It.	3294585	1472003039997	1472003040085	t	84
6430	69269	I would like it paid through I Buy It.	I would like it paid through I Buy It.	3294605	1472003040266	1472003040346	 	32
6430	69269	I would like it paid through I Buy It.	I would like it paid through I Buy It.	3294608	1472003040465	1472003040529	p	80
6430	69269	I would like it paid through I Buy It.	I would like it paid through I Buy It.	3294612	1472003040603	1472003040723	a	65
6430	69269	I would like it paid through I Buy It.	I would like it paid through I Buy It.	3294615	1472003040804	1472003040880	i	73
6430	69269	I would like it paid through I Buy It.	I would like it paid through I Buy It.	3294617	1472003040950	1472003041038	d	68
6430	69269	I would like it paid through I Buy It.	I would like it paid through I Buy It.	3294676	1472003041221	1472003041273	 	32
6430	69269	I would like it paid through I Buy It.	I would like it paid through I Buy It.	3294679	1472003041843	1472003041919	t	84
6430	69269	I would like it paid through I Buy It.	I would like it paid through I Buy It.	3294681	1472003041968	1472003042032	h	72
6430	69269	I would like it paid through I Buy It.	I would like it paid through I Buy It.	3294683	1472003042119	1472003042167	r	82
6430	69269	I would like it paid through I Buy It.	I would like it paid through I Buy It.	3294685	1472003042204	1472003042316	o	79
6430	69269	I would like it paid through I Buy It.	I would like it paid through I Buy It.	3294714	1472003042334	1472003042406	u	85
6430	69269	I would like it paid through I Buy It.	I would like it paid through I Buy It.	3294722	1472003042480	1472003042556	g	71
6430	69269	I would like it paid through I Buy It.	I would like it paid through I Buy It.	3294727	1472003042622	1472003042698	h	72
6430	69269	I would like it paid through I Buy It.	I would like it paid through I Buy It.	3294731	1472003042848	1472003042916	 	32
6430	69269	I would like it paid through I Buy It.	I would like it paid through I Buy It.	3294776	1472003043002	1472003043414	SHIFT	16
6430	69269	I would like it paid through I Buy It.	I would like it paid through I Buy It.	3294735	1472003043158	1472003043230	I	73
6430	69269	I would like it paid through I Buy It.	I would like it paid through I Buy It.	3294778	1472003043386	1472003043430	 	32
6430	69269	I would like it paid through I Buy It.	I would like it paid through I Buy It.	3294785	1472003044278	1472003044518	SHIFT	16
6430	69269	I would like it paid through I Buy It.	I would like it paid through I Buy It.	3294782	1472003044434	1472003044510	B	66
6430	69269	I would like it paid through I Buy It.	I would like it paid through I Buy It.	3294788	1472003044600	1472003044676	u	85
6430	69269	I would like it paid through I Buy It.	I would like it paid through I Buy It.	3294790	1472003044944	1472003044996	y	89
6430	69269	I would like it paid through I Buy It.	I would like it paid through I Buy It.	3294792	1472003045267	1472003045335	 	32
6430	69269	I would like it paid through I Buy It.	I would like it paid through I Buy It.	3294837	1472003045400	1472003045860	SHIFT	16
6430	69269	I would like it paid through I Buy It.	I would like it paid through I Buy It.	3294835	1472003045552	1472003045648	I	73
6430	69269	I would like it paid through I Buy It.	I would like it paid through I Buy It.	3294840	1472003045979	1472003046051	SHIFT	16
6430	69269	I would like it paid through I Buy It.	I would like it paid through I Buy It.	3294842	1472003046297	1472003046365	t	84
6430	69269	I would like it paid through I Buy It.	I would like it paid through I Buy It.	3294843	1472003046467	1472003046543	.	190
6430	69277	Please send me an email to let me know.	Please send me an email to let me know.	3294945	1472003048703	1472003048951	SHIFT	16
6430	69277	Please send me an email to let me know.	Please send me an email to let me know.	3294948	1472003048887	1472003048955	P	80
6430	69277	Please send me an email to let me know.	Please send me an email to let me know.	3294952	1472003049067	1472003049139	l	76
6430	69277	Please send me an email to let me know.	Please send me an email to let me know.	3294955	1472003049279	1472003049351	s	83
6430	69277	Please send me an email to let me know.	Please send me an email to let me know.	3294959	1472003049475	1472003049543	e	69
6430	69277	Please send me an email to let me know.	Please send me an email to let me know.	3294964	1472003049767	1472003049827	BKSP	8
6430	69277	Please send me an email to let me know.	Please send me an email to let me know.	3294966	1472003049913	1472003049993	BKSP	8
6430	69277	Please send me an email to let me know.	Please send me an email to let me know.	3294968	1472003050001	1472003050165	e	69
6430	69277	Please send me an email to let me know.	Please send me an email to let me know.	3295005	1472003050145	1472003050293	a	65
6430	69277	Please send me an email to let me know.	Please send me an email to let me know.	3295007	1472003050309	1472003050453	s	83
6430	69277	Please send me an email to let me know.	Please send me an email to let me know.	3295012	1472003050433	1472003050529	e	69
6430	69277	Please send me an email to let me know.	Please send me an email to let me know.	3295017	1472003050594	1472003050658	 	32
6430	69277	Please send me an email to let me know.	Please send me an email to let me know.	3295022	1472003050735	1472003050823	s	83
6430	69277	Please send me an email to let me know.	Please send me an email to let me know.	3295029	1472003050872	1472003050968	e	69
6430	69277	Please send me an email to let me know.	Please send me an email to let me know.	3295013	1472003051016	1472003051091	n	78
6430	69277	Please send me an email to let me know.	Please send me an email to let me know.	3295018	1472003051152	1472003051252	d	68
6430	69277	Please send me an email to let me know.	Please send me an email to let me know.	3295023	1472003051362	1472003051422	 	32
6430	69277	Please send me an email to let me know.	Please send me an email to let me know.	3295027	1472003051554	1472003051630	m	77
6430	69277	Please send me an email to let me know.	Please send me an email to let me know.	3295031	1472003051642	1472003051734	e	69
6430	69277	Please send me an email to let me know.	Please send me an email to let me know.	3295049	1472003051798	1472003051874	 	32
6430	69277	Please send me an email to let me know.	Please send me an email to let me know.	3295050	1472003051931	1472003052051	a	65
6430	69277	Please send me an email to let me know.	Please send me an email to let me know.	3295051	1472003052070	1472003052138	n	78
6430	69277	Please send me an email to let me know.	Please send me an email to let me know.	3295052	1472003052281	1472003052348	 	32
6430	69277	Please send me an email to let me know.	Please send me an email to let me know.	3295053	1472003052511	1472003052603	e	69
6430	69277	Please send me an email to let me know.	Please send me an email to let me know.	3295097	1472003052694	1472003052758	m	77
6430	69277	Please send me an email to let me know.	Please send me an email to let me know.	3295100	1472003052837	1472003052957	a	65
6430	69277	Please send me an email to let me know.	Please send me an email to let me know.	3295104	1472003053277	1472003053349	i	73
6430	69277	Please send me an email to let me know.	Please send me an email to let me know.	3295107	1472003053447	1472003053507	l	76
6430	69277	Please send me an email to let me know.	Please send me an email to let me know.	3295108	1472003053857	1472003053929	 	32
6430	69277	Please send me an email to let me know.	Please send me an email to let me know.	3295134	1472003054037	1472003054105	o	79
6430	69277	Please send me an email to let me know.	Please send me an email to let me know.	3295135	1472003054192	1472003054256	t	84
6430	69277	Please send me an email to let me know.	Please send me an email to let me know.	3295136	1472003054328	1472003054404	 	32
6430	69277	Please send me an email to let me know.	Please send me an email to let me know.	3295137	1472003054482	1472003054566	l	76
6430	69277	Please send me an email to let me know.	Please send me an email to let me know.	3295138	1472003054602	1472003054746	e	69
6430	69277	Please send me an email to let me know.	Please send me an email to let me know.	3295185	1472003055113	1472003055197	t	84
6430	69277	Please send me an email to let me know.	Please send me an email to let me know.	3295187	1472003055587	1472003055651	 	32
6430	69277	Please send me an email to let me know.	Please send me an email to let me know.	3295189	1472003055735	1472003055811	m	77
6430	69277	Please send me an email to let me know.	Please send me an email to let me know.	3295192	1472003055887	1472003055907	e	69
6430	69277	Please send me an email to let me know.	Please send me an email to let me know.	3295195	1472003055949	1472003056017	 	32
6430	69277	Please send me an email to let me know.	Please send me an email to let me know.	3295211	1472003056099	1472003056183	k	75
6430	69277	Please send me an email to let me know.	Please send me an email to let me know.	3295213	1472003056187	1472003056271	n	78
6430	69277	Please send me an email to let me know.	Please send me an email to let me know.	3295216	1472003056298	1472003056402	o	79
6430	69277	Please send me an email to let me know.	Please send me an email to let me know.	3295219	1472003056452	1472003056508	w	87
6430	69277	Please send me an email to let me know.	Please send me an email to let me know.	3295222	1472003056641	1472003056705	.	190
