PARTICIPANT_ID	TEST_SECTION_ID	SENTENCE	USER_INPUT	KEYSTROKE_ID	PRESS_TIME	RELEASE_TIME	LETTER	KEYCODE
6664	71617	What is the status of the Pemex discussions?	What is the status of the Pemex discussions?	3405198	1472005333537	1472005333606	w	87
6664	71617	What is the status of the Pemex discussions?	What is the status of the Pemex discussions?	3405202	1472005334104	1472005334243	a	65
6664	71617	What is the status of the Pemex discussions?	What is the status of the Pemex discussions?	3405204	1472005334204	1472005334289	h	72
6664	71617	What is the status of the Pemex discussions?	What is the status of the Pemex discussions?	3405209	1472005334422	1472005334522	t	84
6664	71617	What is the status of the Pemex discussions?	What is the status of the Pemex discussions?	3405213	1472005334765	1472005334898	 	32
6664	71617	What is the status of the Pemex discussions?	What is the status of the Pemex discussions?	3406111	1472005350580	1472005350728	CAPS_LOCK	20
6664	71617	What is the status of the Pemex discussions?	What is the status of the Pemex discussions?	3406116	1472005351267	1472005351352	W	87
6664	71617	What is the status of the Pemex discussions?	What is the status of the Pemex discussions?	3406121	1472005351414	1472005351553	CAPS_LOCK	20
6664	71617	What is the status of the Pemex discussions?	What is the status of the Pemex discussions?	3406124	1472005352283	1472005352381	h	72
6664	71617	What is the status of the Pemex discussions?	What is the status of the Pemex discussions?	3406127	1472005352396	1472005352549	a	65
6664	71617	What is the status of the Pemex discussions?	What is the status of the Pemex discussions?	3406130	1472005352649	1472005352732	t	84
6664	71617	What is the status of the Pemex discussions?	What is the status of the Pemex discussions?	3406134	1472005352957	1472005353075	 	32
6664	71617	What is the status of the Pemex discussions?	What is the status of the Pemex discussions?	3406172	1472005353831	1472005353936	i	73
6664	71617	What is the status of the Pemex discussions?	What is the status of the Pemex discussions?	3406174	1472005353985	1472005354102	s	83
6664	71617	What is the status of the Pemex discussions?	What is the status of the Pemex discussions?	3406177	1472005354133	1472005354241	 	32
6664	71617	What is the status of the Pemex discussions?	What is the status of the Pemex discussions?	3406181	1472005354392	1472005354458	t	84
6664	71617	What is the status of the Pemex discussions?	What is the status of the Pemex discussions?	3406184	1472005354547	1472005354659	h	72
6664	71617	What is the status of the Pemex discussions?	What is the status of the Pemex discussions?	3406324	1472005354793	1472005354935	e	69
6664	71617	What is the status of the Pemex discussions?	What is the status of the Pemex discussions?	3406326	1472005354894	1472005355042	 	32
6664	71617	What is the status of the Pemex discussions?	What is the status of the Pemex discussions?	3406327	1472005356222	1472005356324	s	83
6664	71617	What is the status of the Pemex discussions?	What is the status of the Pemex discussions?	3406331	1472005357119	1472005357236	t	84
6664	71617	What is the status of the Pemex discussions?	What is the status of the Pemex discussions?	3406336	1472005357368	1472005357536	a	65
6664	71617	What is the status of the Pemex discussions?	What is the status of the Pemex discussions?	3406440	1472005357705	1472005357789	t	84
6664	71617	What is the status of the Pemex discussions?	What is the status of the Pemex discussions?	3406443	1472005357942	1472005358058	u	85
6664	71617	What is the status of the Pemex discussions?	What is the status of the Pemex discussions?	3406448	1472005358159	1472005358344	s	83
6664	71617	What is the status of the Pemex discussions?	What is the status of the Pemex discussions?	3406456	1472005358344	1472005358460	 	32
6664	71617	What is the status of the Pemex discussions?	What is the status of the Pemex discussions?	3406462	1472005359225	1472005359295	i	73
6664	71617	What is the status of the Pemex discussions?	What is the status of the Pemex discussions?	3406592	1472005359694	1472005359799	BKSP	8
6664	71617	What is the status of the Pemex discussions?	What is the status of the Pemex discussions?	3406594	1472005360084	1472005360170	o	79
6664	71617	What is the status of the Pemex discussions?	What is the status of the Pemex discussions?	3406596	1472005360496	1472005360645	f	70
6664	71617	What is the status of the Pemex discussions?	What is the status of the Pemex discussions?	3406599	1472005360692	1472005360864	 	32
6664	71617	What is the status of the Pemex discussions?	What is the status of the Pemex discussions?	3406600	1472005361489	1472005361558	t	84
6664	71617	What is the status of the Pemex discussions?	What is the status of the Pemex discussions?	3406601	1472005361675	1472005361775	h	72
6664	71617	What is the status of the Pemex discussions?	What is the status of the Pemex discussions?	3406793	1472005361825	1472005361958	e	69
6664	71617	What is the status of the Pemex discussions?	What is the status of the Pemex discussions?	3406796	1472005362008	1472005362111	 	32
6664	71617	What is the status of the Pemex discussions?	What is the status of the Pemex discussions?	3406799	1472005363057	1472005363194	CAPS_LOCK	20
6664	71617	What is the status of the Pemex discussions?	What is the status of the Pemex discussions?	3406802	1472005363279	1472005363355	P	80
6664	71617	What is the status of the Pemex discussions?	What is the status of the Pemex discussions?	3406805	1472005365086	1472005365180	E	69
6664	71617	What is the status of the Pemex discussions?	What is the status of the Pemex discussions?	3406808	1472005365427	1472005365545	M	77
6664	71617	What is the status of the Pemex discussions?	What is the status of the Pemex discussions?	3406964	1472005365589	1472005365697	E	69
6664	71617	What is the status of the Pemex discussions?	What is the status of the Pemex discussions?	3406969	1472005366200	1472005366318	X	88
6664	71617	What is the status of the Pemex discussions?	What is the status of the Pemex discussions?	3406975	1472005366541	1472005366675	 	32
6664	71617	What is the status of the Pemex discussions?	What is the status of the Pemex discussions?	3406979	1472005367289	1472005367458	CAPS_LOCK	20
6664	71617	What is the status of the Pemex discussions?	What is the status of the Pemex discussions?	3406982	1472005367675	1472005367776	d	68
6664	71617	What is the status of the Pemex discussions?	What is the status of the Pemex discussions?	3406985	1472005367823	1472005367939	CAPS_LOCK	20
6664	71617	What is the status of the Pemex discussions?	What is the status of the Pemex discussions?	3406987	1472005368162	1472005368278	I	73
6664	71617	What is the status of the Pemex discussions?	What is the status of the Pemex discussions?	3407055	1472005368380	1472005368497	S	83
6664	71617	What is the status of the Pemex discussions?	What is the status of the Pemex discussions?	3407058	1472005368668	1472005368768	C	67
6664	71617	What is the status of the Pemex discussions?	What is the status of the Pemex discussions?	3407060	1472005369152	1472005369247	U	85
6664	71617	What is the status of the Pemex discussions?	What is the status of the Pemex discussions?	3407062	1472005369511	1472005369578	S	83
6664	71617	What is the status of the Pemex discussions?	What is the status of the Pemex discussions?	3407064	1472005369682	1472005369778	S	83
6664	71617	What is the status of the Pemex discussions?	What is the status of the Pemex discussions?	3408232	1472005388434	1472005388634	CAPS_LOCK	20
6664	71617	What is the status of the Pemex discussions?	What is the status of the Pemex discussions?	3408233	1472005388689	1472005388806	w	87
6664	71617	What is the status of the Pemex discussions?	What is the status of the Pemex discussions?	3408236	1472005388869	1472005389020	CAPS_LOCK	20
6664	71617	What is the status of the Pemex discussions?	What is the status of the Pemex discussions?	3408238	1472005389663	1472005389777	H	72
6664	71617	What is the status of the Pemex discussions?	What is the status of the Pemex discussions?	3408240	1472005389801	1472005389917	A	65
6664	71617	What is the status of the Pemex discussions?	What is the status of the Pemex discussions?	3408243	1472005390234	1472005390335	T	84
6664	71617	What is the status of the Pemex discussions?	What is the status of the Pemex discussions?	3408246	1472005391012	1472005391099	BKSP	8
6664	71617	What is the status of the Pemex discussions?	What is the status of the Pemex discussions?	3408248	1472005391198	1472005391261	BKSP	8
6664	71617	What is the status of the Pemex discussions?	What is the status of the Pemex discussions?	3408250	1472005391349	1472005391434	BKSP	8
6664	71617	What is the status of the Pemex discussions?	What is the status of the Pemex discussions?	3408252	1472005391519	1472005391637	BKSP	8
6664	71617	What is the status of the Pemex discussions?	What is the status of the Pemex discussions?	3408256	1472005392315	1472005392397	W	87
6664	71617	What is the status of the Pemex discussions?	What is the status of the Pemex discussions?	3408365	1472005392507	1472005392634	CAPS_LOCK	20
6664	71617	What is the status of the Pemex discussions?	What is the status of the Pemex discussions?	3408369	1472005393391	1472005393502	h	72
6664	71617	What is the status of the Pemex discussions?	What is the status of the Pemex discussions?	3408371	1472005393522	1472005393670	a	65
6664	71617	What is the status of the Pemex discussions?	What is the status of the Pemex discussions?	3408373	1472005393686	1472005393770	t	84
6664	71617	What is the status of the Pemex discussions?	What is the status of the Pemex discussions?	3408375	1472005394025	1472005394188	 	32
6664	71617	What is the status of the Pemex discussions?	What is the status of the Pemex discussions?	3408377	1472005394844	1472005394945	i	73
6664	71617	What is the status of the Pemex discussions?	What is the status of the Pemex discussions?	3408409	1472005395129	1472005395262	s	83
6664	71617	What is the status of the Pemex discussions?	What is the status of the Pemex discussions?	3408414	1472005395262	1472005395379	 	32
6664	71617	What is the status of the Pemex discussions?	What is the status of the Pemex discussions?	3408419	1472005395582	1472005395635	t	84
6664	71617	What is the status of the Pemex discussions?	What is the status of the Pemex discussions?	3408422	1472005395941	1472005396046	h	72
6664	71617	What is the status of the Pemex discussions?	What is the status of the Pemex discussions?	3408591	1472005396001	1472005396121	e	69
6664	71617	What is the status of the Pemex discussions?	What is the status of the Pemex discussions?	3408594	1472005396261	1472005396377	 	32
6664	71617	What is the status of the Pemex discussions?	What is the status of the Pemex discussions?	3408599	1472005397118	1472005397205	s	83
6664	71617	What is the status of the Pemex discussions?	What is the status of the Pemex discussions?	3408603	1472005397625	1472005397694	y	89
6664	71617	What is the status of the Pemex discussions?	What is the status of the Pemex discussions?	3408604	1472005398389	1472005398475	BKSP	8
6664	71617	What is the status of the Pemex discussions?	What is the status of the Pemex discussions?	3408608	1472005398795	1472005398880	t	84
6664	71617	What is the status of the Pemex discussions?	What is the status of the Pemex discussions?	3408611	1472005398911	1472005399029	a	65
6664	71617	What is the status of the Pemex discussions?	What is the status of the Pemex discussions?	3408703	1472005399130	1472005399246	u	85
6664	71617	What is the status of the Pemex discussions?	What is the status of the Pemex discussions?	3408706	1472005399810	1472005399893	BKSP	8
6664	71617	What is the status of the Pemex discussions?	What is the status of the Pemex discussions?	3408708	1472005400159	1472005400252	t	84
6664	71617	What is the status of the Pemex discussions?	What is the status of the Pemex discussions?	3408711	1472005400377	1472005400455	u	85
6664	71617	What is the status of the Pemex discussions?	What is the status of the Pemex discussions?	3408716	1472005400601	1472005400657	s	83
6664	71617	What is the status of the Pemex discussions?	What is the status of the Pemex discussions?	3408719	1472005401140	1472005401258	 	32
6664	71617	What is the status of the Pemex discussions?	What is the status of the Pemex discussions?	3408826	1472005401796	1472005401897	o	79
6664	71617	What is the status of the Pemex discussions?	What is the status of the Pemex discussions?	3408829	1472005402288	1472005402366	f	70
6664	71617	What is the status of the Pemex discussions?	What is the status of the Pemex discussions?	3408833	1472005402525	1472005402631	 	32
6664	71617	What is the status of the Pemex discussions?	What is the status of the Pemex discussions?	3408836	1472005402729	1472005402900	CAPS_LOCK	20
6664	71617	What is the status of the Pemex discussions?	What is the status of the Pemex discussions?	3408839	1472005403035	1472005403137	P	80
6664	71617	What is the status of the Pemex discussions?	What is the status of the Pemex discussions?	3408841	1472005403116	1472005403239	CAPS_LOCK	20
6664	71617	What is the status of the Pemex discussions?	What is the status of the Pemex discussions?	3408842	1472005403868	1472005403965	e	69
6664	71617	What is the status of the Pemex discussions?	What is the status of the Pemex discussions?	3409153	1472005405490	1472005405600	x	88
6664	71617	What is the status of the Pemex discussions?	What is the status of the Pemex discussions?	3409156	1472005405731	1472005405831	e	69
6664	71617	What is the status of the Pemex discussions?	What is the status of the Pemex discussions?	3409161	1472005406235	1472005406368	m	77
6664	71617	What is the status of the Pemex discussions?	What is the status of the Pemex discussions?	3409164	1472005408318	1472005408434	BKSP	8
6664	71617	What is the status of the Pemex discussions?	What is the status of the Pemex discussions?	3409168	1472005408552	1472005408652	BKSP	8
6664	71617	What is the status of the Pemex discussions?	What is the status of the Pemex discussions?	3409171	1472005408755	1472005408872	BKSP	8
6664	71617	What is the status of the Pemex discussions?	What is the status of the Pemex discussions?	3409173	1472005408964	1472005409091	BKSP	8
6664	71617	What is the status of the Pemex discussions?	What is the status of the Pemex discussions?	3409176	1472005409316	1472005409433	BKSP	8
6664	71617	What is the status of the Pemex discussions?	What is the status of the Pemex discussions?	3409180	1472005409923	1472005410003	t	84
6664	71617	What is the status of the Pemex discussions?	What is the status of the Pemex discussions?	3409184	1472005410127	1472005410245	h	72
6664	71617	What is the status of the Pemex discussions?	What is the status of the Pemex discussions?	3409488	1472005410279	1472005410407	e	69
6664	71617	What is the status of the Pemex discussions?	What is the status of the Pemex discussions?	3409491	1472005410495	1472005410596	 	32
6664	71617	What is the status of the Pemex discussions?	What is the status of the Pemex discussions?	3409495	1472005411141	1472005411321	CAPS_LOCK	20
6664	71617	What is the status of the Pemex discussions?	What is the status of the Pemex discussions?	3409497	1472005411643	1472005411746	P	80
6664	71617	What is the status of the Pemex discussions?	What is the status of the Pemex discussions?	3409501	1472005411849	1472005411998	CAPS_LOCK	20
6664	71617	What is the status of the Pemex discussions?	What is the status of the Pemex discussions?	3409503	1472005412288	1472005412389	e	69
6664	71617	What is the status of the Pemex discussions?	What is the status of the Pemex discussions?	3409507	1472005416248	1472005416349	x	88
6664	71617	What is the status of the Pemex discussions?	What is the status of the Pemex discussions?	3409834	1472005418088	1472005418226	e	69
6664	71617	What is the status of the Pemex discussions?	What is the status of the Pemex discussions?	3409840	1472005419953	1472005420077	BKSP	8
6664	71617	What is the status of the Pemex discussions?	What is the status of the Pemex discussions?	3409845	1472005420212	1472005420329	BKSP	8
6664	71617	What is the status of the Pemex discussions?	What is the status of the Pemex discussions?	3409850	1472005420919	1472005421061	m	77
6664	71617	What is the status of the Pemex discussions?	What is the status of the Pemex discussions?	3409856	1472005421343	1472005421459	e	69
6664	71617	What is the status of the Pemex discussions?	What is the status of the Pemex discussions?	3409860	1472005421632	1472005421743	x	88
6664	71617	What is the status of the Pemex discussions?	What is the status of the Pemex discussions?	3409863	1472005422006	1472005422123	 	32
6664	71617	What is the status of the Pemex discussions?	What is the status of the Pemex discussions?	3409958	1472005422648	1472005422733	d	68
6664	71617	What is the status of the Pemex discussions?	What is the status of the Pemex discussions?	3409962	1472005423106	1472005423222	i	73
6664	71617	What is the status of the Pemex discussions?	What is the status of the Pemex discussions?	3409965	1472005423323	1472005423441	s	83
6664	71617	What is the status of the Pemex discussions?	What is the status of the Pemex discussions?	3409968	1472005423573	1472005423661	c	67
6664	71617	What is the status of the Pemex discussions?	What is the status of the Pemex discussions?	3409971	1472005423836	1472005423948	u	85
6664	71617	What is the status of the Pemex discussions?	What is the status of the Pemex discussions?	3410029	1472005424236	1472005424307	s	83
6664	71617	What is the status of the Pemex discussions?	What is the status of the Pemex discussions?	3410035	1472005424395	1472005424498	s	83
6664	71617	What is the status of the Pemex discussions?	What is the status of the Pemex discussions?	3410039	1472005424829	1472005424913	i	73
6664	71617	What is the status of the Pemex discussions?	What is the status of the Pemex discussions?	3410043	1472005425013	1472005425129	o	79
6664	71617	What is the status of the Pemex discussions?	What is the status of the Pemex discussions?	3410048	1472005425264	1472005425396	n	78
6664	71617	What is the status of the Pemex discussions?	What is the status of the Pemex discussions?	3410523	1472005426596	1472005426683	s	83
6664	71617	What is the status of the Pemex discussions?	What is the status of the Pemex discussions?	3410535	1472005427274	1472005427682	CAPS_LOCK	20
6664	71617	What is the status of the Pemex discussions?	What is the status of the Pemex discussions?	3410530	1472005427526	1472005427667	/	191
6664	71617	What is the status of the Pemex discussions?	What is the status of the Pemex discussions?	3410543	1472005428826	1472005428930	BKSP	8
6664	71617	What is the status of the Pemex discussions?	What is the status of the Pemex discussions?	3410549	1472005429249	1472005429694	SHIFT	16
6664	71617	What is the status of the Pemex discussions?	What is the status of the Pemex discussions?	3410547	1472005429553	1472005429672	?	191
6664	71617	What is the status of the Pemex discussions?	What is the status of the Pemex discussions?	3410551	1472005430465	1472005430641	CAPS_LOCK	20
6664	71728	Go for the dollars.	Go for the dollar.	3410879	1472005436510	1472005436711	CAPS_LOCK	20
6664	71728	Go for the dollars.	Go for the dollar.	3410881	1472005437208	1472005437291	G	71
6664	71728	Go for the dollars.	Go for the dollar.	3410885	1472005437320	1472005437500	CAPS_LOCK	20
6664	71728	Go for the dollars.	Go for the dollar.	3410890	1472005437554	1472005437670	o	79
6664	71728	Go for the dollars.	Go for the dollar.	3410893	1472005437990	1472005438118	 	32
6664	71728	Go for the dollars.	Go for the dollar.	3410895	1472005438716	1472005438801	f	70
6664	71728	Go for the dollars.	Go for the dollar.	3410896	1472005439079	1472005439191	o	79
6664	71728	Go for the dollars.	Go for the dollar.	3410960	1472005439360	1472005439493	r	82
6664	71728	Go for the dollars.	Go for the dollar.	3410961	1472005439594	1472005439710	 	32
6664	71728	Go for the dollars.	Go for the dollar.	3410962	1472005440336	1472005440424	t	84
6664	71728	Go for the dollars.	Go for the dollar.	3410963	1472005440559	1472005440660	h	72
6664	71728	Go for the dollars.	Go for the dollar.	3410964	1472005440795	1472005440899	e	69
6664	71728	Go for the dollars.	Go for the dollar.	3411034	1472005440968	1472005441083	 	32
6664	71728	Go for the dollars.	Go for the dollar.	3411038	1472005441303	1472005441404	d	68
6664	71728	Go for the dollars.	Go for the dollar.	3411042	1472005441708	1472005441795	o	79
6664	71728	Go for the dollars.	Go for the dollar.	3411046	1472005441927	1472005442011	l	76
6664	71728	Go for the dollars.	Go for the dollar.	3411049	1472005442058	1472005442148	l	76
6664	71728	Go for the dollars.	Go for the dollar.	3411198	1472005442214	1472005442363	a	65
6664	71728	Go for the dollars.	Go for the dollar.	3411203	1472005442463	1472005442565	r	82
6664	71728	Go for the dollars.	Go for the dollar.	3411205	1472005444273	1472005444412	.	190
6664	71741	In a meeting with your guys now.	In a meeting with your guys now.	3411426	1472005446710	1472005446856	CAPS_LOCK	20
6664	71741	In a meeting with your guys now.	In a meeting with your guys now.	3411428	1472005447001	1472005447108	I	73
6664	71741	In a meeting with your guys now.	In a meeting with your guys now.	3411430	1472005447174	1472005447374	CAPS_LOCK	20
6664	71741	In a meeting with your guys now.	In a meeting with your guys now.	3411432	1472005447421	1472005447522	n	78
6664	71741	In a meeting with your guys now.	In a meeting with your guys now.	3411434	1472005447662	1472005447794	 	32
6664	71741	In a meeting with your guys now.	In a meeting with your guys now.	3411439	1472005448317	1472005448474	a	65
6664	71741	In a meeting with your guys now.	In a meeting with your guys now.	3411447	1472005448520	1472005448631	 	32
6664	71741	In a meeting with your guys now.	In a meeting with your guys now.	3411627	1472005448824	1472005448996	CAPS_LOCK	20
6664	71741	In a meeting with your guys now.	In a meeting with your guys now.	3411628	1472005449063	1472005449166	M	77
6664	71741	In a meeting with your guys now.	In a meeting with your guys now.	3411629	1472005449972	1472005450138	CAPS_LOCK	20
6664	71741	In a meeting with your guys now.	In a meeting with your guys now.	3411630	1472005450237	1472005450391	m	77
6664	71741	In a meeting with your guys now.	In a meeting with your guys now.	3411631	1472005450882	1472005450960	BKSP	8
6664	71741	In a meeting with your guys now.	In a meeting with your guys now.	3411633	1472005451048	1472005451155	BKSP	8
6664	71741	In a meeting with your guys now.	In a meeting with your guys now.	3411635	1472005451646	1472005451762	m	77
6664	71741	In a meeting with your guys now.	In a meeting with your guys now.	3411637	1472005452046	1472005452134	e	69
6664	71741	In a meeting with your guys now.	In a meeting with your guys now.	3411640	1472005452199	1472005452283	e	69
6664	71741	In a meeting with your guys now.	In a meeting with your guys now.	3411727	1472005452450	1472005452551	t	84
6664	71741	In a meeting with your guys now.	In a meeting with your guys now.	3411728	1472005452920	1472005453021	i	73
6664	71741	In a meeting with your guys now.	In a meeting with your guys now.	3411730	1472005453224	1472005453341	n	78
6664	71741	In a meeting with your guys now.	In a meeting with your guys now.	3411732	1472005453591	1472005453714	g	71
6664	71741	In a meeting with your guys now.	In a meeting with your guys now.	3411734	1472005453996	1472005454120	 	32
6664	71741	In a meeting with your guys now.	In a meeting with your guys now.	3411850	1472005455134	1472005455234	w	87
6664	71741	In a meeting with your guys now.	In a meeting with your guys now.	3411854	1472005455572	1472005455673	i	73
6664	71741	In a meeting with your guys now.	In a meeting with your guys now.	3411859	1472005455874	1472005455943	t	84
6664	71741	In a meeting with your guys now.	In a meeting with your guys now.	3411866	1472005456062	1472005456159	h	72
6664	71741	In a meeting with your guys now.	In a meeting with your guys now.	3411869	1472005456297	1472005456399	 	32
6664	71741	In a meeting with your guys now.	In a meeting with your guys now.	3411965	1472005456569	1472005456655	y	89
6664	71741	In a meeting with your guys now.	In a meeting with your guys now.	3411971	1472005456804	1472005456903	o	79
6664	71741	In a meeting with your guys now.	In a meeting with your guys now.	3411975	1472005457037	1472005457137	u	85
6664	71741	In a meeting with your guys now.	In a meeting with your guys now.	3411979	1472005457307	1472005457423	r	82
6664	71741	In a meeting with your guys now.	In a meeting with your guys now.	3411982	1472005457693	1472005457825	 	32
6664	71741	In a meeting with your guys now.	In a meeting with your guys now.	3412113	1472005458489	1472005458574	g	71
6664	71741	In a meeting with your guys now.	In a meeting with your guys now.	3412117	1472005458802	1472005458910	u	85
6664	71741	In a meeting with your guys now.	In a meeting with your guys now.	3412124	1472005459219	1472005459316	y	89
6664	71741	In a meeting with your guys now.	In a meeting with your guys now.	3412130	1472005459738	1472005459849	s	83
6664	71741	In a meeting with your guys now.	In a meeting with your guys now.	3412134	1472005460143	1472005460260	 	32
6664	71741	In a meeting with your guys now.	In a meeting with your guys now.	3412255	1472005460743	1472005460852	n	78
6664	71741	In a meeting with your guys now.	In a meeting with your guys now.	3412259	1472005461038	1472005461140	o	79
6664	71741	In a meeting with your guys now.	In a meeting with your guys now.	3412265	1472005461645	1472005461817	w	87
6664	71741	In a meeting with your guys now.	In a meeting with your guys now.	3412270	1472005462570	1472005462702	.	190
6664	71760	I might have something at the office.	I might have something at the office.	3412523	1472005465132	1472005465304	CAPS_LOCK	20
6664	71760	I might have something at the office.	I might have something at the office.	3412524	1472005465406	1472005465522	I	73
6664	71760	I might have something at the office.	I might have something at the office.	3412525	1472005465561	1472005465725	CAPS_LOCK	20
6664	71760	I might have something at the office.	I might have something at the office.	3412527	1472005465865	1472005465998	 	32
6664	71760	I might have something at the office.	I might have something at the office.	3412529	1472005466506	1472005466621	m	77
6664	71760	I might have something at the office.	I might have something at the office.	3412531	1472005466753	1472005466854	i	73
6664	71760	I might have something at the office.	I might have something at the office.	3412533	1472005467554	1472005467612	g	71
6664	71760	I might have something at the office.	I might have something at the office.	3412616	1472005467705	1472005467806	h	72
6664	71760	I might have something at the office.	I might have something at the office.	3412624	1472005468006	1472005468122	t	84
6664	71760	I might have something at the office.	I might have something at the office.	3412630	1472005468222	1472005468339	 	32
6664	71760	I might have something at the office.	I might have something at the office.	3412635	1472005469121	1472005469219	h	72
6664	71760	I might have something at the office.	I might have something at the office.	3412638	1472005469320	1472005469502	a	65
6664	71760	I might have something at the office.	I might have something at the office.	3412738	1472005469529	1472005469636	v	86
6664	71760	I might have something at the office.	I might have something at the office.	3412740	1472005470796	1472005470892	e	69
6664	71760	I might have something at the office.	I might have something at the office.	3412742	1472005471155	1472005471270	 	32
6664	71760	I might have something at the office.	I might have something at the office.	3412744	1472005471832	1472005471980	s	83
6664	71760	I might have something at the office.	I might have something at the office.	3412746	1472005472135	1472005472216	o	79
6664	71760	I might have something at the office.	I might have something at the office.	3412820	1472005472436	1472005472552	m	77
6664	71760	I might have something at the office.	I might have something at the office.	3412822	1472005472839	1472005472906	e	69
6664	71760	I might have something at the office.	I might have something at the office.	3412825	1472005473042	1472005473143	t	84
6664	71760	I might have something at the office.	I might have something at the office.	3412827	1472005473306	1472005473390	h	72
6664	71760	I might have something at the office.	I might have something at the office.	3412830	1472005473565	1472005473650	i	73
6664	71760	I might have something at the office.	I might have something at the office.	3412900	1472005473830	1472005473946	n	78
6664	71760	I might have something at the office.	I might have something at the office.	3412901	1472005474091	1472005474167	g	71
6664	71760	I might have something at the office.	I might have something at the office.	3412903	1472005474313	1472005474453	 	32
6664	71760	I might have something at the office.	I might have something at the office.	3412907	1472005475079	1472005475227	a	65
6664	71760	I might have something at the office.	I might have something at the office.	3412911	1472005475569	1472005475649	t	84
6664	71760	I might have something at the office.	I might have something at the office.	3412979	1472005475820	1472005475906	 	32
6664	71760	I might have something at the office.	I might have something at the office.	3412980	1472005476075	1472005476176	t	84
6664	71760	I might have something at the office.	I might have something at the office.	3412985	1472005476280	1472005476381	h	72
6664	71760	I might have something at the office.	I might have something at the office.	3412989	1472005476545	1472005476647	e	69
6664	71760	I might have something at the office.	I might have something at the office.	3412992	1472005476685	1472005476803	 	32
6664	71760	I might have something at the office.	I might have something at the office.	3413079	1472005477239	1472005477324	o	79
6664	71760	I might have something at the office.	I might have something at the office.	3413082	1472005477799	1472005477864	f	70
6664	71760	I might have something at the office.	I might have something at the office.	3413085	1472005477918	1472005478028	f	70
6664	71760	I might have something at the office.	I might have something at the office.	3413088	1472005478285	1472005478405	i	73
6664	71760	I might have something at the office.	I might have something at the office.	3413091	1472005478690	1472005478809	c	67
6664	71760	I might have something at the office.	I might have something at the office.	3413150	1472005478959	1472005479059	e	69
6664	71760	I might have something at the office.	I might have something at the office.	3413152	1472005479570	1472005479686	.	190
6664	71780	History repeated itself last season when Tenerife beat Madrid.	History repeated itself last season when Tenerife beat Madrid	3413443	1472005482133	1472005482289	CAPS_LOCK	20
6664	71780	History repeated itself last season when Tenerife beat Madrid.	History repeated itself last season when Tenerife beat Madrid	3413445	1472005483053	1472005483154	H	72
6664	71780	History repeated itself last season when Tenerife beat Madrid.	History repeated itself last season when Tenerife beat Madrid	3413447	1472005483185	1472005483271	A	65
6664	71780	History repeated itself last season when Tenerife beat Madrid.	History repeated itself last season when Tenerife beat Madrid	3413449	1472005483963	1472005484114	CAPS_LOCK	20
6664	71780	History repeated itself last season when Tenerife beat Madrid.	History repeated itself last season when Tenerife beat Madrid	3413452	1472005484638	1472005484728	BKSP	8
6664	71780	History repeated itself last season when Tenerife beat Madrid.	History repeated itself last season when Tenerife beat Madrid	3413455	1472005485381	1472005485483	i	73
6664	71780	History repeated itself last season when Tenerife beat Madrid.	History repeated itself last season when Tenerife beat Madrid	3413457	1472005486391	1472005486470	s	83
6664	71780	History repeated itself last season when Tenerife beat Madrid.	History repeated itself last season when Tenerife beat Madrid	3413461	1472005486650	1472005486736	t	84
6664	71780	History repeated itself last season when Tenerife beat Madrid.	History repeated itself last season when Tenerife beat Madrid	3413556	1472005486958	1472005487043	o	79
6664	71780	History repeated itself last season when Tenerife beat Madrid.	History repeated itself last season when Tenerife beat Madrid	3413557	1472005487312	1472005487411	r	82
6664	71780	History repeated itself last season when Tenerife beat Madrid.	History repeated itself last season when Tenerife beat Madrid	3413558	1472005487547	1472005487648	y	89
6664	71780	History repeated itself last season when Tenerife beat Madrid.	History repeated itself last season when Tenerife beat Madrid	3413559	1472005487868	1472005488000	 	32
6664	71780	History repeated itself last season when Tenerife beat Madrid.	History repeated itself last season when Tenerife beat Madrid	3413560	1472005488673	1472005488764	r	82
6664	71780	History repeated itself last season when Tenerife beat Madrid.	History repeated itself last season when Tenerife beat Madrid	3413637	1472005488849	1472005488967	e	69
6664	71780	History repeated itself last season when Tenerife beat Madrid.	History repeated itself last season when Tenerife beat Madrid	3413639	1472005489667	1472005489759	p	80
6664	71780	History repeated itself last season when Tenerife beat Madrid.	History repeated itself last season when Tenerife beat Madrid	3413643	1472005490098	1472005490183	e	69
6664	71780	History repeated itself last season when Tenerife beat Madrid.	History repeated itself last season when Tenerife beat Madrid	3413647	1472005490249	1472005490386	a	65
6664	71780	History repeated itself last season when Tenerife beat Madrid.	History repeated itself last season when Tenerife beat Madrid	3413653	1472005490455	1472005490556	t	84
6664	71780	History repeated itself last season when Tenerife beat Madrid.	History repeated itself last season when Tenerife beat Madrid	3413720	1472005490737	1472005490810	e	69
6664	71780	History repeated itself last season when Tenerife beat Madrid.	History repeated itself last season when Tenerife beat Madrid	3413722	1472005490938	1472005491034	d	68
6664	71780	History repeated itself last season when Tenerife beat Madrid.	History repeated itself last season when Tenerife beat Madrid	3413724	1472005491267	1472005491384	 	32
6664	71780	History repeated itself last season when Tenerife beat Madrid.	History repeated itself last season when Tenerife beat Madrid	3413725	1472005491825	1472005491939	i	73
6664	71780	History repeated itself last season when Tenerife beat Madrid.	History repeated itself last season when Tenerife beat Madrid	3413726	1472005492148	1472005492235	t	84
6664	71780	History repeated itself last season when Tenerife beat Madrid.	History repeated itself last season when Tenerife beat Madrid	3413815	1472005492850	1472005492937	s	83
6664	71780	History repeated itself last season when Tenerife beat Madrid.	History repeated itself last season when Tenerife beat Madrid	3413817	1472005493108	1472005493192	e	69
6664	71780	History repeated itself last season when Tenerife beat Madrid.	History repeated itself last season when Tenerife beat Madrid	3413819	1472005493529	1472005493646	l	76
6664	71780	History repeated itself last season when Tenerife beat Madrid.	History repeated itself last season when Tenerife beat Madrid	3413822	1472005493895	1472005493991	f	70
6664	71780	History repeated itself last season when Tenerife beat Madrid.	History repeated itself last season when Tenerife beat Madrid	3413824	1472005494137	1472005494270	 	32
6664	71780	History repeated itself last season when Tenerife beat Madrid.	History repeated itself last season when Tenerife beat Madrid	3413900	1472005494916	1472005494998	;	186
6664	71780	History repeated itself last season when Tenerife beat Madrid.	History repeated itself last season when Tenerife beat Madrid	3413905	1472005495400	1472005495469	BKSP	8
6664	71780	History repeated itself last season when Tenerife beat Madrid.	History repeated itself last season when Tenerife beat Madrid	3413911	1472005495727	1472005495827	l	76
6664	71780	History repeated itself last season when Tenerife beat Madrid.	History repeated itself last season when Tenerife beat Madrid	3413916	1472005495906	1472005496076	a	65
6664	71780	History repeated itself last season when Tenerife beat Madrid.	History repeated itself last season when Tenerife beat Madrid	3413921	1472005496249	1472005496335	s	83
6664	71780	History repeated itself last season when Tenerife beat Madrid.	History repeated itself last season when Tenerife beat Madrid	3413926	1472005496569	1472005496671	t	84
6664	71780	History repeated itself last season when Tenerife beat Madrid.	History repeated itself last season when Tenerife beat Madrid	3414033	1472005496891	1472005497007	 	32
6664	71780	History repeated itself last season when Tenerife beat Madrid.	History repeated itself last season when Tenerife beat Madrid	3414035	1472005497787	1472005497872	s	83
6664	71780	History repeated itself last season when Tenerife beat Madrid.	History repeated itself last season when Tenerife beat Madrid	3414037	1472005498349	1472005498416	e	69
6664	71780	History repeated itself last season when Tenerife beat Madrid.	History repeated itself last season when Tenerife beat Madrid	3414040	1472005498524	1472005498617	a	65
6664	71780	History repeated itself last season when Tenerife beat Madrid.	History repeated itself last season when Tenerife beat Madrid	3414044	1472005498880	1472005498964	s	83
6664	71780	History repeated itself last season when Tenerife beat Madrid.	History repeated itself last season when Tenerife beat Madrid	3414158	1472005499402	1472005499504	o	79
6664	71780	History repeated itself last season when Tenerife beat Madrid.	History repeated itself last season when Tenerife beat Madrid	3414160	1472005499673	1472005499757	n	78
6664	71780	History repeated itself last season when Tenerife beat Madrid.	History repeated itself last season when Tenerife beat Madrid	3414163	1472005499871	1472005499991	 	32
6664	71780	History repeated itself last season when Tenerife beat Madrid.	History repeated itself last season when Tenerife beat Madrid	3414165	1472005501375	1472005501477	w	87
6664	71780	History repeated itself last season when Tenerife beat Madrid.	History repeated itself last season when Tenerife beat Madrid	3414167	1472005501865	1472005501966	h	72
6664	71780	History repeated itself last season when Tenerife beat Madrid.	History repeated itself last season when Tenerife beat Madrid	3414291	1472005502169	1472005502284	e	69
6664	71780	History repeated itself last season when Tenerife beat Madrid.	History repeated itself last season when Tenerife beat Madrid	3414296	1472005503137	1472005503215	n	78
6664	71780	History repeated itself last season when Tenerife beat Madrid.	History repeated itself last season when Tenerife beat Madrid	3414302	1472005503324	1472005503441	 	32
6664	71780	History repeated itself last season when Tenerife beat Madrid.	History repeated itself last season when Tenerife beat Madrid	3414306	1472005503644	1472005503831	CAPS_LOCK	20
6664	71780	History repeated itself last season when Tenerife beat Madrid.	History repeated itself last season when Tenerife beat Madrid	3414308	1472005503891	1472005503995	T	84
6664	71780	History repeated itself last season when Tenerife beat Madrid.	History repeated itself last season when Tenerife beat Madrid	3414311	1472005503995	1472005504164	CAPS_LOCK	20
6664	71780	History repeated itself last season when Tenerife beat Madrid.	History repeated itself last season when Tenerife beat Madrid	3414314	1472005504983	1472005505063	e	69
6664	71780	History repeated itself last season when Tenerife beat Madrid.	History repeated itself last season when Tenerife beat Madrid	3414553	1472005505485	1472005505586	n	78
6664	71780	History repeated itself last season when Tenerife beat Madrid.	History repeated itself last season when Tenerife beat Madrid	3414558	1472005506439	1472005506563	e	69
6664	71780	History repeated itself last season when Tenerife beat Madrid.	History repeated itself last season when Tenerife beat Madrid	3414563	1472005507115	1472005507201	r	82
6664	71780	History repeated itself last season when Tenerife beat Madrid.	History repeated itself last season when Tenerife beat Madrid	3414568	1472005507593	1472005507694	i	73
6664	71780	History repeated itself last season when Tenerife beat Madrid.	History repeated itself last season when Tenerife beat Madrid	3414572	1472005509532	1472005509651	f	70
6664	71780	History repeated itself last season when Tenerife beat Madrid.	History repeated itself last season when Tenerife beat Madrid	3414642	1472005509837	1472005509937	e	69
6664	71780	History repeated itself last season when Tenerife beat Madrid.	History repeated itself last season when Tenerife beat Madrid	3414645	1472005510210	1472005510326	 	32
6664	71780	History repeated itself last season when Tenerife beat Madrid.	History repeated itself last season when Tenerife beat Madrid	3414646	1472005511005	1472005511113	b	66
6664	71780	History repeated itself last season when Tenerife beat Madrid.	History repeated itself last season when Tenerife beat Madrid	3414648	1472005511140	1472005511272	a	65
6664	71780	History repeated itself last season when Tenerife beat Madrid.	History repeated itself last season when Tenerife beat Madrid	3414650	1472005511459	1472005511569	a	65
6664	71780	History repeated itself last season when Tenerife beat Madrid.	History repeated itself last season when Tenerife beat Madrid	3414834	1472005512265	1472005512381	BKSP	8
6664	71780	History repeated itself last season when Tenerife beat Madrid.	History repeated itself last season when Tenerife beat Madrid	3414837	1472005513375	1472005513474	BKSP	8
6664	71780	History repeated itself last season when Tenerife beat Madrid.	History repeated itself last season when Tenerife beat Madrid	3414839	1472005513780	1472005513881	e	69
6664	71780	History repeated itself last season when Tenerife beat Madrid.	History repeated itself last season when Tenerife beat Madrid	3414841	1472005513949	1472005514081	a	65
6664	71780	History repeated itself last season when Tenerife beat Madrid.	History repeated itself last season when Tenerife beat Madrid	3414843	1472005514217	1472005514355	t	84
6664	71780	History repeated itself last season when Tenerife beat Madrid.	History repeated itself last season when Tenerife beat Madrid	3414846	1472005514660	1472005514793	 	32
6664	71780	History repeated itself last season when Tenerife beat Madrid.	History repeated itself last season when Tenerife beat Madrid	3414849	1472005515503	1472005515672	CAPS_LOCK	20
6664	71780	History repeated itself last season when Tenerife beat Madrid.	History repeated itself last season when Tenerife beat Madrid	3414852	1472005515924	1472005516041	M	77
6664	71780	History repeated itself last season when Tenerife beat Madrid.	History repeated itself last season when Tenerife beat Madrid	3414998	1472005516054	1472005516213	CAPS_LOCK	20
6664	71780	History repeated itself last season when Tenerife beat Madrid.	History repeated itself last season when Tenerife beat Madrid	3415000	1472005516379	1472005516548	a	65
6664	71780	History repeated itself last season when Tenerife beat Madrid.	History repeated itself last season when Tenerife beat Madrid	3415002	1472005517896	1472005518015	d	68
6664	71780	History repeated itself last season when Tenerife beat Madrid.	History repeated itself last season when Tenerife beat Madrid	3415004	1472005518769	1472005518855	r	82
6664	71780	History repeated itself last season when Tenerife beat Madrid.	History repeated itself last season when Tenerife beat Madrid	3415010	1472005519113	1472005519215	i	73
6664	71780	History repeated itself last season when Tenerife beat Madrid.	History repeated itself last season when Tenerife beat Madrid	3415014	1472005519481	1472005519571	d	68
6664	71824	The amendment has little chance of becoming law.	The adendement has little chanvce of beoming law	3415335	1472005522491	1472005522674	CAPS_LOCK	20
6664	71824	The amendment has little chance of becoming law.	The adendement has little chanvce of beoming law	3415339	1472005522778	1472005522861	T	84
6664	71824	The amendment has little chance of becoming law.	The adendement has little chanvce of beoming law	3415345	1472005522823	1472005522982	CAPS_LOCK	20
6664	71824	The amendment has little chance of becoming law.	The adendement has little chanvce of beoming law	3415348	1472005523067	1472005523200	h	72
6664	71824	The amendment has little chance of becoming law.	The adendement has little chanvce of beoming law	3415355	1472005523387	1472005523571	e	69
6664	71824	The amendment has little chance of becoming law.	The adendement has little chanvce of beoming law	3415361	1472005523504	1472005523639	 	32
6664	71824	The amendment has little chance of becoming law.	The adendement has little chanvce of beoming law	3415367	1472005524831	1472005524923	a	65
6664	71824	The amendment has little chance of becoming law.	The adendement has little chanvce of beoming law	3415548	1472005525096	1472005525224	d	68
6664	71824	The amendment has little chance of becoming law.	The adendement has little chanvce of beoming law	3415551	1472005527013	1472005527115	e	69
6664	71824	The amendment has little chance of becoming law.	The adendement has little chanvce of beoming law	3415556	1472005527263	1472005527396	n	78
6664	71824	The amendment has little chance of becoming law.	The adendement has little chanvce of beoming law	3415560	1472005528550	1472005528657	d	68
6664	71824	The amendment has little chance of becoming law.	The adendement has little chanvce of beoming law	3415561	1472005528834	1472005528918	e	69
6664	71824	The amendment has little chance of becoming law.	The adendement has little chanvce of beoming law	3415657	1472005529256	1472005529379	m	77
6664	71824	The amendment has little chance of becoming law.	The adendement has little chanvce of beoming law	3415659	1472005529587	1472005529736	e	69
6664	71824	The amendment has little chance of becoming law.	The adendement has little chanvce of beoming law	3415663	1472005529819	1472005529942	n	78
6664	71824	The amendment has little chance of becoming law.	The adendement has little chanvce of beoming law	3415667	1472005530190	1472005530291	t	84
6664	71824	The amendment has little chance of becoming law.	The adendement has little chanvce of beoming law	3415671	1472005530526	1472005530648	 	32
6664	71824	The amendment has little chance of becoming law.	The adendement has little chanvce of beoming law	3415798	1472005531248	1472005531348	h	72
6664	71824	The amendment has little chance of becoming law.	The adendement has little chanvce of beoming law	3415801	1472005531380	1472005531511	a	65
6664	71824	The amendment has little chance of becoming law.	The adendement has little chanvce of beoming law	3415806	1472005531728	1472005531847	s	83
6664	71824	The amendment has little chance of becoming law.	The adendement has little chanvce of beoming law	3415810	1472005532033	1472005532136	 	32
6664	71824	The amendment has little chance of becoming law.	The adendement has little chanvce of beoming law	3415814	1472005532984	1472005533086	l	76
6664	71824	The amendment has little chance of becoming law.	The adendement has little chanvce of beoming law	3415898	1472005533289	1472005533374	i	73
6664	71824	The amendment has little chance of becoming law.	The adendement has little chanvce of beoming law	3415900	1472005533655	1472005533743	t	84
6664	71824	The amendment has little chance of becoming law.	The adendement has little chanvce of beoming law	3415903	1472005533793	1472005533879	t	84
6664	71824	The amendment has little chance of becoming law.	The adendement has little chanvce of beoming law	3415905	1472005534259	1472005534362	l	76
6664	71824	The amendment has little chance of becoming law.	The adendement has little chanvce of beoming law	3415908	1472005534645	1472005534758	e	69
6664	71824	The amendment has little chance of becoming law.	The adendement has little chanvce of beoming law	3415972	1472005534815	1472005534900	 	32
6664	71824	The amendment has little chance of becoming law.	The adendement has little chanvce of beoming law	3415977	1472005535211	1472005535286	c	67
6664	71824	The amendment has little chance of becoming law.	The adendement has little chanvce of beoming law	3415983	1472005535433	1472005535549	h	72
6664	71824	The amendment has little chance of becoming law.	The adendement has little chanvce of beoming law	3415988	1472005535634	1472005535804	a	65
6664	71824	The amendment has little chance of becoming law.	The adendement has little chanvce of beoming law	3415993	1472005536092	1472005536193	n	78
6664	71824	The amendment has little chance of becoming law.	The adendement has little chanvce of beoming law	3416156	1472005536357	1472005536458	v	86
6664	71824	The amendment has little chance of becoming law.	The adendement has little chanvce of beoming law	3416160	1472005537612	1472005537745	c	67
6664	71824	The amendment has little chance of becoming law.	The adendement has little chanvce of beoming law	3416165	1472005537963	1472005538079	e	69
6664	71824	The amendment has little chance of becoming law.	The adendement has little chanvce of beoming law	3416170	1472005538369	1472005538501	 	32
6664	71824	The amendment has little chance of becoming law.	The adendement has little chanvce of beoming law	3416173	1472005539397	1472005539519	o	79
6664	71824	The amendment has little chance of becoming law.	The adendement has little chanvce of beoming law	3416300	1472005540244	1472005540324	f	70
6664	71824	The amendment has little chance of becoming law.	The adendement has little chanvce of beoming law	3416303	1472005540498	1472005540612	 	32
6664	71824	The amendment has little chance of becoming law.	The adendement has little chanvce of beoming law	3416307	1472005540731	1472005540825	b	66
6664	71824	The amendment has little chance of becoming law.	The adendement has little chanvce of beoming law	3416311	1472005541075	1472005541159	e	69
6664	71824	The amendment has little chance of becoming law.	The adendement has little chanvce of beoming law	3416315	1472005541815	1472005541900	o	79
6664	71824	The amendment has little chance of becoming law.	The adendement has little chanvce of beoming law	3416368	1472005542072	1472005542174	m	77
6664	71824	The amendment has little chance of becoming law.	The adendement has little chanvce of beoming law	3416369	1472005542342	1472005542436	i	73
6664	71824	The amendment has little chance of becoming law.	The adendement has little chanvce of beoming law	3416370	1472005542598	1472005542696	n	78
6664	71824	The amendment has little chance of becoming law.	The adendement has little chanvce of beoming law	3416371	1472005542860	1472005542940	g	71
6664	71824	The amendment has little chance of becoming law.	The adendement has little chanvce of beoming law	3416372	1472005543126	1472005543210	 	32
6664	71824	The amendment has little chance of becoming law.	The adendement has little chanvce of beoming law	3416527	1472005544420	1472005544521	l	76
6664	71824	The amendment has little chance of becoming law.	The adendement has little chanvce of beoming law	3416529	1472005544755	1472005544927	a	65
6664	71824	The amendment has little chance of becoming law.	The adendement has little chanvce of beoming law	3416531	1472005545682	1472005545803	w	87
6664	71860	The opposition had plans to hold demonstrations on Monday afternoon.	The opposition had plans to hold demonstrations on Monday afternoon.	3416865	1472005549062	1472005549214	CAPS_LOCK	20
6664	71860	The opposition had plans to hold demonstrations on Monday afternoon.	The opposition had plans to hold demonstrations on Monday afternoon.	3416870	1472005549347	1472005549488	CAPS_LOCK	20
6664	71860	The opposition had plans to hold demonstrations on Monday afternoon.	The opposition had plans to hold demonstrations on Monday afternoon.	3416877	1472005549958	1472005550054	t	84
6664	71860	The opposition had plans to hold demonstrations on Monday afternoon.	The opposition had plans to hold demonstrations on Monday afternoon.	3416880	1472005550211	1472005550315	h	72
6664	71860	The opposition had plans to hold demonstrations on Monday afternoon.	The opposition had plans to hold demonstrations on Monday afternoon.	3416883	1472005550383	1472005550549	CAPS_LOCK	20
6664	71860	The opposition had plans to hold demonstrations on Monday afternoon.	The opposition had plans to hold demonstrations on Monday afternoon.	3416885	1472005550954	1472005551060	BKSP	8
6664	71860	The opposition had plans to hold demonstrations on Monday afternoon.	The opposition had plans to hold demonstrations on Monday afternoon.	3416889	1472005551157	1472005551278	BKSP	8
6664	71860	The opposition had plans to hold demonstrations on Monday afternoon.	The opposition had plans to hold demonstrations on Monday afternoon.	3416892	1472005551578	1472005551764	CAPS_LOCK	20
6664	71860	The opposition had plans to hold demonstrations on Monday afternoon.	The opposition had plans to hold demonstrations on Monday afternoon.	3416897	1472005552103	1472005552206	t	84
6664	71860	The opposition had plans to hold demonstrations on Monday afternoon.	The opposition had plans to hold demonstrations on Monday afternoon.	3416901	1472005553035	1472005553166	BKSP	8
6664	71860	The opposition had plans to hold demonstrations on Monday afternoon.	The opposition had plans to hold demonstrations on Monday afternoon.	3416905	1472005553573	1472005553688	t	84
6664	71860	The opposition had plans to hold demonstrations on Monday afternoon.	The opposition had plans to hold demonstrations on Monday afternoon.	3416910	1472005553890	1472005554030	h	72
6664	71860	The opposition had plans to hold demonstrations on Monday afternoon.	The opposition had plans to hold demonstrations on Monday afternoon.	3417182	1472005554571	1472005554672	BKSP	8
6664	71860	The opposition had plans to hold demonstrations on Monday afternoon.	The opposition had plans to hold demonstrations on Monday afternoon.	3417186	1472005554759	1472005554859	BKSP	8
6664	71860	The opposition had plans to hold demonstrations on Monday afternoon.	The opposition had plans to hold demonstrations on Monday afternoon.	3417192	1472005555008	1472005555210	CAPS_LOCK	20
6664	71860	The opposition had plans to hold demonstrations on Monday afternoon.	The opposition had plans to hold demonstrations on Monday afternoon.	3417196	1472005555417	1472005555518	T	84
6664	71860	The opposition had plans to hold demonstrations on Monday afternoon.	The opposition had plans to hold demonstrations on Monday afternoon.	3417198	1472005555772	1472005555934	CAPS_LOCK	20
6664	71860	The opposition had plans to hold demonstrations on Monday afternoon.	The opposition had plans to hold demonstrations on Monday afternoon.	3417202	1472005556769	1472005556871	h	72
6664	71860	The opposition had plans to hold demonstrations on Monday afternoon.	The opposition had plans to hold demonstrations on Monday afternoon.	3417205	1472005557017	1472005557188	e	69
6664	71860	The opposition had plans to hold demonstrations on Monday afternoon.	The opposition had plans to hold demonstrations on Monday afternoon.	3417209	1472005557175	1472005557292	 	32
6664	71860	The opposition had plans to hold demonstrations on Monday afternoon.	The opposition had plans to hold demonstrations on Monday afternoon.	3417213	1472005558149	1472005558249	o	79
6664	71860	The opposition had plans to hold demonstrations on Monday afternoon.	The opposition had plans to hold demonstrations on Monday afternoon.	3417296	1472005558391	1472005558492	p	80
6664	71860	The opposition had plans to hold demonstrations on Monday afternoon.	The opposition had plans to hold demonstrations on Monday afternoon.	3417298	1472005558555	1472005558653	p	80
6664	71860	The opposition had plans to hold demonstrations on Monday afternoon.	The opposition had plans to hold demonstrations on Monday afternoon.	3417300	1472005558796	1472005558932	o	79
6664	71860	The opposition had plans to hold demonstrations on Monday afternoon.	The opposition had plans to hold demonstrations on Monday afternoon.	3417302	1472005559334	1472005559483	s	83
6664	71860	The opposition had plans to hold demonstrations on Monday afternoon.	The opposition had plans to hold demonstrations on Monday afternoon.	3417303	1472005559873	1472005559994	i	73
6664	71860	The opposition had plans to hold demonstrations on Monday afternoon.	The opposition had plans to hold demonstrations on Monday afternoon.	3417374	1472005560214	1472005560275	t	84
6664	71860	The opposition had plans to hold demonstrations on Monday afternoon.	The opposition had plans to hold demonstrations on Monday afternoon.	3417377	1472005560511	1472005560594	i	73
6664	71860	The opposition had plans to hold demonstrations on Monday afternoon.	The opposition had plans to hold demonstrations on Monday afternoon.	3417381	1472005560678	1472005560763	o	79
6664	71860	The opposition had plans to hold demonstrations on Monday afternoon.	The opposition had plans to hold demonstrations on Monday afternoon.	3417385	1472005560965	1472005561051	n	78
6664	71860	The opposition had plans to hold demonstrations on Monday afternoon.	The opposition had plans to hold demonstrations on Monday afternoon.	3417388	1472005561168	1472005561319	 	32
6664	71860	The opposition had plans to hold demonstrations on Monday afternoon.	The opposition had plans to hold demonstrations on Monday afternoon.	3417443	1472005561902	1472005562022	h	72
6664	71860	The opposition had plans to hold demonstrations on Monday afternoon.	The opposition had plans to hold demonstrations on Monday afternoon.	3417446	1472005562105	1472005562260	a	65
6664	71860	The opposition had plans to hold demonstrations on Monday afternoon.	The opposition had plans to hold demonstrations on Monday afternoon.	3417448	1472005562276	1472005562362	d	68
6664	71860	The opposition had plans to hold demonstrations on Monday afternoon.	The opposition had plans to hold demonstrations on Monday afternoon.	3417450	1472005562596	1472005562781	 	32
6664	71860	The opposition had plans to hold demonstrations on Monday afternoon.	The opposition had plans to hold demonstrations on Monday afternoon.	3417452	1472005563259	1472005563343	p	80
6664	71860	The opposition had plans to hold demonstrations on Monday afternoon.	The opposition had plans to hold demonstrations on Monday afternoon.	3417501	1472005563444	1472005563544	l	76
6664	71860	The opposition had plans to hold demonstrations on Monday afternoon.	The opposition had plans to hold demonstrations on Monday afternoon.	3417504	1472005563607	1472005563746	a	65
6664	71860	The opposition had plans to hold demonstrations on Monday afternoon.	The opposition had plans to hold demonstrations on Monday afternoon.	3417509	1472005563880	1472005563996	n	78
6664	71860	The opposition had plans to hold demonstrations on Monday afternoon.	The opposition had plans to hold demonstrations on Monday afternoon.	3417511	1472005564253	1472005564356	s	83
6664	71860	The opposition had plans to hold demonstrations on Monday afternoon.	The opposition had plans to hold demonstrations on Monday afternoon.	3417514	1472005564559	1472005564662	 	32
6664	71860	The opposition had plans to hold demonstrations on Monday afternoon.	The opposition had plans to hold demonstrations on Monday afternoon.	3417567	1472005565286	1472005565369	t	84
6664	71860	The opposition had plans to hold demonstrations on Monday afternoon.	The opposition had plans to hold demonstrations on Monday afternoon.	3417569	1472005565669	1472005565769	o	79
6664	71860	The opposition had plans to hold demonstrations on Monday afternoon.	The opposition had plans to hold demonstrations on Monday afternoon.	3417571	1472005565950	1472005566052	 	32
6664	71860	The opposition had plans to hold demonstrations on Monday afternoon.	The opposition had plans to hold demonstrations on Monday afternoon.	3417573	1472005566250	1472005566342	h	72
6664	71860	The opposition had plans to hold demonstrations on Monday afternoon.	The opposition had plans to hold demonstrations on Monday afternoon.	3417576	1472005566543	1472005566644	o	79
6664	71860	The opposition had plans to hold demonstrations on Monday afternoon.	The opposition had plans to hold demonstrations on Monday afternoon.	3417667	1472005566761	1472005566883	l	76
6664	71860	The opposition had plans to hold demonstrations on Monday afternoon.	The opposition had plans to hold demonstrations on Monday afternoon.	3417670	1472005567342	1472005567439	d	68
6664	71860	The opposition had plans to hold demonstrations on Monday afternoon.	The opposition had plans to hold demonstrations on Monday afternoon.	3417674	1472005567759	1472005567879	 	32
6664	71860	The opposition had plans to hold demonstrations on Monday afternoon.	The opposition had plans to hold demonstrations on Monday afternoon.	3417678	1472005568365	1472005568451	d	68
6664	71860	The opposition had plans to hold demonstrations on Monday afternoon.	The opposition had plans to hold demonstrations on Monday afternoon.	3417681	1472005568550	1472005568650	e	69
6664	71860	The opposition had plans to hold demonstrations on Monday afternoon.	The opposition had plans to hold demonstrations on Monday afternoon.	3417765	1472005569007	1472005569107	m	77
6664	71860	The opposition had plans to hold demonstrations on Monday afternoon.	The opposition had plans to hold demonstrations on Monday afternoon.	3417768	1472005569241	1472005569343	o	79
6664	71860	The opposition had plans to hold demonstrations on Monday afternoon.	The opposition had plans to hold demonstrations on Monday afternoon.	3417772	1472005569513	1472005569632	n	78
6664	71860	The opposition had plans to hold demonstrations on Monday afternoon.	The opposition had plans to hold demonstrations on Monday afternoon.	3417777	1472005569849	1472005569934	s	83
6664	71860	The opposition had plans to hold demonstrations on Monday afternoon.	The opposition had plans to hold demonstrations on Monday afternoon.	3417781	1472005570137	1472005570224	t	84
6664	71860	The opposition had plans to hold demonstrations on Monday afternoon.	The opposition had plans to hold demonstrations on Monday afternoon.	3417840	1472005570356	1472005570442	r	82
6664	71860	The opposition had plans to hold demonstrations on Monday afternoon.	The opposition had plans to hold demonstrations on Monday afternoon.	3417844	1472005570558	1472005570698	a	65
6664	71860	The opposition had plans to hold demonstrations on Monday afternoon.	The opposition had plans to hold demonstrations on Monday afternoon.	3417848	1472005570808	1472005570896	t	84
6664	71860	The opposition had plans to hold demonstrations on Monday afternoon.	The opposition had plans to hold demonstrations on Monday afternoon.	3417852	1472005571167	1472005571254	i	73
6664	71860	The opposition had plans to hold demonstrations on Monday afternoon.	The opposition had plans to hold demonstrations on Monday afternoon.	3417856	1472005571316	1472005571431	o	79
6664	71860	The opposition had plans to hold demonstrations on Monday afternoon.	The opposition had plans to hold demonstrations on Monday afternoon.	3417983	1472005571586	1472005571689	n	78
6664	71860	The opposition had plans to hold demonstrations on Monday afternoon.	The opposition had plans to hold demonstrations on Monday afternoon.	3417988	1472005572048	1472005572166	s	83
6664	71860	The opposition had plans to hold demonstrations on Monday afternoon.	The opposition had plans to hold demonstrations on Monday afternoon.	3417993	1472005572717	1472005572837	 	32
6664	71860	The opposition had plans to hold demonstrations on Monday afternoon.	The opposition had plans to hold demonstrations on Monday afternoon.	3418000	1472005573527	1472005573624	o	79
6664	71860	The opposition had plans to hold demonstrations on Monday afternoon.	The opposition had plans to hold demonstrations on Monday afternoon.	3418003	1472005573796	1472005573882	n	78
6664	71860	The opposition had plans to hold demonstrations on Monday afternoon.	The opposition had plans to hold demonstrations on Monday afternoon.	3418099	1472005573998	1472005574116	 	32
6664	71860	The opposition had plans to hold demonstrations on Monday afternoon.	The opposition had plans to hold demonstrations on Monday afternoon.	3418102	1472005574270	1472005574473	CAPS_LOCK	20
6664	71860	The opposition had plans to hold demonstrations on Monday afternoon.	The opposition had plans to hold demonstrations on Monday afternoon.	3418108	1472005574585	1472005574690	M	77
6664	71860	The opposition had plans to hold demonstrations on Monday afternoon.	The opposition had plans to hold demonstrations on Monday afternoon.	3418111	1472005574737	1472005574896	CAPS_LOCK	20
6664	71860	The opposition had plans to hold demonstrations on Monday afternoon.	The opposition had plans to hold demonstrations on Monday afternoon.	3418112	1472005575184	1472005575286	o	79
6664	71860	The opposition had plans to hold demonstrations on Monday afternoon.	The opposition had plans to hold demonstrations on Monday afternoon.	3418114	1472005575466	1472005575588	n	78
6664	71860	The opposition had plans to hold demonstrations on Monday afternoon.	The opposition had plans to hold demonstrations on Monday afternoon.	3418115	1472005575893	1472005575995	d	68
6664	71860	The opposition had plans to hold demonstrations on Monday afternoon.	The opposition had plans to hold demonstrations on Monday afternoon.	3418243	1472005576011	1472005576142	a	65
6664	71860	The opposition had plans to hold demonstrations on Monday afternoon.	The opposition had plans to hold demonstrations on Monday afternoon.	3418248	1472005576377	1472005576459	y	89
6664	71860	The opposition had plans to hold demonstrations on Monday afternoon.	The opposition had plans to hold demonstrations on Monday afternoon.	3418252	1472005576848	1472005576981	 	32
6664	71860	The opposition had plans to hold demonstrations on Monday afternoon.	The opposition had plans to hold demonstrations on Monday afternoon.	3418256	1472005578322	1472005578486	a	65
6664	71860	The opposition had plans to hold demonstrations on Monday afternoon.	The opposition had plans to hold demonstrations on Monday afternoon.	3418259	1472005578758	1472005578859	f	70
6664	71860	The opposition had plans to hold demonstrations on Monday afternoon.	The opposition had plans to hold demonstrations on Monday afternoon.	3418309	1472005579090	1472005579179	t	84
6664	71860	The opposition had plans to hold demonstrations on Monday afternoon.	The opposition had plans to hold demonstrations on Monday afternoon.	3418312	1472005579333	1472005579406	e	69
6664	71860	The opposition had plans to hold demonstrations on Monday afternoon.	The opposition had plans to hold demonstrations on Monday afternoon.	3418315	1472005579483	1472005579569	r	82
6664	71860	The opposition had plans to hold demonstrations on Monday afternoon.	The opposition had plans to hold demonstrations on Monday afternoon.	3418318	1472005579974	1472005580075	n	78
6664	71860	The opposition had plans to hold demonstrations on Monday afternoon.	The opposition had plans to hold demonstrations on Monday afternoon.	3418321	1472005580293	1472005580377	o	79
6664	71860	The opposition had plans to hold demonstrations on Monday afternoon.	The opposition had plans to hold demonstrations on Monday afternoon.	3418408	1472005580446	1472005580563	o	79
6664	71860	The opposition had plans to hold demonstrations on Monday afternoon.	The opposition had plans to hold demonstrations on Monday afternoon.	3418412	1472005580742	1472005580829	n	78
6664	71860	The opposition had plans to hold demonstrations on Monday afternoon.	The opposition had plans to hold demonstrations on Monday afternoon.	3418415	1472005582165	1472005582310	.	190
6664	71900	Your voice cheered me up.	Your voice cheered me up.	3418632	1472005584585	1472005584792	CAPS_LOCK	20
6664	71900	Your voice cheered me up.	Your voice cheered me up.	3418637	1472005584839	1472005584949	Y	89
6664	71900	Your voice cheered me up.	Your voice cheered me up.	3418639	1472005584982	1472005585103	CAPS_LOCK	20
6664	71900	Your voice cheered me up.	Your voice cheered me up.	3418643	1472005585468	1472005585595	o	79
6664	71900	Your voice cheered me up.	Your voice cheered me up.	3418646	1472005586087	1472005586208	u	85
6664	71900	Your voice cheered me up.	Your voice cheered me up.	3418648	1472005586645	1472005586745	r	82
6664	71900	Your voice cheered me up.	Your voice cheered me up.	3418650	1472005587034	1472005587193	 	32
6664	71900	Your voice cheered me up.	Your voice cheered me up.	3418752	1472005587704	1472005587829	v	86
6664	71900	Your voice cheered me up.	Your voice cheered me up.	3418758	1472005588164	1472005588233	o	79
6664	71900	Your voice cheered me up.	Your voice cheered me up.	3418765	1472005588352	1472005588451	i	73
6664	71900	Your voice cheered me up.	Your voice cheered me up.	3418772	1472005588757	1472005588858	c	67
6664	71900	Your voice cheered me up.	Your voice cheered me up.	3418780	1472005588991	1472005589108	e	69
6664	71900	Your voice cheered me up.	Your voice cheered me up.	3418897	1472005589396	1472005589550	 	32
6664	71900	Your voice cheered me up.	Your voice cheered me up.	3418901	1472005590192	1472005590293	c	67
6664	71900	Your voice cheered me up.	Your voice cheered me up.	3418904	1472005590540	1472005590664	h	72
6664	71900	Your voice cheered me up.	Your voice cheered me up.	3418905	1472005590967	1472005591045	e	69
6664	71900	Your voice cheered me up.	Your voice cheered me up.	3418907	1472005591118	1472005591205	e	69
6664	71900	Your voice cheered me up.	Your voice cheered me up.	3418990	1472005591337	1472005591440	r	82
6664	71900	Your voice cheered me up.	Your voice cheered me up.	3418994	1472005591557	1472005591666	e	69
6664	71900	Your voice cheered me up.	Your voice cheered me up.	3418997	1472005592674	1472005592759	d	68
6664	71900	Your voice cheered me up.	Your voice cheered me up.	3419001	1472005592958	1472005593060	 	32
6664	71900	Your voice cheered me up.	Your voice cheered me up.	3419005	1472005593279	1472005593403	m	77
6664	71900	Your voice cheered me up.	Your voice cheered me up.	3419085	1472005593684	1472005593796	e	69
6664	71900	Your voice cheered me up.	Your voice cheered me up.	3419089	1472005594012	1472005594130	 	32
6664	71900	Your voice cheered me up.	Your voice cheered me up.	3419094	1472005594481	1472005594565	u	85
6664	71900	Your voice cheered me up.	Your voice cheered me up.	3419099	1472005594870	1472005594956	p	80
6664	71900	Your voice cheered me up.	Your voice cheered me up.	3419105	1472005595392	1472005595483	.	190
6664	71909	Do you have that information yet?.	Do you have that information yet?	3419325	1472005597914	1472005598114	CAPS_LOCK	20
6664	71909	Do you have that information yet?.	Do you have that information yet?	3419326	1472005598979	1472005599080	D	68
6664	71909	Do you have that information yet?.	Do you have that information yet?	3419327	1472005599054	1472005599186	CAPS_LOCK	20
6664	71909	Do you have that information yet?.	Do you have that information yet?	3419329	1472005599447	1472005599554	o	79
6664	71909	Do you have that information yet?.	Do you have that information yet?	3419332	1472005599891	1472005599992	 	32
6664	71909	Do you have that information yet?.	Do you have that information yet?	3419336	1472005600579	1472005600678	y	89
6664	71909	Do you have that information yet?.	Do you have that information yet?	3419341	1472005600953	1472005601039	o	79
6664	71909	Do you have that information yet?.	Do you have that information yet?	3419405	1472005601225	1472005601309	u	85
6664	71909	Do you have that information yet?.	Do you have that information yet?	3419408	1472005601489	1472005601616	 	32
6664	71909	Do you have that information yet?.	Do you have that information yet?	3419411	1472005602103	1472005602220	h	72
6664	71909	Do you have that information yet?.	Do you have that information yet?	3419414	1472005602443	1472005602590	a	65
6664	71909	Do you have that information yet?.	Do you have that information yet?	3419416	1472005602627	1472005602761	v	86
6664	71909	Do you have that information yet?.	Do you have that information yet?	3419508	1472005602949	1472005603049	e	69
6664	71909	Do you have that information yet?.	Do you have that information yet?	3419511	1472005603285	1472005603416	 	32
6664	71909	Do you have that information yet?.	Do you have that information yet?	3419515	1472005604150	1472005604231	t	84
6664	71909	Do you have that information yet?.	Do you have that information yet?	3419519	1472005604349	1472005604458	h	72
6664	71909	Do you have that information yet?.	Do you have that information yet?	3419604	1472005604432	1472005604617	a	65
6664	71909	Do you have that information yet?.	Do you have that information yet?	3419606	1472005604649	1472005604719	t	84
6664	71909	Do you have that information yet?.	Do you have that information yet?	3419609	1472005604895	1472005604992	 	32
6664	71909	Do you have that information yet?.	Do you have that information yet?	3419612	1472005605215	1472005605303	i	73
6664	71909	Do you have that information yet?.	Do you have that information yet?	3419613	1472005605443	1472005605538	n	78
6664	71909	Do you have that information yet?.	Do you have that information yet?	3419615	1472005606340	1472005606425	f	70
6664	71909	Do you have that information yet?.	Do you have that information yet?	3419667	1472005606598	1472005606700	o	79
6664	71909	Do you have that information yet?.	Do you have that information yet?	3419668	1472005606963	1472005607082	r	82
6664	71909	Do you have that information yet?.	Do you have that information yet?	3419669	1472005607183	1472005607287	m	77
6664	71909	Do you have that information yet?.	Do you have that information yet?	3419670	1472005607494	1472005607643	a	65
6664	71909	Do you have that information yet?.	Do you have that information yet?	3419671	1472005607712	1472005607795	t	84
6664	71909	Do you have that information yet?.	Do you have that information yet?	3419757	1472005607998	1472005608090	i	73
6664	71909	Do you have that information yet?.	Do you have that information yet?	3419759	1472005608178	1472005608268	o	79
6664	71909	Do you have that information yet?.	Do you have that information yet?	3419763	1472005608420	1472005608504	n	78
6664	71909	Do you have that information yet?.	Do you have that information yet?	3419768	1472005608604	1472005608686	 	32
6664	71909	Do you have that information yet?.	Do you have that information yet?	3419773	1472005609865	1472005609952	y	89
6664	71909	Do you have that information yet?.	Do you have that information yet?	3419867	1472005610341	1472005610423	e	69
6664	71909	Do you have that information yet?.	Do you have that information yet?	3419869	1472005610763	1472005610863	t	84
6664	71909	Do you have that information yet?.	Do you have that information yet?	3419873	1472005611368	1472005612314	SHIFT	16
6664	71909	Do you have that information yet?.	Do you have that information yet?	3419871	1472005612182	1472005612283	?	191
6664	71929	Have a great day!	Have a great day!	3420086	1472005615879	1472005616054	CAPS_LOCK	20
6664	71929	Have a great day!	Have a great day!	3420088	1472005616689	1472005616775	H	72
6664	71929	Have a great day!	Have a great day!	3420092	1472005616828	1472005616979	CAPS_LOCK	20
6664	71929	Have a great day!	Have a great day!	3420096	1472005617249	1472005617369	a	65
6664	71929	Have a great day!	Have a great day!	3420100	1472005617540	1472005617657	v	86
6664	71929	Have a great day!	Have a great day!	3420103	1472005617891	1472005617967	e	69
6664	71929	Have a great day!	Have a great day!	3420105	1472005618382	1472005618498	 	32
6664	71929	Have a great day!	Have a great day!	3420149	1472005618656	1472005618843	a	65
6664	71929	Have a great day!	Have a great day!	3420151	1472005618926	1472005619045	 	32
6664	71929	Have a great day!	Have a great day!	3420154	1472005619569	1472005619686	g	71
6664	71929	Have a great day!	Have a great day!	3420158	1472005619834	1472005619924	r	82
6664	71929	Have a great day!	Have a great day!	3420165	1472005620363	1472005620447	e	69
6664	71929	Have a great day!	Have a great day!	3420205	1472005620511	1472005620660	a	65
6664	71929	Have a great day!	Have a great day!	3420207	1472005620800	1472005620900	t	84
6664	71929	Have a great day!	Have a great day!	3420209	1472005621134	1472005621246	 	32
6664	71929	Have a great day!	Have a great day!	3420212	1472005621524	1472005621628	d	68
6664	71929	Have a great day!	Have a great day!	3420215	1472005622189	1472005622320	a	65
6664	71929	Have a great day!	Have a great day!	3420474	1472005622588	1472005622688	y	89
6664	71929	Have a great day!	Have a great day!	3420478	1472005628443	1472005628704	SHIFT	16
6664	71929	Have a great day!	Have a great day!	3420482	1472005628639	1472005628735	!	49
6664	71942	These factors dictate clear limits to the concept of safe areas.	These factors dictate clear limits to the concept of safe areas.	3420692	1472005631563	1472005631781	CAPS_LOCK	20
6664	71942	These factors dictate clear limits to the concept of safe areas.	These factors dictate clear limits to the concept of safe areas.	3420694	1472005632203	1472005632303	T	84
6664	71942	These factors dictate clear limits to the concept of safe areas.	These factors dictate clear limits to the concept of safe areas.	3420696	1472005632385	1472005632545	CAPS_LOCK	20
6664	71942	These factors dictate clear limits to the concept of safe areas.	These factors dictate clear limits to the concept of safe areas.	3420697	1472005632592	1472005632706	h	72
6664	71942	These factors dictate clear limits to the concept of safe areas.	These factors dictate clear limits to the concept of safe areas.	3420699	1472005633115	1472005633233	s	83
6664	71942	These factors dictate clear limits to the concept of safe areas.	These factors dictate clear limits to the concept of safe areas.	3420701	1472005633379	1472005633474	e	69
6664	71942	These factors dictate clear limits to the concept of safe areas.	These factors dictate clear limits to the concept of safe areas.	3420703	1472005634300	1472005634400	BKSP	8
6664	71942	These factors dictate clear limits to the concept of safe areas.	These factors dictate clear limits to the concept of safe areas.	3420706	1472005634454	1472005634555	BKSP	8
6664	71942	These factors dictate clear limits to the concept of safe areas.	These factors dictate clear limits to the concept of safe areas.	3420709	1472005635197	1472005635281	e	69
6664	71942	These factors dictate clear limits to the concept of safe areas.	These factors dictate clear limits to the concept of safe areas.	3420764	1472005635399	1472005635484	s	83
6664	71942	These factors dictate clear limits to the concept of safe areas.	These factors dictate clear limits to the concept of safe areas.	3420766	1472005635571	1472005635671	e	69
6664	71942	These factors dictate clear limits to the concept of safe areas.	These factors dictate clear limits to the concept of safe areas.	3420768	1472005635938	1472005636039	 	32
6664	71942	These factors dictate clear limits to the concept of safe areas.	These factors dictate clear limits to the concept of safe areas.	3420772	1472005636952	1472005637029	f	70
6664	71942	These factors dictate clear limits to the concept of safe areas.	These factors dictate clear limits to the concept of safe areas.	3420776	1472005637532	1472005637646	a	65
6664	71942	These factors dictate clear limits to the concept of safe areas.	These factors dictate clear limits to the concept of safe areas.	3420890	1472005637662	1472005637751	c	67
6664	71942	These factors dictate clear limits to the concept of safe areas.	These factors dictate clear limits to the concept of safe areas.	3420894	1472005638205	1472005638285	t	84
6664	71942	These factors dictate clear limits to the concept of safe areas.	These factors dictate clear limits to the concept of safe areas.	3420898	1472005638589	1472005638709	i	73
6664	71942	These factors dictate clear limits to the concept of safe areas.	These factors dictate clear limits to the concept of safe areas.	3420904	1472005639220	1472005639313	BKSP	8
6664	71942	These factors dictate clear limits to the concept of safe areas.	These factors dictate clear limits to the concept of safe areas.	3420909	1472005639525	1472005639625	o	79
6664	71942	These factors dictate clear limits to the concept of safe areas.	These factors dictate clear limits to the concept of safe areas.	3420914	1472005639925	1472005639955	r	82
6664	71942	These factors dictate clear limits to the concept of safe areas.	These factors dictate clear limits to the concept of safe areas.	3421053	1472005640148	1472005640265	s	83
6664	71942	These factors dictate clear limits to the concept of safe areas.	These factors dictate clear limits to the concept of safe areas.	3421054	1472005640490	1472005640639	 	32
6664	71942	These factors dictate clear limits to the concept of safe areas.	These factors dictate clear limits to the concept of safe areas.	3421056	1472005641493	1472005641595	d	68
6664	71942	These factors dictate clear limits to the concept of safe areas.	These factors dictate clear limits to the concept of safe areas.	3421058	1472005641902	1472005642034	i	73
6664	71942	These factors dictate clear limits to the concept of safe areas.	These factors dictate clear limits to the concept of safe areas.	3421061	1472005642767	1472005642859	c	67
6664	71942	These factors dictate clear limits to the concept of safe areas.	These factors dictate clear limits to the concept of safe areas.	3421137	1472005643088	1472005643172	t	84
6664	71942	These factors dictate clear limits to the concept of safe areas.	These factors dictate clear limits to the concept of safe areas.	3421139	1472005643235	1472005643356	a	65
6664	71942	These factors dictate clear limits to the concept of safe areas.	These factors dictate clear limits to the concept of safe areas.	3421142	1472005643392	1472005643482	t	84
6664	71942	These factors dictate clear limits to the concept of safe areas.	These factors dictate clear limits to the concept of safe areas.	3421145	1472005643696	1472005643781	e	69
6664	71942	These factors dictate clear limits to the concept of safe areas.	These factors dictate clear limits to the concept of safe areas.	3421148	1472005644117	1472005644249	 	32
6664	71942	These factors dictate clear limits to the concept of safe areas.	These factors dictate clear limits to the concept of safe areas.	3421212	1472005644655	1472005644732	c	67
6664	71942	These factors dictate clear limits to the concept of safe areas.	These factors dictate clear limits to the concept of safe areas.	3421217	1472005645046	1472005645147	l	76
6664	71942	These factors dictate clear limits to the concept of safe areas.	These factors dictate clear limits to the concept of safe areas.	3421219	1472005645435	1472005645552	e	69
6664	71942	These factors dictate clear limits to the concept of safe areas.	These factors dictate clear limits to the concept of safe areas.	3421222	1472005645604	1472005645725	a	65
6664	71942	These factors dictate clear limits to the concept of safe areas.	These factors dictate clear limits to the concept of safe areas.	3421305	1472005645708	1472005645808	r	82
6664	71942	These factors dictate clear limits to the concept of safe areas.	These factors dictate clear limits to the concept of safe areas.	3421308	1472005646091	1472005646214	 	32
6664	71942	These factors dictate clear limits to the concept of safe areas.	These factors dictate clear limits to the concept of safe areas.	3421312	1472005646678	1472005646777	l	76
6664	71942	These factors dictate clear limits to the concept of safe areas.	These factors dictate clear limits to the concept of safe areas.	3421315	1472005646922	1472005647018	i	73
6664	71942	These factors dictate clear limits to the concept of safe areas.	These factors dictate clear limits to the concept of safe areas.	3421318	1472005647156	1472005647272	m	77
6664	71942	These factors dictate clear limits to the concept of safe areas.	These factors dictate clear limits to the concept of safe areas.	3421321	1472005647391	1472005647500	i	73
6664	71942	These factors dictate clear limits to the concept of safe areas.	These factors dictate clear limits to the concept of safe areas.	3421458	1472005647914	1472005648000	t	84
6664	71942	These factors dictate clear limits to the concept of safe areas.	These factors dictate clear limits to the concept of safe areas.	3421459	1472005648222	1472005648336	s	83
6664	71942	These factors dictate clear limits to the concept of safe areas.	These factors dictate clear limits to the concept of safe areas.	3421460	1472005648849	1472005648965	 	32
6664	71942	These factors dictate clear limits to the concept of safe areas.	These factors dictate clear limits to the concept of safe areas.	3421461	1472005649862	1472005649957	t	84
6664	71942	These factors dictate clear limits to the concept of safe areas.	These factors dictate clear limits to the concept of safe areas.	3421462	1472005650214	1472005650299	o	79
6664	71942	These factors dictate clear limits to the concept of safe areas.	These factors dictate clear limits to the concept of safe areas.	3421590	1472005650532	1472005650645	 	32
6664	71942	These factors dictate clear limits to the concept of safe areas.	These factors dictate clear limits to the concept of safe areas.	3421592	1472005652142	1472005652194	t	84
6664	71942	These factors dictate clear limits to the concept of safe areas.	These factors dictate clear limits to the concept of safe areas.	3421595	1472005652342	1472005652444	h	72
6664	71942	These factors dictate clear limits to the concept of safe areas.	These factors dictate clear limits to the concept of safe areas.	3421600	1472005652513	1472005652661	e	69
6664	71942	These factors dictate clear limits to the concept of safe areas.	These factors dictate clear limits to the concept of safe areas.	3421606	1472005652732	1472005652848	 	32
6664	71942	These factors dictate clear limits to the concept of safe areas.	These factors dictate clear limits to the concept of safe areas.	3421692	1472005653595	1472005653693	c	67
6664	71942	These factors dictate clear limits to the concept of safe areas.	These factors dictate clear limits to the concept of safe areas.	3421695	1472005653965	1472005654065	o	79
6664	71942	These factors dictate clear limits to the concept of safe areas.	These factors dictate clear limits to the concept of safe areas.	3421703	1472005654267	1472005654354	n	78
6664	71942	These factors dictate clear limits to the concept of safe areas.	These factors dictate clear limits to the concept of safe areas.	3421710	1472005654642	1472005654773	c	67
6664	71942	These factors dictate clear limits to the concept of safe areas.	These factors dictate clear limits to the concept of safe areas.	3421715	1472005654945	1472005655045	e	69
6664	71942	These factors dictate clear limits to the concept of safe areas.	These factors dictate clear limits to the concept of safe areas.	3421893	1472005655635	1472005655722	p	80
6664	71942	These factors dictate clear limits to the concept of safe areas.	These factors dictate clear limits to the concept of safe areas.	3421896	1472005656295	1472005656411	t	84
6664	71942	These factors dictate clear limits to the concept of safe areas.	These factors dictate clear limits to the concept of safe areas.	3421902	1472005656755	1472005656857	 	32
6664	71942	These factors dictate clear limits to the concept of safe areas.	These factors dictate clear limits to the concept of safe areas.	3421906	1472005657769	1472005657870	o	79
6664	71942	These factors dictate clear limits to the concept of safe areas.	These factors dictate clear limits to the concept of safe areas.	3421912	1472005658237	1472005658377	f	70
6664	71942	These factors dictate clear limits to the concept of safe areas.	These factors dictate clear limits to the concept of safe areas.	3422042	1472005658797	1472005658900	 	32
6664	71942	These factors dictate clear limits to the concept of safe areas.	These factors dictate clear limits to the concept of safe areas.	3422047	1472005659454	1472005659543	s	83
6664	71942	These factors dictate clear limits to the concept of safe areas.	These factors dictate clear limits to the concept of safe areas.	3422053	1472005659573	1472005659726	a	65
6664	71942	These factors dictate clear limits to the concept of safe areas.	These factors dictate clear limits to the concept of safe areas.	3422058	1472005660404	1472005660497	f	70
6664	71942	These factors dictate clear limits to the concept of safe areas.	These factors dictate clear limits to the concept of safe areas.	3422063	1472005660667	1472005660764	e	69
6664	71942	These factors dictate clear limits to the concept of safe areas.	These factors dictate clear limits to the concept of safe areas.	3422124	1472005661044	1472005661177	 	32
6664	71942	These factors dictate clear limits to the concept of safe areas.	These factors dictate clear limits to the concept of safe areas.	3422128	1472005661667	1472005661822	a	65
6664	71942	These factors dictate clear limits to the concept of safe areas.	These factors dictate clear limits to the concept of safe areas.	3422133	1472005661884	1472005661969	r	82
6664	71942	These factors dictate clear limits to the concept of safe areas.	These factors dictate clear limits to the concept of safe areas.	3422140	1472005662054	1472005662154	e	69
6664	71942	These factors dictate clear limits to the concept of safe areas.	These factors dictate clear limits to the concept of safe areas.	3422152	1472005662471	1472005662598	a	65
6664	71942	These factors dictate clear limits to the concept of safe areas.	These factors dictate clear limits to the concept of safe areas.	3422229	1472005662657	1472005662773	s	83
6664	71942	These factors dictate clear limits to the concept of safe areas.	These factors dictate clear limits to the concept of safe areas.	3422232	1472005663657	1472005663773	.	190
6664	71981	I will call you Monday morning to discuss.	I will call you Monday morning to discuss.	3422436	1472005666038	1472005666317	CAPS_LOCK	20
6664	71981	I will call you Monday morning to discuss.	I will call you Monday morning to discuss.	3422437	1472005666651	1472005666770	I	73
6664	71981	I will call you Monday morning to discuss.	I will call you Monday morning to discuss.	3422438	1472005666810	1472005666979	CAPS_LOCK	20
6664	71981	I will call you Monday morning to discuss.	I will call you Monday morning to discuss.	3422439	1472005667145	1472005667298	 	32
6664	71981	I will call you Monday morning to discuss.	I will call you Monday morning to discuss.	3422440	1472005667890	1472005667985	w	87
6664	71981	I will call you Monday morning to discuss.	I will call you Monday morning to discuss.	3422442	1472005668376	1472005668470	i	73
6664	71981	I will call you Monday morning to discuss.	I will call you Monday morning to discuss.	3422446	1472005668618	1472005668704	l	76
6664	71981	I will call you Monday morning to discuss.	I will call you Monday morning to discuss.	3422533	1472005668787	1472005668886	l	76
6664	71981	I will call you Monday morning to discuss.	I will call you Monday morning to discuss.	3422536	1472005669142	1472005669258	 	32
6664	71981	I will call you Monday morning to discuss.	I will call you Monday morning to discuss.	3422540	1472005669595	1472005669682	c	67
6664	71981	I will call you Monday morning to discuss.	I will call you Monday morning to discuss.	3422543	1472005669697	1472005669835	a	65
6664	71981	I will call you Monday morning to discuss.	I will call you Monday morning to discuss.	3422546	1472005669984	1472005670061	l	76
6664	71981	I will call you Monday morning to discuss.	I will call you Monday morning to discuss.	3422599	1472005670139	1472005670225	l	76
6664	71981	I will call you Monday morning to discuss.	I will call you Monday morning to discuss.	3422601	1472005670389	1472005670496	 	32
6664	71981	I will call you Monday morning to discuss.	I will call you Monday morning to discuss.	3422605	1472005670704	1472005670782	y	89
6664	71981	I will call you Monday morning to discuss.	I will call you Monday morning to discuss.	3422608	1472005670950	1472005671066	o	79
6664	71981	I will call you Monday morning to discuss.	I will call you Monday morning to discuss.	3422611	1472005671200	1472005671301	u	85
6664	71981	I will call you Monday morning to discuss.	I will call you Monday morning to discuss.	3422772	1472005671520	1472005671644	 	32
6664	71981	I will call you Monday morning to discuss.	I will call you Monday morning to discuss.	3422775	1472005671995	1472005672180	CAPS_LOCK	20
6664	71981	I will call you Monday morning to discuss.	I will call you Monday morning to discuss.	3422784	1472005672533	1472005672655	M	77
6664	71981	I will call you Monday morning to discuss.	I will call you Monday morning to discuss.	3422791	1472005672638	1472005672821	CAPS_LOCK	20
6664	71981	I will call you Monday morning to discuss.	I will call you Monday morning to discuss.	3422799	1472005673180	1472005673265	o	79
6664	71981	I will call you Monday morning to discuss.	I will call you Monday morning to discuss.	3422805	1472005673469	1472005673586	n	78
6664	71981	I will call you Monday morning to discuss.	I will call you Monday morning to discuss.	3422809	1472005673953	1472005674047	d	68
6664	71981	I will call you Monday morning to discuss.	I will call you Monday morning to discuss.	3422891	1472005674073	1472005674238	a	65
6664	71981	I will call you Monday morning to discuss.	I will call you Monday morning to discuss.	3422896	1472005674342	1472005674482	y	89
6664	71981	I will call you Monday morning to discuss.	I will call you Monday morning to discuss.	3422899	1472005674721	1472005674849	 	32
6664	71981	I will call you Monday morning to discuss.	I will call you Monday morning to discuss.	3422903	1472005675239	1472005675340	m	77
6664	71981	I will call you Monday morning to discuss.	I will call you Monday morning to discuss.	3422910	1472005675596	1472005675702	o	79
6664	71981	I will call you Monday morning to discuss.	I will call you Monday morning to discuss.	3423018	1472005676019	1472005676120	r	82
6664	71981	I will call you Monday morning to discuss.	I will call you Monday morning to discuss.	3423023	1472005676471	1472005676577	n	78
6664	71981	I will call you Monday morning to discuss.	I will call you Monday morning to discuss.	3423029	1472005676717	1472005676809	i	73
6664	71981	I will call you Monday morning to discuss.	I will call you Monday morning to discuss.	3423032	1472005676972	1472005677098	n	78
6664	71981	I will call you Monday morning to discuss.	I will call you Monday morning to discuss.	3423036	1472005677245	1472005677346	g	71
6664	71981	I will call you Monday morning to discuss.	I will call you Monday morning to discuss.	3423173	1472005677548	1472005677679	 	32
6664	71981	I will call you Monday morning to discuss.	I will call you Monday morning to discuss.	3423179	1472005678306	1472005678403	t	84
6664	71981	I will call you Monday morning to discuss.	I will call you Monday morning to discuss.	3423184	1472005678726	1472005678835	o	79
6664	71981	I will call you Monday morning to discuss.	I will call you Monday morning to discuss.	3423189	1472005679101	1472005679257	 	32
6664	71981	I will call you Monday morning to discuss.	I will call you Monday morning to discuss.	3423191	1472005679882	1472005679967	d	68
6664	71981	I will call you Monday morning to discuss.	I will call you Monday morning to discuss.	3423242	1472005680256	1472005680356	i	73
6664	71981	I will call you Monday morning to discuss.	I will call you Monday morning to discuss.	3423245	1472005680558	1472005680661	s	83
6664	71981	I will call you Monday morning to discuss.	I will call you Monday morning to discuss.	3423249	1472005680754	1472005680849	c	67
6664	71981	I will call you Monday morning to discuss.	I will call you Monday morning to discuss.	3423253	1472005681145	1472005681249	u	85
6664	71981	I will call you Monday morning to discuss.	I will call you Monday morning to discuss.	3423256	1472005681496	1472005681565	s	83
6664	71981	I will call you Monday morning to discuss.	I will call you Monday morning to discuss.	3423339	1472005681639	1472005681734	s	83
6664	71981	I will call you Monday morning to discuss.	I will call you Monday morning to discuss.	3423342	1472005682433	1472005682551	.	190
6664	72002	Much better than carrying a laptop.	Much better than carrying a laptop.	3423544	1472005684854	1472005685063	CAPS_LOCK	20
6664	72002	Much better than carrying a laptop.	Much better than carrying a laptop.	3423546	1472005685218	1472005685334	M	77
6664	72002	Much better than carrying a laptop.	Much better than carrying a laptop.	3423548	1472005685303	1472005685460	CAPS_LOCK	20
6664	72002	Much better than carrying a laptop.	Much better than carrying a laptop.	3423551	1472005685914	1472005686015	u	85
6664	72002	Much better than carrying a laptop.	Much better than carrying a laptop.	3423553	1472005686372	1472005686522	c	67
6664	72002	Much better than carrying a laptop.	Much better than carrying a laptop.	3423556	1472005686538	1472005686627	h	72
6664	72002	Much better than carrying a laptop.	Much better than carrying a laptop.	3423560	1472005686826	1472005686959	 	32
6664	72002	Much better than carrying a laptop.	Much better than carrying a laptop.	3423628	1472005687487	1472005687587	b	66
6664	72002	Much better than carrying a laptop.	Much better than carrying a laptop.	3423632	1472005687840	1472005687926	e	69
6664	72002	Much better than carrying a laptop.	Much better than carrying a laptop.	3423636	1472005688129	1472005688197	t	84
6664	72002	Much better than carrying a laptop.	Much better than carrying a laptop.	3423641	1472005688260	1472005688338	t	84
6664	72002	Much better than carrying a laptop.	Much better than carrying a laptop.	3423645	1472005688480	1472005688540	e	69
6664	72002	Much better than carrying a laptop.	Much better than carrying a laptop.	3423740	1472005688635	1472005688737	r	82
6664	72002	Much better than carrying a laptop.	Much better than carrying a laptop.	3423742	1472005688969	1472005689108	 	32
6664	72002	Much better than carrying a laptop.	Much better than carrying a laptop.	3423746	1472005689392	1472005689492	t	84
6664	72002	Much better than carrying a laptop.	Much better than carrying a laptop.	3423749	1472005689614	1472005689800	a	65
6664	72002	Much better than carrying a laptop.	Much better than carrying a laptop.	3423752	1472005691153	1472005691254	BKSP	8
6664	72002	Much better than carrying a laptop.	Much better than carrying a laptop.	3423758	1472005691558	1472005691644	h	72
6664	72002	Much better than carrying a laptop.	Much better than carrying a laptop.	3423821	1472005691703	1472005691873	a	65
6664	72002	Much better than carrying a laptop.	Much better than carrying a laptop.	3423826	1472005691835	1472005691920	n	78
6664	72002	Much better than carrying a laptop.	Much better than carrying a laptop.	3423830	1472005692044	1472005692149	 	32
6664	72002	Much better than carrying a laptop.	Much better than carrying a laptop.	3423833	1472005692858	1472005692941	c	67
6664	72002	Much better than carrying a laptop.	Much better than carrying a laptop.	3423836	1472005693008	1472005693162	a	65
6664	72002	Much better than carrying a laptop.	Much better than carrying a laptop.	3423900	1472005693669	1472005693727	r	82
6664	72002	Much better than carrying a laptop.	Much better than carrying a laptop.	3423904	1472005693784	1472005693886	r	82
6664	72002	Much better than carrying a laptop.	Much better than carrying a laptop.	3423909	1472005694006	1472005694091	y	89
6664	72002	Much better than carrying a laptop.	Much better than carrying a laptop.	3423913	1472005694241	1472005694333	i	73
6664	72002	Much better than carrying a laptop.	Much better than carrying a laptop.	3423916	1472005694514	1472005694615	n	78
6664	72002	Much better than carrying a laptop.	Much better than carrying a laptop.	3424015	1472005694948	1472005695041	g	71
6664	72002	Much better than carrying a laptop.	Much better than carrying a laptop.	3424017	1472005695187	1472005695288	 	32
6664	72002	Much better than carrying a laptop.	Much better than carrying a laptop.	3424021	1472005695815	1472005695947	a	65
6664	72002	Much better than carrying a laptop.	Much better than carrying a laptop.	3424023	1472005696017	1472005696118	 	32
6664	72002	Much better than carrying a laptop.	Much better than carrying a laptop.	3424026	1472005696556	1472005696640	l	76
6664	72002	Much better than carrying a laptop.	Much better than carrying a laptop.	3424094	1472005696681	1472005696827	a	65
6664	72002	Much better than carrying a laptop.	Much better than carrying a laptop.	3424099	1472005697089	1472005697180	p	80
6664	72002	Much better than carrying a laptop.	Much better than carrying a laptop.	3424104	1472005697585	1472005697680	t	84
6664	72002	Much better than carrying a laptop.	Much better than carrying a laptop.	3424109	1472005697928	1472005698003	o	79
6664	72002	Much better than carrying a laptop.	Much better than carrying a laptop.	3424112	1472005698091	1472005698185	p	80
6664	72002	Much better than carrying a laptop.	Much better than carrying a laptop.	3424130	1472005698467	1472005698552	.	190
6664	72016	I decided that I am going to stay here!	I descided that i m going to stay here.	3424359	1472005701067	1472005701165	i	73
6664	72016	I decided that I am going to stay here!	I descided that i m going to stay here.	3424360	1472005701779	1472005701897	BKSP	8
6664	72016	I decided that I am going to stay here!	I descided that i m going to stay here.	3424361	1472005701943	1472005702146	CAPS_LOCK	20
6664	72016	I decided that I am going to stay here!	I descided that i m going to stay here.	3424362	1472005702248	1472005702355	I	73
6664	72016	I decided that I am going to stay here!	I descided that i m going to stay here.	3424363	1472005702375	1472005702521	CAPS_LOCK	20
6664	72016	I decided that I am going to stay here!	I descided that i m going to stay here.	3424364	1472005702567	1472005702672	 	32
6664	72016	I decided that I am going to stay here!	I descided that i m going to stay here.	3424365	1472005703277	1472005703360	d	68
6664	72016	I decided that I am going to stay here!	I descided that i m going to stay here.	3424368	1472005703464	1472005703535	e	69
6664	72016	I decided that I am going to stay here!	I descided that i m going to stay here.	3424439	1472005703621	1472005703706	s	83
6664	72016	I decided that I am going to stay here!	I descided that i m going to stay here.	3424447	1472005704143	1472005704229	c	67
6664	72016	I decided that I am going to stay here!	I descided that i m going to stay here.	3424454	1472005704492	1472005704582	i	73
6664	72016	I decided that I am going to stay here!	I descided that i m going to stay here.	3424459	1472005704798	1472005704886	d	68
6664	72016	I decided that I am going to stay here!	I descided that i m going to stay here.	3424463	1472005704973	1472005705053	e	69
6664	72016	I decided that I am going to stay here!	I descided that i m going to stay here.	3424506	1472005705169	1472005705254	d	68
6664	72016	I decided that I am going to stay here!	I descided that i m going to stay here.	3424507	1472005705459	1472005705577	 	32
6664	72016	I decided that I am going to stay here!	I descided that i m going to stay here.	3424510	1472005705935	1472005705994	t	84
6664	72016	I decided that I am going to stay here!	I descided that i m going to stay here.	3424514	1472005706114	1472005706212	h	72
6664	72016	I decided that I am going to stay here!	I descided that i m going to stay here.	3424568	1472005706191	1472005706363	a	65
6664	72016	I decided that I am going to stay here!	I descided that i m going to stay here.	3424571	1472005706352	1472005706411	t	84
6664	72016	I decided that I am going to stay here!	I descided that i m going to stay here.	3424574	1472005706567	1472005706667	 	32
6664	72016	I decided that I am going to stay here!	I descided that i m going to stay here.	3424575	1472005706818	1472005706898	i	73
6664	72016	I decided that I am going to stay here!	I descided that i m going to stay here.	3424578	1472005707056	1472005707161	 	32
6664	72016	I decided that I am going to stay here!	I descided that i m going to stay here.	3424582	1472005707263	1472005707347	m	77
6664	72016	I decided that I am going to stay here!	I descided that i m going to stay here.	3424680	1472005707426	1472005707547	 	32
6664	72016	I decided that I am going to stay here!	I descided that i m going to stay here.	3424684	1472005708553	1472005708622	g	71
6664	72016	I decided that I am going to stay here!	I descided that i m going to stay here.	3424687	1472005708814	1472005708899	o	79
6664	72016	I decided that I am going to stay here!	I descided that i m going to stay here.	3424688	1472005709015	1472005709086	i	73
6664	72016	I decided that I am going to stay here!	I descided that i m going to stay here.	3424689	1472005709249	1472005709338	n	78
6664	72016	I decided that I am going to stay here!	I descided that i m going to stay here.	3424797	1472005709492	1472005709577	g	71
6664	72016	I decided that I am going to stay here!	I descided that i m going to stay here.	3424799	1472005709678	1472005709825	 	32
6664	72016	I decided that I am going to stay here!	I descided that i m going to stay here.	3424801	1472005710435	1472005710519	t	84
6664	72016	I decided that I am going to stay here!	I descided that i m going to stay here.	3424803	1472005710825	1472005710910	o	79
6664	72016	I decided that I am going to stay here!	I descided that i m going to stay here.	3424806	1472005711070	1472005711171	 	32
6664	72016	I decided that I am going to stay here!	I descided that i m going to stay here.	3424857	1472005711534	1472005711619	s	83
6664	72016	I decided that I am going to stay here!	I descided that i m going to stay here.	3424859	1472005711839	1472005711923	t	84
6664	72016	I decided that I am going to stay here!	I descided that i m going to stay here.	3424863	1472005711890	1472005712049	a	65
6664	72016	I decided that I am going to stay here!	I descided that i m going to stay here.	3424866	1472005712080	1472005712157	y	89
6664	72016	I decided that I am going to stay here!	I descided that i m going to stay here.	3424870	1472005712314	1472005712415	 	32
6664	72016	I decided that I am going to stay here!	I descided that i m going to stay here.	3424922	1472005712697	1472005712790	h	72
6664	72016	I decided that I am going to stay here!	I descided that i m going to stay here.	3424926	1472005712954	1472005713022	e	69
6664	72016	I decided that I am going to stay here!	I descided that i m going to stay here.	3424929	1472005713103	1472005713163	r	82
6664	72016	I decided that I am going to stay here!	I descided that i m going to stay here.	3424933	1472005713239	1472005713339	e	69
6664	72016	I decided that I am going to stay here!	I descided that i m going to stay here.	3424936	1472005713774	1472005713867	.	190
6664	72035	I'll email her later tonight.	I ll email her later tonight	3425153	1472005716292	1472005716480	CAPS_LOCK	20
6664	72035	I'll email her later tonight.	I ll email her later tonight	3425157	1472005716597	1472005716683	I	73
6664	72035	I'll email her later tonight.	I ll email her later tonight	3425162	1472005716885	1472005717066	CAPS_LOCK	20
6664	72035	I'll email her later tonight.	I ll email her later tonight	3425165	1472005717205	1472005717307	 	32
6664	72035	I'll email her later tonight.	I ll email her later tonight	3425168	1472005718492	1472005718593	l	76
6664	72035	I'll email her later tonight.	I ll email her later tonight	3425171	1472005718640	1472005718756	l	76
6664	72035	I'll email her later tonight.	I ll email her later tonight	3425172	1472005718944	1472005719050	 	32
6664	72035	I'll email her later tonight.	I ll email her later tonight	3425227	1472005719588	1472005719678	e	69
6664	72035	I'll email her later tonight.	I ll email her later tonight	3425232	1472005720072	1472005720203	m	77
6664	72035	I'll email her later tonight.	I ll email her later tonight	3425236	1472005720179	1472005720362	a	65
6664	72035	I'll email her later tonight.	I ll email her later tonight	3425239	1472005720362	1472005720447	i	73
6664	72035	I'll email her later tonight.	I ll email her later tonight	3425241	1472005720563	1472005720648	l	76
6664	72035	I'll email her later tonight.	I ll email her later tonight	3425326	1472005720834	1472005720934	 	32
6664	72035	I'll email her later tonight.	I ll email her later tonight	3425330	1472005721387	1472005721488	h	72
6664	72035	I'll email her later tonight.	I ll email her later tonight	3425333	1472005721724	1472005721790	e	69
6664	72035	I'll email her later tonight.	I ll email her later tonight	3425335	1472005721872	1472005721974	r	82
6664	72035	I'll email her later tonight.	I ll email her later tonight	3425337	1472005722191	1472005722292	 	32
6664	72035	I'll email her later tonight.	I ll email her later tonight	3425398	1472005722761	1472005722853	l	76
6664	72035	I'll email her later tonight.	I ll email her later tonight	3425402	1472005722953	1472005723115	a	65
6664	72035	I'll email her later tonight.	I ll email her later tonight	3425410	1472005723298	1472005723380	t	84
6664	72035	I'll email her later tonight.	I ll email her later tonight	3425416	1472005723507	1472005723581	e	69
6664	72035	I'll email her later tonight.	I ll email her later tonight	3425422	1472005723649	1472005723748	r	82
6664	72035	I'll email her later tonight.	I ll email her later tonight	3425467	1472005723885	1472005724001	 	32
6664	72035	I'll email her later tonight.	I ll email her later tonight	3425468	1472005724172	1472005724258	t	84
6664	72035	I'll email her later tonight.	I ll email her later tonight	3425469	1472005724407	1472005724508	o	79
6664	72035	I'll email her later tonight.	I ll email her later tonight	3425472	1472005724657	1472005724735	n	78
6664	72035	I'll email her later tonight.	I ll email her later tonight	3425477	1472005724867	1472005724962	i	73
6664	72035	I'll email her later tonight.	I ll email her later tonight	3425552	1472005725491	1472005725567	g	71
6664	72035	I'll email her later tonight.	I ll email her later tonight	3425554	1472005725622	1472005725723	h	72
6664	72035	I'll email her later tonight.	I ll email her later tonight	3425558	1472005725839	1472005725908	t	84
