PARTICIPANT_ID	TEST_SECTION_ID	SENTENCE	USER_INPUT	KEYSTROKE_ID	PRESS_TIME	RELEASE_TIME	LETTER	KEYCODE
6679	73949	Just thought you oughta know.	Just thought you oughta know.	3516056	1472007875490	1472007875702	SHIFT	16
6679	73949	Just thought you oughta know.	Just thought you oughta know.	3516060	1472007875598	1472007875703		74
6679	73949	Just thought you oughta know.	Just thought you oughta know.	3516067	1472007875830	1472007875926		85
6679	73949	Just thought you oughta know.	Just thought you oughta know.	3516075	1472007875910	1472007876118		83
6679	73949	Just thought you oughta know.	Just thought you oughta know.	3516215	1472007876015	1472007876150		84
6679	73949	Just thought you oughta know.	Just thought you oughta know.	3516221	1472007876094	1472007876222		32
6679	73949	Just thought you oughta know.	Just thought you oughta know.	3516226	1472007877334	1472007877447		8
6679	73949	Just thought you oughta know.	Just thought you oughta know.	3516231	1472007877494	1472007877878		8
6679	73949	Just thought you oughta know.	Just thought you oughta know.	3516240	1472007878598	1472007878726		84
6679	73949	Just thought you oughta know.	Just thought you oughta know.	3516247	1472007878758	1472007878886		32
6679	73949	Just thought you oughta know.	Just thought you oughta know.	3516296	1472007878942	1472007879142		84
6679	73949	Just thought you oughta know.	Just thought you oughta know.	3516254	1472007878998	1472007879122		72
6679	73949	Just thought you oughta know.	Just thought you oughta know.	3516303	1472007879094	1472007879366		79
6679	73949	Just thought you oughta know.	Just thought you oughta know.	3516309	1472007879222	1472007879406		85
6679	73949	Just thought you oughta know.	Just thought you oughta know.	3516317	1472007880070	1472007880174		71
6679	73949	Just thought you oughta know.	Just thought you oughta know.	3516324	1472007880150	1472007880254		72
6679	73949	Just thought you oughta know.	Just thought you oughta know.	3516329	1472007880262	1472007880374		84
6679	73949	Just thought you oughta know.	Just thought you oughta know.	3516365	1472007880342	1472007880486		32
6679	73949	Just thought you oughta know.	Just thought you oughta know.	3516367	1472007880430	1472007880574		89
6679	73949	Just thought you oughta know.	Just thought you oughta know.	3516368	1472007880558	1472007880782		79
6679	73949	Just thought you oughta know.	Just thought you oughta know.	3516369	1472007880662	1472007880790		85
6679	73949	Just thought you oughta know.	Just thought you oughta know.	3516370	1472007880750	1472007880886		32
6679	73949	Just thought you oughta know.	Just thought you oughta know.	3516372	1472007881038	1472007881385		79
6679	73949	Just thought you oughta know.	Just thought you oughta know.	3516438	1472007881351	1472007881486		85
6679	73949	Just thought you oughta know.	Just thought you oughta know.	3516441	1472007882022	1472007882126		71
6679	73949	Just thought you oughta know.	Just thought you oughta know.	3516449	1472007882110	1472007882222		72
6679	73949	Just thought you oughta know.	Just thought you oughta know.	3516460	1472007882206	1472007882342		84
6679	73949	Just thought you oughta know.	Just thought you oughta know.	3516466	1472007882326	1472007882478		65
6679	73949	Just thought you oughta know.	Just thought you oughta know.	3516494	1472007882414	1472007882542		32
6679	73949	Just thought you oughta know.	Just thought you oughta know.	3516496	1472007882558	1472007882702		75
6679	73949	Just thought you oughta know.	Just thought you oughta know.	3516499	1472007882638	1472007882766		78
6679	73949	Just thought you oughta know.	Just thought you oughta know.	3516501	1472007882726	1472007882870		79
6679	73949	Just thought you oughta know.	Just thought you oughta know.	3516507	1472007882838	1472007883006		87
6679	73949	Just thought you oughta know.	Just thought you oughta know.	3516557	1472007882966	1472007883198		190
6679	73965	The single between the two versions is the treatment of foreign banks.	The single between the two versions is the treatment of foreign banks.	3516837	1472007887998	1472007888182	SHIFT	16
6679	73965	The single between the two versions is the treatment of foreign banks.	The single between the two versions is the treatment of foreign banks.	3516838	1472007888118	1472007888262		84
6679	73965	The single between the two versions is the treatment of foreign banks.	The single between the two versions is the treatment of foreign banks.	3516839	1472007888238	1472007888358		72
6679	73965	The single between the two versions is the treatment of foreign banks.	The single between the two versions is the treatment of foreign banks.	3516841	1472007888310	1472007888454		69
6679	73965	The single between the two versions is the treatment of foreign banks.	The single between the two versions is the treatment of foreign banks.	3516843	1472007888422	1472007888566		32
6679	73965	The single between the two versions is the treatment of foreign banks.	The single between the two versions is the treatment of foreign banks.	3516845	1472007888782	1472007888958		83
6679	73965	The single between the two versions is the treatment of foreign banks.	The single between the two versions is the treatment of foreign banks.	3516868	1472007888846	1472007889006		73
6679	73965	The single between the two versions is the treatment of foreign banks.	The single between the two versions is the treatment of foreign banks.	3516871	1472007888926	1472007889062		78
6679	73965	The single between the two versions is the treatment of foreign banks.	The single between the two versions is the treatment of foreign banks.	3516873	1472007889038	1472007889174		71
6679	73965	The single between the two versions is the treatment of foreign banks.	The single between the two versions is the treatment of foreign banks.	3516875	1472007889134	1472007889286		76
6679	73965	The single between the two versions is the treatment of foreign banks.	The single between the two versions is the treatment of foreign banks.	3516877	1472007889246	1472007889382		69
6679	73965	The single between the two versions is the treatment of foreign banks.	The single between the two versions is the treatment of foreign banks.	3516879	1472007889350	1472007889462		32
6679	73965	The single between the two versions is the treatment of foreign banks.	The single between the two versions is the treatment of foreign banks.	3516880	1472007889534	1472007889646		66
6679	73965	The single between the two versions is the treatment of foreign banks.	The single between the two versions is the treatment of foreign banks.	3516896	1472007889622	1472007889806		69
6679	73965	The single between the two versions is the treatment of foreign banks.	The single between the two versions is the treatment of foreign banks.	3516899	1472007889758	1472007889870		84
6679	73965	The single between the two versions is the treatment of foreign banks.	The single between the two versions is the treatment of foreign banks.	3516902	1472007889958	1472007890086		87
6679	73965	The single between the two versions is the treatment of foreign banks.	The single between the two versions is the treatment of foreign banks.	3516907	1472007890134	1472007890286		69
6679	73965	The single between the two versions is the treatment of foreign banks.	The single between the two versions is the treatment of foreign banks.	3516914	1472007890375	1472007890422		69
6679	73965	The single between the two versions is the treatment of foreign banks.	The single between the two versions is the treatment of foreign banks.	3516922	1472007890454	1472007890574		78
6679	73965	The single between the two versions is the treatment of foreign banks.	The single between the two versions is the treatment of foreign banks.	3516947	1472007890526	1472007890686		32
6679	73965	The single between the two versions is the treatment of foreign banks.	The single between the two versions is the treatment of foreign banks.	3516953	1472007890766	1472007890902		84
6679	73965	The single between the two versions is the treatment of foreign banks.	The single between the two versions is the treatment of foreign banks.	3516957	1472007890838	1472007890958		72
6679	73965	The single between the two versions is the treatment of foreign banks.	The single between the two versions is the treatment of foreign banks.	3516964	1472007890959	1472007891086		69
6679	73965	The single between the two versions is the treatment of foreign banks.	The single between the two versions is the treatment of foreign banks.	3516969	1472007891030	1472007891158		32
6679	73965	The single between the two versions is the treatment of foreign banks.	The single between the two versions is the treatment of foreign banks.	3516974	1472007891174	1472007891288		84
6679	73965	The single between the two versions is the treatment of foreign banks.	The single between the two versions is the treatment of foreign banks.	3517010	1472007891278	1472007891446		87
6679	73965	The single between the two versions is the treatment of foreign banks.	The single between the two versions is the treatment of foreign banks.	3517016	1472007891382	1472007891503		79
6679	73965	The single between the two versions is the treatment of foreign banks.	The single between the two versions is the treatment of foreign banks.	3517021	1472007891462	1472007891606		32
6679	73965	The single between the two versions is the treatment of foreign banks.	The single between the two versions is the treatment of foreign banks.	3517027	1472007891758	1472007891862		86
6679	73965	The single between the two versions is the treatment of foreign banks.	The single between the two versions is the treatment of foreign banks.	3517033	1472007892006	1472007892206		69
6679	73965	The single between the two versions is the treatment of foreign banks.	The single between the two versions is the treatment of foreign banks.	3517068	1472007892125	1472007892230		82
6679	73965	The single between the two versions is the treatment of foreign banks.	The single between the two versions is the treatment of foreign banks.	3517072	1472007892438	1472007892614		83
6679	73965	The single between the two versions is the treatment of foreign banks.	The single between the two versions is the treatment of foreign banks.	3517074	1472007892526	1472007892654		73
6679	73965	The single between the two versions is the treatment of foreign banks.	The single between the two versions is the treatment of foreign banks.	3517076	1472007892630	1472007892799		79
6679	73965	The single between the two versions is the treatment of foreign banks.	The single between the two versions is the treatment of foreign banks.	3517077	1472007892726	1472007892840		78
6679	73965	The single between the two versions is the treatment of foreign banks.	The single between the two versions is the treatment of foreign banks.	3517079	1472007892840	1472007892942		83
6679	73965	The single between the two versions is the treatment of foreign banks.	The single between the two versions is the treatment of foreign banks.	3517090	1472007892902	1472007892998		32
6679	73965	The single between the two versions is the treatment of foreign banks.	The single between the two versions is the treatment of foreign banks.	3517093	1472007893022	1472007893159		73
6679	73965	The single between the two versions is the treatment of foreign banks.	The single between the two versions is the treatment of foreign banks.	3517103	1472007893118	1472007893326		83
6679	73965	The single between the two versions is the treatment of foreign banks.	The single between the two versions is the treatment of foreign banks.	3517097	1472007893198	1472007893286		32
6679	73965	The single between the two versions is the treatment of foreign banks.	The single between the two versions is the treatment of foreign banks.	3517107	1472007893310	1472007893438		84
6679	73965	The single between the two versions is the treatment of foreign banks.	The single between the two versions is the treatment of foreign banks.	3517166	1472007893358	1472007893462		72
6679	73965	The single between the two versions is the treatment of foreign banks.	The single between the two versions is the treatment of foreign banks.	3517170	1472007893478	1472007893622		69
6679	73965	The single between the two versions is the treatment of foreign banks.	The single between the two versions is the treatment of foreign banks.	3517174	1472007893550	1472007893678		32
6679	73965	The single between the two versions is the treatment of foreign banks.	The single between the two versions is the treatment of foreign banks.	3517177	1472007893694	1472007893782		71
6679	73965	The single between the two versions is the treatment of foreign banks.	The single between the two versions is the treatment of foreign banks.	3517180	1472007894046	1472007894118		8
6679	73965	The single between the two versions is the treatment of foreign banks.	The single between the two versions is the treatment of foreign banks.	3517183	1472007894134	1472007894214		84
6679	73965	The single between the two versions is the treatment of foreign banks.	The single between the two versions is the treatment of foreign banks.	3517205	1472007894310	1472007894446		82
6679	73965	The single between the two versions is the treatment of foreign banks.	The single between the two versions is the treatment of foreign banks.	3517211	1472007894398	1472007894558		69
6679	73965	The single between the two versions is the treatment of foreign banks.	The single between the two versions is the treatment of foreign banks.	3517217	1472007894518	1472007894734		65
6679	73965	The single between the two versions is the treatment of foreign banks.	The single between the two versions is the treatment of foreign banks.	3517226	1472007894630	1472007894766		84
6679	73965	The single between the two versions is the treatment of foreign banks.	The single between the two versions is the treatment of foreign banks.	3517232	1472007894878	1472007894942		77
6679	73965	The single between the two versions is the treatment of foreign banks.	The single between the two versions is the treatment of foreign banks.	3517249	1472007894982	1472007895190		69
6679	73965	The single between the two versions is the treatment of foreign banks.	The single between the two versions is the treatment of foreign banks.	3517245	1472007895038	1472007895126		78
6679	73965	The single between the two versions is the treatment of foreign banks.	The single between the two versions is the treatment of foreign banks.	3517252	1472007895126	1472007895239		84
6679	73965	The single between the two versions is the treatment of foreign banks.	The single between the two versions is the treatment of foreign banks.	3517260	1472007895222	1472007895318		32
6679	73965	The single between the two versions is the treatment of foreign banks.	The single between the two versions is the treatment of foreign banks.	3517266	1472007895374	1472007895470		79
6679	73965	The single between the two versions is the treatment of foreign banks.	The single between the two versions is the treatment of foreign banks.	3517295	1472007895486	1472007895598		70
6679	73965	The single between the two versions is the treatment of foreign banks.	The single between the two versions is the treatment of foreign banks.	3517297	1472007895542	1472007895678		32
6679	73965	The single between the two versions is the treatment of foreign banks.	The single between the two versions is the treatment of foreign banks.	3517300	1472007895798	1472007895910		70
6679	73965	The single between the two versions is the treatment of foreign banks.	The single between the two versions is the treatment of foreign banks.	3517307	1472007895870	1472007895974		79
6679	73965	The single between the two versions is the treatment of foreign banks.	The single between the two versions is the treatment of foreign banks.	3517315	1472007895998	1472007896078		82
6679	73965	The single between the two versions is the treatment of foreign banks.	The single between the two versions is the treatment of foreign banks.	3517365	1472007896278	1472007896462		69
6679	73965	The single between the two versions is the treatment of foreign banks.	The single between the two versions is the treatment of foreign banks.	3517370	1472007896462	1472007896598		73
6679	73965	The single between the two versions is the treatment of foreign banks.	The single between the two versions is the treatment of foreign banks.	3517375	1472007896710	1472007896806		71
6679	73965	The single between the two versions is the treatment of foreign banks.	The single between the two versions is the treatment of foreign banks.	3517378	1472007896782	1472007896902		78
6679	73965	The single between the two versions is the treatment of foreign banks.	The single between the two versions is the treatment of foreign banks.	3517405	1472007896862	1472007896966		32
6679	73965	The single between the two versions is the treatment of foreign banks.	The single between the two versions is the treatment of foreign banks.	3517407	1472007897182	1472007897270		66
6679	73965	The single between the two versions is the treatment of foreign banks.	The single between the two versions is the treatment of foreign banks.	3517411	1472007897286	1472007897510		65
6679	73965	The single between the two versions is the treatment of foreign banks.	The single between the two versions is the treatment of foreign banks.	3517416	1472007897406	1472007897550		78
6679	73965	The single between the two versions is the treatment of foreign banks.	The single between the two versions is the treatment of foreign banks.	3517419	1472007897502	1472007897654		75
6679	73965	The single between the two versions is the treatment of foreign banks.	The single between the two versions is the treatment of foreign banks.	3517449	1472007897606	1472007897758		83
6679	73965	The single between the two versions is the treatment of foreign banks.	The single between the two versions is the treatment of foreign banks.	3517458	1472007897926	1472007898046		190
6679	73987	I got the impression that this is a message for internal use.	I got the impression that this is a message for internal use.	3517601	1472007899942	1472007900230	SHIFT	16
6679	73987	I got the impression that this is a message for internal use.	I got the impression that this is a message for internal use.	3517607	1472007900110	1472007900254		73
6679	73987	I got the impression that this is a message for internal use.	I got the impression that this is a message for internal use.	3517614	1472007900231	1472007900350		32
6679	73987	I got the impression that this is a message for internal use.	I got the impression that this is a message for internal use.	3517621	1472007900334	1472007900430		71
6679	73987	I got the impression that this is a message for internal use.	I got the impression that this is a message for internal use.	3517625	1472007900431	1472007900518		79
6679	73987	I got the impression that this is a message for internal use.	I got the impression that this is a message for internal use.	3517633	1472007900526	1472007900606		84
6679	73987	I got the impression that this is a message for internal use.	I got the impression that this is a message for internal use.	3517645	1472007900610	1472007900710		32
6679	73987	I got the impression that this is a message for internal use.	I got the impression that this is a message for internal use.	3517649	1472007900694	1472007900791		84
6679	73987	I got the impression that this is a message for internal use.	I got the impression that this is a message for internal use.	3517652	1472007900774	1472007900889		72
6679	73987	I got the impression that this is a message for internal use.	I got the impression that this is a message for internal use.	3517655	1472007900870	1472007900990		69
6679	73987	I got the impression that this is a message for internal use.	I got the impression that this is a message for internal use.	3517664	1472007900934	1472007901062		32
6679	73987	I got the impression that this is a message for internal use.	I got the impression that this is a message for internal use.	3517668	1472007901078	1472007901214		73
6679	73987	I got the impression that this is a message for internal use.	I got the impression that this is a message for internal use.	3517672	1472007901166	1472007901262		77
6679	73987	I got the impression that this is a message for internal use.	I got the impression that this is a message for internal use.	3517676	1472007901350	1472007901478		80
6679	73987	I got the impression that this is a message for internal use.	I got the impression that this is a message for internal use.	3517681	1472007901462	1472007901614		82
6679	73987	I got the impression that this is a message for internal use.	I got the impression that this is a message for internal use.	3517709	1472007901542	1472007901670		69
6679	73987	I got the impression that this is a message for internal use.	I got the impression that this is a message for internal use.	3517711	1472007901774	1472007901814		83
6679	73987	I got the impression that this is a message for internal use.	I got the impression that this is a message for internal use.	3517713	1472007901894	1472007901959		83
6679	73987	I got the impression that this is a message for internal use.	I got the impression that this is a message for internal use.	3517716	1472007901998	1472007902158		73
6679	73987	I got the impression that this is a message for internal use.	I got the impression that this is a message for internal use.	3517720	1472007902078	1472007902230		79
6679	73987	I got the impression that this is a message for internal use.	I got the impression that this is a message for internal use.	3517733	1472007902182	1472007902286		78
6679	73987	I got the impression that this is a message for internal use.	I got the impression that this is a message for internal use.	3517734	1472007902222	1472007902326		32
6679	73987	I got the impression that this is a message for internal use.	I got the impression that this is a message for internal use.	3517735	1472007902366	1472007902486		84
6679	73987	I got the impression that this is a message for internal use.	I got the impression that this is a message for internal use.	3517738	1472007902430	1472007902539		72
6679	73987	I got the impression that this is a message for internal use.	I got the impression that this is a message for internal use.	3517741	1472007902518	1472007902646		65
6679	73987	I got the impression that this is a message for internal use.	I got the impression that this is a message for internal use.	3517744	1472007902590	1472007902710		84
6679	73987	I got the impression that this is a message for internal use.	I got the impression that this is a message for internal use.	3517761	1472007902662	1472007902750		32
6679	73987	I got the impression that this is a message for internal use.	I got the impression that this is a message for internal use.	3517762	1472007902862	1472007903014		84
6679	73987	I got the impression that this is a message for internal use.	I got the impression that this is a message for internal use.	3517763	1472007902894	1472007903072		72
6679	73987	I got the impression that this is a message for internal use.	I got the impression that this is a message for internal use.	3517765	1472007903054	1472007903182		73
6679	73987	I got the impression that this is a message for internal use.	I got the impression that this is a message for internal use.	3517769	1472007903166	1472007903310		83
6679	73987	I got the impression that this is a message for internal use.	I got the impression that this is a message for internal use.	3517787	1472007903294	1472007903374		32
6679	73987	I got the impression that this is a message for internal use.	I got the impression that this is a message for internal use.	3517791	1472007903454	1472007903566		73
6679	73987	I got the impression that this is a message for internal use.	I got the impression that this is a message for internal use.	3517798	1472007903567	1472007903742		83
6679	73987	I got the impression that this is a message for internal use.	I got the impression that this is a message for internal use.	3517795	1472007903638	1472007903735		32
6679	73987	I got the impression that this is a message for internal use.	I got the impression that this is a message for internal use.	3517846	1472007903750	1472007903942		65
6679	73987	I got the impression that this is a message for internal use.	I got the impression that this is a message for internal use.	3517804	1472007903822	1472007903910		32
6679	73987	I got the impression that this is a message for internal use.	I got the impression that this is a message for internal use.	3517849	1472007903974	1472007904134		77
6679	73987	I got the impression that this is a message for internal use.	I got the impression that this is a message for internal use.	3517854	1472007904054	1472007904254		69
6679	73987	I got the impression that this is a message for internal use.	I got the impression that this is a message for internal use.	3517859	1472007904206	1472007904302		83
6679	73987	I got the impression that this is a message for internal use.	I got the impression that this is a message for internal use.	3517861	1472007904390	1472007904478		83
6679	73987	I got the impression that this is a message for internal use.	I got the impression that this is a message for internal use.	3517865	1472007904606	1472007904798		65
6679	73987	I got the impression that this is a message for internal use.	I got the impression that this is a message for internal use.	3517876	1472007904718	1472007904814		71
6679	73987	I got the impression that this is a message for internal use.	I got the impression that this is a message for internal use.	3517879	1472007904814	1472007904942		69
6679	73987	I got the impression that this is a message for internal use.	I got the impression that this is a message for internal use.	3517882	1472007904894	1472007905030		32
6679	73987	I got the impression that this is a message for internal use.	I got the impression that this is a message for internal use.	3517884	1472007905134	1472007905214		70
6679	73987	I got the impression that this is a message for internal use.	I got the impression that this is a message for internal use.	3517886	1472007905190	1472007905310		79
6679	73987	I got the impression that this is a message for internal use.	I got the impression that this is a message for internal use.	3517947	1472007905302	1472007905414		82
6679	73987	I got the impression that this is a message for internal use.	I got the impression that this is a message for internal use.	3517952	1472007905384	1472007905518		32
6679	73987	I got the impression that this is a message for internal use.	I got the impression that this is a message for internal use.	3517959	1472007905534	1472007905662		73
6679	73987	I got the impression that this is a message for internal use.	I got the impression that this is a message for internal use.	3517967	1472007905622	1472007905766		78
6679	73987	I got the impression that this is a message for internal use.	I got the impression that this is a message for internal use.	3517973	1472007905758	1472007905870		84
6679	73987	I got the impression that this is a message for internal use.	I got the impression that this is a message for internal use.	3517979	1472007905910	1472007906086		69
6679	73987	I got the impression that this is a message for internal use.	I got the impression that this is a message for internal use.	3518003	1472007906006	1472007906166		82
6679	73987	I got the impression that this is a message for internal use.	I got the impression that this is a message for internal use.	3518006	1472007906110	1472007906222		78
6679	73987	I got the impression that this is a message for internal use.	I got the impression that this is a message for internal use.	3518009	1472007906246	1472007906422		65
6679	73987	I got the impression that this is a message for internal use.	I got the impression that this is a message for internal use.	3518011	1472007906342	1472007906462		76
6679	73987	I got the impression that this is a message for internal use.	I got the impression that this is a message for internal use.	3518016	1472007906414	1472007906542		32
6679	73987	I got the impression that this is a message for internal use.	I got the impression that this is a message for internal use.	3518019	1472007906622	1472007906734		85
6679	73987	I got the impression that this is a message for internal use.	I got the impression that this is a message for internal use.	3518034	1472007906702	1472007906878		83
6679	73987	I got the impression that this is a message for internal use.	I got the impression that this is a message for internal use.	3518035	1472007906814	1472007906966		69
6679	73987	I got the impression that this is a message for internal use.	I got the impression that this is a message for internal use.	3518037	1472007906879	1472007907030		190
6679	73998	I will need to have my memory refreshed.	I will need to have my memory refreshed.	3518184	1472007908790	1472007909030	SHIFT	16
6679	73998	I will need to have my memory refreshed.	I will need to have my memory refreshed.	3518191	1472007908950	1472007909094		73
6679	73998	I will need to have my memory refreshed.	I will need to have my memory refreshed.	3518196	1472007909062	1472007909214		32
6679	73998	I will need to have my memory refreshed.	I will need to have my memory refreshed.	3518201	1472007909190	1472007909366		87
6679	73998	I will need to have my memory refreshed.	I will need to have my memory refreshed.	3518206	1472007909270	1472007909366		73
6679	73998	I will need to have my memory refreshed.	I will need to have my memory refreshed.	3518210	1472007909438	1472007909510		76
6679	73998	I will need to have my memory refreshed.	I will need to have my memory refreshed.	3518227	1472007909574	1472007909678		76
6679	73998	I will need to have my memory refreshed.	I will need to have my memory refreshed.	3518232	1472007909622	1472007909750		32
6679	73998	I will need to have my memory refreshed.	I will need to have my memory refreshed.	3518239	1472007909751	1472007909870		78
6679	73998	I will need to have my memory refreshed.	I will need to have my memory refreshed.	3518244	1472007909878	1472007909994		69
6679	73998	I will need to have my memory refreshed.	I will need to have my memory refreshed.	3518248	1472007910030	1472007910094		69
6679	73998	I will need to have my memory refreshed.	I will need to have my memory refreshed.	3518269	1472007910198	1472007910319		68
6679	73998	I will need to have my memory refreshed.	I will need to have my memory refreshed.	3518272	1472007910286	1472007910406		32
6679	73998	I will need to have my memory refreshed.	I will need to have my memory refreshed.	3518280	1472007910430	1472007910542		84
6679	73998	I will need to have my memory refreshed.	I will need to have my memory refreshed.	3518289	1472007910462	1472007910590		79
6679	73998	I will need to have my memory refreshed.	I will need to have my memory refreshed.	3518312	1472007910542	1472007910662		32
6679	73998	I will need to have my memory refreshed.	I will need to have my memory refreshed.	3518315	1472007910670	1472007910798		72
6679	73998	I will need to have my memory refreshed.	I will need to have my memory refreshed.	3518319	1472007910734	1472007910958		65
6679	73998	I will need to have my memory refreshed.	I will need to have my memory refreshed.	3518323	1472007910814	1472007910974		86
6679	73998	I will need to have my memory refreshed.	I will need to have my memory refreshed.	3518328	1472007910942	1472007911062		69
6679	73998	I will need to have my memory refreshed.	I will need to have my memory refreshed.	3518357	1472007910998	1472007911086		32
6679	73998	I will need to have my memory refreshed.	I will need to have my memory refreshed.	3518359	1472007911150	1472007911294		77
6679	73998	I will need to have my memory refreshed.	I will need to have my memory refreshed.	3518362	1472007911254	1472007911342		89
6679	73998	I will need to have my memory refreshed.	I will need to have my memory refreshed.	3518367	1472007911366	1472007911454		32
6679	73998	I will need to have my memory refreshed.	I will need to have my memory refreshed.	3518372	1472007911550	1472007911686		77
6679	73998	I will need to have my memory refreshed.	I will need to have my memory refreshed.	3518428	1472007911654	1472007911838		69
6679	73998	I will need to have my memory refreshed.	I will need to have my memory refreshed.	3518430	1472007911782	1472007911910		77
6679	73998	I will need to have my memory refreshed.	I will need to have my memory refreshed.	3518434	1472007911950	1472007912174		79
6679	73998	I will need to have my memory refreshed.	I will need to have my memory refreshed.	3518439	1472007912182	1472007912318		89
6679	73998	I will need to have my memory refreshed.	I will need to have my memory refreshed.	3518442	1472007912574	1472007912622		8
6679	73998	I will need to have my memory refreshed.	I will need to have my memory refreshed.	3518446	1472007912742	1472007912894		82
6679	73998	I will need to have my memory refreshed.	I will need to have my memory refreshed.	3518497	1472007912822	1472007912918		89
6679	73998	I will need to have my memory refreshed.	I will need to have my memory refreshed.	3518503	1472007913038	1472007913158		32
6679	73998	I will need to have my memory refreshed.	I will need to have my memory refreshed.	3518510	1472007913254	1472007913382		82
6679	73998	I will need to have my memory refreshed.	I will need to have my memory refreshed.	3518519	1472007913358	1472007913486		69
6679	73998	I will need to have my memory refreshed.	I will need to have my memory refreshed.	3518525	1472007913550	1472007913638		70
6679	73998	I will need to have my memory refreshed.	I will need to have my memory refreshed.	3518530	1472007913742	1472007913886		82
6679	73998	I will need to have my memory refreshed.	I will need to have my memory refreshed.	3518577	1472007913830	1472007914006		69
6679	73998	I will need to have my memory refreshed.	I will need to have my memory refreshed.	3518586	1472007914270	1472007914358		72
6679	73998	I will need to have my memory refreshed.	I will need to have my memory refreshed.	3518594	1472007914846	1472007914878		8
6679	73998	I will need to have my memory refreshed.	I will need to have my memory refreshed.	3518606	1472007914966	1472007915158		83
6679	73998	I will need to have my memory refreshed.	I will need to have my memory refreshed.	3518599	1472007915054	1472007915142		72
6679	73998	I will need to have my memory refreshed.	I will need to have my memory refreshed.	3518620	1472007915150	1472007915206		69
6679	73998	I will need to have my memory refreshed.	I will need to have my memory refreshed.	3518623	1472007915310	1472007915422		68
6679	73998	I will need to have my memory refreshed.	I will need to have my memory refreshed.	3518625	1472007915350	1472007915550		190
6679	74007	Next time ask Jim to call me.	Next time ask Jim to call me.	3518772	1472007917326	1472007917663	SHIFT	16
6679	74007	Next time ask Jim to call me.	Next time ask Jim to call me.	3518769	1472007917502	1472007917638		78
6679	74007	Next time ask Jim to call me.	Next time ask Jim to call me.	3518776	1472007917606	1472007917710		69
6679	74007	Next time ask Jim to call me.	Next time ask Jim to call me.	3518781	1472007917990	1472007918182		88
6679	74007	Next time ask Jim to call me.	Next time ask Jim to call me.	3518784	1472007918350	1472007918406		8
6679	74007	Next time ask Jim to call me.	Next time ask Jim to call me.	3518788	1472007918446	1472007918510		8
6679	74007	Next time ask Jim to call me.	Next time ask Jim to call me.	3518850	1472007918806	1472007918934		69
6679	74007	Next time ask Jim to call me.	Next time ask Jim to call me.	3518853	1472007919118	1472007919246		88
6679	74007	Next time ask Jim to call me.	Next time ask Jim to call me.	3518855	1472007919510	1472007919614		84
6679	74007	Next time ask Jim to call me.	Next time ask Jim to call me.	3518856	1472007919654	1472007919790		32
6679	74007	Next time ask Jim to call me.	Next time ask Jim to call me.	3518858	1472007919790	1472007919926		84
6679	74007	Next time ask Jim to call me.	Next time ask Jim to call me.	3518869	1472007919854	1472007919998		73
6679	74007	Next time ask Jim to call me.	Next time ask Jim to call me.	3518872	1472007919930	1472007920078		77
6679	74007	Next time ask Jim to call me.	Next time ask Jim to call me.	3518877	1472007920022	1472007920150		69
6679	74007	Next time ask Jim to call me.	Next time ask Jim to call me.	3518882	1472007920118	1472007920246		32
6679	74007	Next time ask Jim to call me.	Next time ask Jim to call me.	3518886	1472007920278	1472007920478		65
6679	74007	Next time ask Jim to call me.	Next time ask Jim to call me.	3518923	1472007920382	1472007920542		83
6679	74007	Next time ask Jim to call me.	Next time ask Jim to call me.	3518925	1472007920446	1472007920574		75
6679	74007	Next time ask Jim to call me.	Next time ask Jim to call me.	3518928	1472007920542	1472007920702		32
6679	74007	Next time ask Jim to call me.	Next time ask Jim to call me.	3518934	1472007920734	1472007920966	SHIFT	16
6679	74007	Next time ask Jim to call me.	Next time ask Jim to call me.	3518937	1472007920854	1472007920974		74
6679	74007	Next time ask Jim to call me.	Next time ask Jim to call me.	3518941	1472007921134	1472007921190		73
6679	74007	Next time ask Jim to call me.	Next time ask Jim to call me.	3518945	1472007921238	1472007921374		77
6679	74007	Next time ask Jim to call me.	Next time ask Jim to call me.	3518990	1472007921390	1472007921510		32
6679	74007	Next time ask Jim to call me.	Next time ask Jim to call me.	3518995	1472007921774	1472007921846		8
6679	74007	Next time ask Jim to call me.	Next time ask Jim to call me.	3519002	1472007921918	1472007921966		8
6679	74007	Next time ask Jim to call me.	Next time ask Jim to call me.	3519005	1472007922238	1472007922310		8
6679	74007	Next time ask Jim to call me.	Next time ask Jim to call me.	3519010	1472007922478	1472007922639		77
6679	74007	Next time ask Jim to call me.	Next time ask Jim to call me.	3519038	1472007922630	1472007922758		32
6679	74007	Next time ask Jim to call me.	Next time ask Jim to call me.	3519039	1472007922950	1472007923070		84
6679	74007	Next time ask Jim to call me.	Next time ask Jim to call me.	3519040	1472007923014	1472007923125		79
6679	74007	Next time ask Jim to call me.	Next time ask Jim to call me.	3519041	1472007923110	1472007923230		32
6679	74007	Next time ask Jim to call me.	Next time ask Jim to call me.	3519043	1472007923222	1472007923438		67
6679	74007	Next time ask Jim to call me.	Next time ask Jim to call me.	3519096	1472007923478	1472007923654		65
6679	74007	Next time ask Jim to call me.	Next time ask Jim to call me.	3519046	1472007923598	1472007923638		76
6679	74007	Next time ask Jim to call me.	Next time ask Jim to call me.	3519102	1472007923718	1472007923846		76
6679	74007	Next time ask Jim to call me.	Next time ask Jim to call me.	3519108	1472007923854	1472007923998		32
6679	74007	Next time ask Jim to call me.	Next time ask Jim to call me.	3519111	1472007924038	1472007924190		77
6679	74007	Next time ask Jim to call me.	Next time ask Jim to call me.	3519117	1472007924142	1472007924286		69
6679	74007	Next time ask Jim to call me.	Next time ask Jim to call me.	3519124	1472007924326	1472007924558		190
6679	74016	He left the Jets  win over Miami in the second half on October.	He left the JEts win over Miami in the second half on October.	3519301	1472007926174	1472007926406	SHIFT	16
6679	74016	He left the Jets  win over Miami in the second half on October.	He left the JEts win over Miami in the second half on October.	3519304	1472007926302	1472007926414		72
6679	74016	He left the Jets  win over Miami in the second half on October.	He left the JEts win over Miami in the second half on October.	3519306	1472007926406	1472007926534		69
6679	74016	He left the Jets  win over Miami in the second half on October.	He left the JEts win over Miami in the second half on October.	3519309	1472007926486	1472007926614		32
6679	74016	He left the Jets  win over Miami in the second half on October.	He left the JEts win over Miami in the second half on October.	3519310	1472007926806	1472007926942		76
6679	74016	He left the Jets  win over Miami in the second half on October.	He left the JEts win over Miami in the second half on October.	3519311	1472007927022	1472007927182		69
6679	74016	He left the Jets  win over Miami in the second half on October.	He left the JEts win over Miami in the second half on October.	3519328	1472007927134	1472007927254		70
6679	74016	He left the Jets  win over Miami in the second half on October.	He left the JEts win over Miami in the second half on October.	3519331	1472007927366	1472007927446		84
6679	74016	He left the Jets  win over Miami in the second half on October.	He left the JEts win over Miami in the second half on October.	3519336	1472007927447	1472007927534		32
6679	74016	He left the Jets  win over Miami in the second half on October.	He left the JEts win over Miami in the second half on October.	3519339	1472007927542	1472007927678		84
6679	74016	He left the Jets  win over Miami in the second half on October.	He left the JEts win over Miami in the second half on October.	3519342	1472007927598	1472007927718		72
6679	74016	He left the Jets  win over Miami in the second half on October.	He left the JEts win over Miami in the second half on October.	3519364	1472007927694	1472007927838		69
6679	74016	He left the Jets  win over Miami in the second half on October.	He left the JEts win over Miami in the second half on October.	3519366	1472007927766	1472007927878		32
6679	74016	He left the Jets  win over Miami in the second half on October.	He left the JEts win over Miami in the second half on October.	3519372	1472007927902	1472007928118	SHIFT	16
6679	74016	He left the Jets  win over Miami in the second half on October.	He left the JEts win over Miami in the second half on October.	3519368	1472007927998	1472007928110		74
6679	74016	He left the Jets  win over Miami in the second half on October.	He left the JEts win over Miami in the second half on October.	3519375	1472007928094	1472007928246		69
6679	74016	He left the Jets  win over Miami in the second half on October.	He left the JEts win over Miami in the second half on October.	3519377	1472007928214	1472007928334		84
6679	74016	He left the Jets  win over Miami in the second half on October.	He left the JEts win over Miami in the second half on October.	3519396	1472007928326	1472007928446		83
6679	74016	He left the Jets  win over Miami in the second half on October.	He left the JEts win over Miami in the second half on October.	3519398	1472007928414	1472007928550		32
6679	74016	He left the Jets  win over Miami in the second half on October.	He left the JEts win over Miami in the second half on October.	3519401	1472007928550	1472007928706		87
6679	74016	He left the Jets  win over Miami in the second half on October.	He left the JEts win over Miami in the second half on October.	3519404	1472007928630	1472007928742		73
6679	74016	He left the Jets  win over Miami in the second half on October.	He left the JEts win over Miami in the second half on October.	3519409	1472007928694	1472007928830		78
6679	74016	He left the Jets  win over Miami in the second half on October.	He left the JEts win over Miami in the second half on October.	3519439	1472007928782	1472007928902		32
6679	74016	He left the Jets  win over Miami in the second half on October.	He left the JEts win over Miami in the second half on October.	3519441	1472007928974	1472007929094		79
6679	74016	He left the Jets  win over Miami in the second half on October.	He left the JEts win over Miami in the second half on October.	3519443	1472007929118	1472007929246		86
6679	74016	He left the Jets  win over Miami in the second half on October.	He left the JEts win over Miami in the second half on October.	3519445	1472007929278	1472007929446		69
6679	74016	He left the Jets  win over Miami in the second half on October.	He left the JEts win over Miami in the second half on October.	3519448	1472007929390	1472007929526		82
6679	74016	He left the Jets  win over Miami in the second half on October.	He left the JEts win over Miami in the second half on October.	3519530	1472007929462	1472007929590		32
6679	74016	He left the Jets  win over Miami in the second half on October.	He left the JEts win over Miami in the second half on October.	3519535	1472007929614	1472007930214	SHIFT	16
6679	74016	He left the Jets  win over Miami in the second half on October.	He left the JEts win over Miami in the second half on October.	3519532	1472007929894	1472007930062		77
6679	74016	He left the Jets  win over Miami in the second half on October.	He left the JEts win over Miami in the second half on October.	3519539	1472007930534	1472007930670		73
6679	74016	He left the Jets  win over Miami in the second half on October.	He left the JEts win over Miami in the second half on October.	3519544	1472007930806	1472007930982		65
6679	74016	He left the Jets  win over Miami in the second half on October.	He left the JEts win over Miami in the second half on October.	3519549	1472007931078	1472007931238		77
6679	74016	He left the Jets  win over Miami in the second half on October.	He left the JEts win over Miami in the second half on October.	3519570	1472007931206	1472007931334		73
6679	74016	He left the Jets  win over Miami in the second half on October.	He left the JEts win over Miami in the second half on October.	3519572	1472007931335	1472007931438		32
6679	74016	He left the Jets  win over Miami in the second half on October.	He left the JEts win over Miami in the second half on October.	3519576	1472007931446	1472007931574		73
6679	74016	He left the Jets  win over Miami in the second half on October.	He left the JEts win over Miami in the second half on October.	3519577	1472007931550	1472007931654		78
6679	74016	He left the Jets  win over Miami in the second half on October.	He left the JEts win over Miami in the second half on October.	3519578	1472007931622	1472007931718		32
6679	74016	He left the Jets  win over Miami in the second half on October.	He left the JEts win over Miami in the second half on October.	3519632	1472007931702	1472007931857		84
6679	74016	He left the Jets  win over Miami in the second half on October.	He left the JEts win over Miami in the second half on October.	3519636	1472007931782	1472007931886		72
6679	74016	He left the Jets  win over Miami in the second half on October.	He left the JEts win over Miami in the second half on October.	3519640	1472007931838	1472007931982		69
6679	74016	He left the Jets  win over Miami in the second half on October.	He left the JEts win over Miami in the second half on October.	3519646	1472007931958	1472007932070		32
6679	74016	He left the Jets  win over Miami in the second half on October.	He left the JEts win over Miami in the second half on October.	3519652	1472007932094	1472007932286		83
6679	74016	He left the Jets  win over Miami in the second half on October.	He left the JEts win over Miami in the second half on October.	3519657	1472007932222	1472007932350		69
6679	74016	He left the Jets  win over Miami in the second half on October.	He left the JEts win over Miami in the second half on October.	3519661	1472007932438	1472007932622		67
6679	74016	He left the Jets  win over Miami in the second half on October.	He left the JEts win over Miami in the second half on October.	3519662	1472007932558	1472007932726		79
6679	74016	He left the Jets  win over Miami in the second half on October.	He left the JEts win over Miami in the second half on October.	3519663	1472007932638	1472007932758		78
6679	74016	He left the Jets  win over Miami in the second half on October.	He left the JEts win over Miami in the second half on October.	3519664	1472007932742	1472007932878		68
6679	74016	He left the Jets  win over Miami in the second half on October.	He left the JEts win over Miami in the second half on October.	3519694	1472007932830	1472007932926		32
6679	74016	He left the Jets  win over Miami in the second half on October.	He left the JEts win over Miami in the second half on October.	3519696	1472007933006	1472007933150		72
6679	74016	He left the Jets  win over Miami in the second half on October.	He left the JEts win over Miami in the second half on October.	3519701	1472007933151	1472007933318		65
6679	74016	He left the Jets  win over Miami in the second half on October.	He left the JEts win over Miami in the second half on October.	3519704	1472007933310	1472007933462		76
6679	74016	He left the Jets  win over Miami in the second half on October.	He left the JEts win over Miami in the second half on October.	3519708	1472007933462	1472007933590		70
6679	74016	He left the Jets  win over Miami in the second half on October.	He left the JEts win over Miami in the second half on October.	3519785	1472007933534	1472007933654		32
6679	74016	He left the Jets  win over Miami in the second half on October.	He left the JEts win over Miami in the second half on October.	3519792	1472007933702	1472007933854		79
6679	74016	He left the Jets  win over Miami in the second half on October.	He left the JEts win over Miami in the second half on October.	3519802	1472007933790	1472007933918		78
6679	74016	He left the Jets  win over Miami in the second half on October.	He left the JEts win over Miami in the second half on October.	3519811	1472007933854	1472007933982		32
6679	74016	He left the Jets  win over Miami in the second half on October.	He left the JEts win over Miami in the second half on October.	3519826	1472007934086	1472007934862	SHIFT	16
6679	74016	He left the Jets  win over Miami in the second half on October.	He left the JEts win over Miami in the second half on October.	3519818	1472007934694	1472007934838		79
6679	74016	He left the Jets  win over Miami in the second half on October.	He left the JEts win over Miami in the second half on October.	3519832	1472007935158	1472007935270		67
6679	74016	He left the Jets  win over Miami in the second half on October.	He left the JEts win over Miami in the second half on October.	3519969	1472007937038	1472007937142		84
6679	74016	He left the Jets  win over Miami in the second half on October.	He left the JEts win over Miami in the second half on October.	3519972	1472007937094	1472007937214		79
6679	74016	He left the Jets  win over Miami in the second half on October.	He left the JEts win over Miami in the second half on October.	3519975	1472007937870	1472007937974		66
6679	74016	He left the Jets  win over Miami in the second half on October.	He left the JEts win over Miami in the second half on October.	3519978	1472007937950	1472007938118		69
6679	74016	He left the Jets  win over Miami in the second half on October.	He left the JEts win over Miami in the second half on October.	3519989	1472007938030	1472007938158		82
6679	74016	He left the Jets  win over Miami in the second half on October.	He left the JEts win over Miami in the second half on October.	3519992	1472007938246	1472007938390		190
6679	74034	Currently, we are focusing our resources on domestic sites.	Currently, we are foscusing our serources on domestic sites.	3520156	1472007940230	1472007940422	SHIFT	16
6679	74034	Currently, we are focusing our resources on domestic sites.	Currently, we are foscusing our serources on domestic sites.	3520161	1472007940358	1472007940534		67
6679	74034	Currently, we are focusing our resources on domestic sites.	Currently, we are foscusing our serources on domestic sites.	3520166	1472007940535	1472007940646		85
6679	74034	Currently, we are focusing our resources on domestic sites.	Currently, we are foscusing our serources on domestic sites.	3520169	1472007940718	1472007940782		82
6679	74034	Currently, we are focusing our resources on domestic sites.	Currently, we are foscusing our serources on domestic sites.	3520171	1472007940838	1472007940934		82
6679	74034	Currently, we are focusing our resources on domestic sites.	Currently, we are foscusing our serources on domestic sites.	3520173	1472007941022	1472007941238		69
6679	74034	Currently, we are focusing our resources on domestic sites.	Currently, we are foscusing our serources on domestic sites.	3520221	1472007941198	1472007941382		78
6679	74034	Currently, we are focusing our resources on domestic sites.	Currently, we are foscusing our serources on domestic sites.	3520229	1472007941358	1472007941486		84
6679	74034	Currently, we are focusing our resources on domestic sites.	Currently, we are foscusing our serources on domestic sites.	3520236	1472007941942	1472007942070		76
6679	74034	Currently, we are focusing our resources on domestic sites.	Currently, we are foscusing our serources on domestic sites.	3520243	1472007942046	1472007942158		89
6679	74034	Currently, we are focusing our resources on domestic sites.	Currently, we are foscusing our serources on domestic sites.	3520247	1472007942246	1472007942414		188
6679	74034	Currently, we are focusing our resources on domestic sites.	Currently, we are foscusing our serources on domestic sites.	3520329	1472007942382	1472007942542		32
6679	74034	Currently, we are focusing our resources on domestic sites.	Currently, we are foscusing our serources on domestic sites.	3520334	1472007942614	1472007942894	SHIFT	16
6679	74034	Currently, we are focusing our resources on domestic sites.	Currently, we are foscusing our serources on domestic sites.	3520341	1472007942838	1472007943022		87
6679	74034	Currently, we are focusing our resources on domestic sites.	Currently, we are foscusing our serources on domestic sites.	3520348	1472007943238	1472007943294		8
6679	74034	Currently, we are focusing our resources on domestic sites.	Currently, we are foscusing our serources on domestic sites.	3520354	1472007943390	1472007943543		87
6679	74034	Currently, we are focusing our resources on domestic sites.	Currently, we are foscusing our serources on domestic sites.	3520360	1472007943494	1472007943662		69
6679	74034	Currently, we are focusing our resources on domestic sites.	Currently, we are foscusing our serources on domestic sites.	3520383	1472007943590	1472007943710		32
6679	74034	Currently, we are focusing our resources on domestic sites.	Currently, we are foscusing our serources on domestic sites.	3520387	1472007943710	1472007943918		65
6679	74034	Currently, we are focusing our resources on domestic sites.	Currently, we are foscusing our serources on domestic sites.	3520392	1472007943798	1472007943950		82
6679	74034	Currently, we are focusing our resources on domestic sites.	Currently, we are foscusing our serources on domestic sites.	3520396	1472007943902	1472007944022		69
6679	74034	Currently, we are focusing our resources on domestic sites.	Currently, we are foscusing our serources on domestic sites.	3520401	1472007943950	1472007944094		32
6679	74034	Currently, we are focusing our resources on domestic sites.	Currently, we are foscusing our serources on domestic sites.	3520405	1472007944222	1472007944334		70
6679	74034	Currently, we are focusing our resources on domestic sites.	Currently, we are foscusing our serources on domestic sites.	3520593	1472007944286	1472007944414		79
6679	74034	Currently, we are focusing our resources on domestic sites.	Currently, we are foscusing our serources on domestic sites.	3520597	1472007944574	1472007944726		83
6679	74034	Currently, we are focusing our resources on domestic sites.	Currently, we are foscusing our serources on domestic sites.	3520605	1472007947950	1472007948046		67
6679	74034	Currently, we are focusing our resources on domestic sites.	Currently, we are foscusing our serources on domestic sites.	3520611	1472007948038	1472007948150		85
6679	74034	Currently, we are focusing our resources on domestic sites.	Currently, we are foscusing our serources on domestic sites.	3520616	1472007948150	1472007948294		83
6679	74034	Currently, we are focusing our resources on domestic sites.	Currently, we are foscusing our serources on domestic sites.	3520623	1472007948358	1472007948502		73
6679	74034	Currently, we are focusing our resources on domestic sites.	Currently, we are foscusing our serources on domestic sites.	3520639	1472007948446	1472007948574		78
6679	74034	Currently, we are focusing our resources on domestic sites.	Currently, we are foscusing our serources on domestic sites.	3520640	1472007948534	1472007948630		71
6679	74034	Currently, we are focusing our resources on domestic sites.	Currently, we are foscusing our serources on domestic sites.	3520641	1472007948630	1472007948750		32
6679	74034	Currently, we are focusing our resources on domestic sites.	Currently, we are foscusing our serources on domestic sites.	3520643	1472007948814	1472007949022		79
6679	74034	Currently, we are focusing our resources on domestic sites.	Currently, we are foscusing our serources on domestic sites.	3520744	1472007948918	1472007949026		85
6679	74034	Currently, we are focusing our resources on domestic sites.	Currently, we are foscusing our serources on domestic sites.	3520748	1472007948998	1472007949126		82
6679	74034	Currently, we are focusing our resources on domestic sites.	Currently, we are foscusing our serources on domestic sites.	3520752	1472007949086	1472007949206		32
6679	74034	Currently, we are focusing our resources on domestic sites.	Currently, we are foscusing our serources on domestic sites.	3520757	1472007949286	1472007949462		83
6679	74034	Currently, we are focusing our resources on domestic sites.	Currently, we are foscusing our serources on domestic sites.	3520761	1472007949414	1472007949606		69
6679	74034	Currently, we are focusing our resources on domestic sites.	Currently, we are foscusing our serources on domestic sites.	3520764	1472007949534	1472007949678		82
6679	74034	Currently, we are focusing our resources on domestic sites.	Currently, we are foscusing our serources on domestic sites.	3520766	1472007950534	1472007950806		79
6679	74034	Currently, we are focusing our resources on domestic sites.	Currently, we are foscusing our serources on domestic sites.	3520849	1472007950686	1472007950830		85
6679	74034	Currently, we are focusing our resources on domestic sites.	Currently, we are foscusing our serources on domestic sites.	3520854	1472007951190	1472007951310		82
6679	74034	Currently, we are focusing our resources on domestic sites.	Currently, we are foscusing our serources on domestic sites.	3520858	1472007951598	1472007951742		67
6679	74034	Currently, we are focusing our resources on domestic sites.	Currently, we are foscusing our serources on domestic sites.	3520862	1472007952022	1472007952190		69
6679	74034	Currently, we are focusing our resources on domestic sites.	Currently, we are foscusing our serources on domestic sites.	3520865	1472007952158	1472007952329		83
6679	74034	Currently, we are focusing our resources on domestic sites.	Currently, we are foscusing our serources on domestic sites.	3520936	1472007952254	1472007952398		32
6679	74034	Currently, we are focusing our resources on domestic sites.	Currently, we are foscusing our serources on domestic sites.	3520941	1472007952430	1472007952622		79
6679	74034	Currently, we are focusing our resources on domestic sites.	Currently, we are foscusing our serources on domestic sites.	3520946	1472007952566	1472007952710		78
6679	74034	Currently, we are focusing our resources on domestic sites.	Currently, we are foscusing our serources on domestic sites.	3520951	1472007952630	1472007952782		32
6679	74034	Currently, we are focusing our resources on domestic sites.	Currently, we are foscusing our serources on domestic sites.	3520955	1472007953526	1472007953670		68
6679	74034	Currently, we are focusing our resources on domestic sites.	Currently, we are foscusing our serources on domestic sites.	3520984	1472007953622	1472007953750		79
6679	74034	Currently, we are focusing our resources on domestic sites.	Currently, we are foscusing our serources on domestic sites.	3520989	1472007953910	1472007954030		77
6679	74034	Currently, we are focusing our resources on domestic sites.	Currently, we are foscusing our serources on domestic sites.	3520995	1472007953982	1472007954150		69
6679	74034	Currently, we are focusing our resources on domestic sites.	Currently, we are foscusing our serources on domestic sites.	3520999	1472007954118	1472007954302		83
6679	74034	Currently, we are focusing our resources on domestic sites.	Currently, we are foscusing our serources on domestic sites.	3521008	1472007954374	1472007954494		84
6679	74034	Currently, we are focusing our resources on domestic sites.	Currently, we are foscusing our serources on domestic sites.	3521065	1472007954454	1472007954582		73
6679	74034	Currently, we are focusing our resources on domestic sites.	Currently, we are foscusing our serources on domestic sites.	3521067	1472007954750	1472007954870		67
6679	74034	Currently, we are focusing our resources on domestic sites.	Currently, we are foscusing our serources on domestic sites.	3521069	1472007955214	1472007955342		32
6679	74034	Currently, we are focusing our resources on domestic sites.	Currently, we are foscusing our serources on domestic sites.	3521071	1472007955430	1472007955614		83
6679	74034	Currently, we are focusing our resources on domestic sites.	Currently, we are foscusing our serources on domestic sites.	3521099	1472007955502	1472007955630		73
6679	74034	Currently, we are focusing our resources on domestic sites.	Currently, we are foscusing our serources on domestic sites.	3521101	1472007955598	1472007955734		84
6679	74034	Currently, we are focusing our resources on domestic sites.	Currently, we are foscusing our serources on domestic sites.	3521103	1472007955718	1472007955878		69
6679	74034	Currently, we are focusing our resources on domestic sites.	Currently, we are foscusing our serources on domestic sites.	3521107	1472007955806	1472007955982		83
6679	74034	Currently, we are focusing our resources on domestic sites.	Currently, we are foscusing our serources on domestic sites.	3521112	1472007955886	1472007956062		190
6679	74059	The reigning Indy-car series champion will be among top contenders.	The reigning Indy-car series champion will be among top contenders.	3521227	1472007957974	1472007958190	SHIFT	16
6679	74059	The reigning Indy-car series champion will be among top contenders.	The reigning Indy-car series champion will be among top contenders.	3521231	1472007958150	1472007958310		84
6679	74059	The reigning Indy-car series champion will be among top contenders.	The reigning Indy-car series champion will be among top contenders.	3521237	1472007958278	1472007958390		72
6679	74059	The reigning Indy-car series champion will be among top contenders.	The reigning Indy-car series champion will be among top contenders.	3521239	1472007958390	1472007958510		69
6679	74059	The reigning Indy-car series champion will be among top contenders.	The reigning Indy-car series champion will be among top contenders.	3521242	1472007958470	1472007958590		32
6679	74059	The reigning Indy-car series champion will be among top contenders.	The reigning Indy-car series champion will be among top contenders.	3521245	1472007959151	1472007959286		82
6679	74059	The reigning Indy-car series champion will be among top contenders.	The reigning Indy-car series champion will be among top contenders.	3521272	1472007959254	1472007959422		69
6679	74059	The reigning Indy-car series champion will be among top contenders.	The reigning Indy-car series champion will be among top contenders.	3521277	1472007959510	1472007959654		73
6679	74059	The reigning Indy-car series champion will be among top contenders.	The reigning Indy-car series champion will be among top contenders.	3521281	1472007959758	1472007959894		71
6679	74059	The reigning Indy-car series champion will be among top contenders.	The reigning Indy-car series champion will be among top contenders.	3521285	1472007959854	1472007959982		78
6679	74059	The reigning Indy-car series champion will be among top contenders.	The reigning Indy-car series champion will be among top contenders.	3521288	1472007960054	1472007960206		73
6679	74059	The reigning Indy-car series champion will be among top contenders.	The reigning Indy-car series champion will be among top contenders.	3521356	1472007960134	1472007960270		78
6679	74059	The reigning Indy-car series champion will be among top contenders.	The reigning Indy-car series champion will be among top contenders.	3521359	1472007960270	1472007960374		71
6679	74059	The reigning Indy-car series champion will be among top contenders.	The reigning Indy-car series champion will be among top contenders.	3521364	1472007960374	1472007960502		32
6679	74059	The reigning Indy-car series champion will be among top contenders.	The reigning Indy-car series champion will be among top contenders.	3521369	1472007960918	1472007961174	SHIFT	16
6679	74059	The reigning Indy-car series champion will be among top contenders.	The reigning Indy-car series champion will be among top contenders.	3521377	1472007961094	1472007961294		73
6679	74059	The reigning Indy-car series champion will be among top contenders.	The reigning Indy-car series champion will be among top contenders.	3521386	1472007961262	1472007961398		78
6679	74059	The reigning Indy-car series champion will be among top contenders.	The reigning Indy-car series champion will be among top contenders.	3521388	1472007961534	1472007961694		68
6679	74059	The reigning Indy-car series champion will be among top contenders.	The reigning Indy-car series champion will be among top contenders.	3521510	1472007961638	1472007961758		89
6679	74059	The reigning Indy-car series champion will be among top contenders.	The reigning Indy-car series champion will be among top contenders.	3521513	1472007962342	1472007962494		173
6679	74059	The reigning Indy-car series champion will be among top contenders.	The reigning Indy-car series champion will be among top contenders.	3521519	1472007963414	1472007963590		67
6679	74059	The reigning Indy-car series champion will be among top contenders.	The reigning Indy-car series champion will be among top contenders.	3521524	1472007963678	1472007963926		65
6679	74059	The reigning Indy-car series champion will be among top contenders.	The reigning Indy-car series champion will be among top contenders.	3521527	1472007963830	1472007963998		82
6679	74059	The reigning Indy-car series champion will be among top contenders.	The reigning Indy-car series champion will be among top contenders.	3521532	1472007964006	1472007964166		32
6679	74059	The reigning Indy-car series champion will be among top contenders.	The reigning Indy-car series champion will be among top contenders.	3521558	1472007964278	1472007964454		83
6679	74059	The reigning Indy-car series champion will be among top contenders.	The reigning Indy-car series champion will be among top contenders.	3521560	1472007964390	1472007964622		69
6679	74059	The reigning Indy-car series champion will be among top contenders.	The reigning Indy-car series champion will be among top contenders.	3521561	1472007964510	1472007964654		82
6679	74059	The reigning Indy-car series champion will be among top contenders.	The reigning Indy-car series champion will be among top contenders.	3521563	1472007964750	1472007964894		73
6679	74059	The reigning Indy-car series champion will be among top contenders.	The reigning Indy-car series champion will be among top contenders.	3521670	1472007964846	1472007965006		69
6679	74059	The reigning Indy-car series champion will be among top contenders.	The reigning Indy-car series champion will be among top contenders.	3521672	1472007964934	1472007965110		83
6679	74059	The reigning Indy-car series champion will be among top contenders.	The reigning Indy-car series champion will be among top contenders.	3521673	1472007965078	1472007965214		32
6679	74059	The reigning Indy-car series champion will be among top contenders.	The reigning Indy-car series champion will be among top contenders.	3521674	1472007965798	1472007965958		67
6679	74059	The reigning Indy-car series champion will be among top contenders.	The reigning Indy-car series champion will be among top contenders.	3521675	1472007966238	1472007966350		72
6679	74059	The reigning Indy-car series champion will be among top contenders.	The reigning Indy-car series champion will be among top contenders.	3521677	1472007966358	1472007966550		65
6679	74059	The reigning Indy-car series champion will be among top contenders.	The reigning Indy-car series champion will be among top contenders.	3521715	1472007966494	1472007966622		77
6679	74059	The reigning Indy-car series champion will be among top contenders.	The reigning Indy-car series champion will be among top contenders.	3521718	1472007966590	1472007966726		80
6679	74059	The reigning Indy-car series champion will be among top contenders.	The reigning Indy-car series champion will be among top contenders.	3521723	1472007966854	1472007967014		73
6679	74059	The reigning Indy-car series champion will be among top contenders.	The reigning Indy-car series champion will be among top contenders.	3521728	1472007966974	1472007967134		79
6679	74059	The reigning Indy-car series champion will be among top contenders.	The reigning Indy-car series champion will be among top contenders.	3521732	1472007967054	1472007967198		78
6679	74059	The reigning Indy-car series champion will be among top contenders.	The reigning Indy-car series champion will be among top contenders.	3521752	1472007967142	1472007967286		32
6679	74059	The reigning Indy-car series champion will be among top contenders.	The reigning Indy-car series champion will be among top contenders.	3521753	1472007967286	1472007967446		87
6679	74059	The reigning Indy-car series champion will be among top contenders.	The reigning Indy-car series champion will be among top contenders.	3521756	1472007967366	1472007967462		73
6679	74059	The reigning Indy-car series champion will be among top contenders.	The reigning Indy-car series champion will be among top contenders.	3521758	1472007967534	1472007967598		76
6679	74059	The reigning Indy-car series champion will be among top contenders.	The reigning Indy-car series champion will be among top contenders.	3521761	1472007967662	1472007967790		76
6679	74059	The reigning Indy-car series champion will be among top contenders.	The reigning Indy-car series champion will be among top contenders.	3521792	1472007967718	1472007967878		32
6679	74059	The reigning Indy-car series champion will be among top contenders.	The reigning Indy-car series champion will be among top contenders.	3521796	1472007967862	1472007967974		66
6679	74059	The reigning Indy-car series champion will be among top contenders.	The reigning Indy-car series champion will be among top contenders.	3521803	1472007967966	1472007968142		69
6679	74059	The reigning Indy-car series champion will be among top contenders.	The reigning Indy-car series champion will be among top contenders.	3521808	1472007968046	1472007968174		32
6679	74059	The reigning Indy-car series champion will be among top contenders.	The reigning Indy-car series champion will be among top contenders.	3521812	1472007968222	1472007968406		65
6679	74059	The reigning Indy-car series champion will be among top contenders.	The reigning Indy-car series champion will be among top contenders.	3521894	1472007968302	1472007968454		77
6679	74059	The reigning Indy-car series champion will be among top contenders.	The reigning Indy-car series champion will be among top contenders.	3521896	1472007968410	1472007968694		79
6679	74059	The reigning Indy-car series champion will be among top contenders.	The reigning Indy-car series champion will be among top contenders.	3521900	1472007968590	1472007968694		85
6679	74059	The reigning Indy-car series champion will be among top contenders.	The reigning Indy-car series champion will be among top contenders.	3521901	1472007969130	1472007969182		8
6679	74059	The reigning Indy-car series champion will be among top contenders.	The reigning Indy-car series champion will be among top contenders.	3521902	1472007969422	1472007969550		78
6679	74059	The reigning Indy-car series champion will be among top contenders.	The reigning Indy-car series champion will be among top contenders.	3521903	1472007969870	1472007969966		71
6679	74059	The reigning Indy-car series champion will be among top contenders.	The reigning Indy-car series champion will be among top contenders.	3521932	1472007970038	1472007970182		32
6679	74059	The reigning Indy-car series champion will be among top contenders.	The reigning Indy-car series champion will be among top contenders.	3521936	1472007970350	1472007970478		84
6679	74059	The reigning Indy-car series champion will be among top contenders.	The reigning Indy-car series champion will be among top contenders.	3521944	1472007970446	1472007970614		79
6679	74059	The reigning Indy-car series champion will be among top contenders.	The reigning Indy-car series champion will be among top contenders.	3521947	1472007970518	1472007970678		80
6679	74059	The reigning Indy-car series champion will be among top contenders.	The reigning Indy-car series champion will be among top contenders.	3522014	1472007970630	1472007970766		32
6679	74059	The reigning Indy-car series champion will be among top contenders.	The reigning Indy-car series champion will be among top contenders.	3522659	1472007970630	1472007970766		32
6679	74059	The reigning Indy-car series champion will be among top contenders.	The reigning Indy-car series champion will be among top contenders.	3522016	1472007971014	1472007971182		67
6679	74059	The reigning Indy-car series champion will be among top contenders.	The reigning Indy-car series champion will be among top contenders.	3522662	1472007971014	1472007971182		67
6679	74059	The reigning Indy-car series champion will be among top contenders.	The reigning Indy-car series champion will be among top contenders.	3522019	1472007971486	1472007971654		79
6679	74059	The reigning Indy-car series champion will be among top contenders.	The reigning Indy-car series champion will be among top contenders.	3522665	1472007971486	1472007971654		79
6679	74059	The reigning Indy-car series champion will be among top contenders.	The reigning Indy-car series champion will be among top contenders.	3522023	1472007971566	1472007971694		78
6679	74059	The reigning Indy-car series champion will be among top contenders.	The reigning Indy-car series champion will be among top contenders.	3522668	1472007971566	1472007971694		78
6679	74059	The reigning Indy-car series champion will be among top contenders.	The reigning Indy-car series champion will be among top contenders.	3522027	1472007971798	1472007971934		84
6679	74059	The reigning Indy-car series champion will be among top contenders.	The reigning Indy-car series champion will be among top contenders.	3522671	1472007971798	1472007971934		84
6679	74059	The reigning Indy-car series champion will be among top contenders.	The reigning Indy-car series champion will be among top contenders.	3522030	1472007972030	1472007972134		69
6679	74059	The reigning Indy-car series champion will be among top contenders.	The reigning Indy-car series champion will be among top contenders.	3522675	1472007972030	1472007972134		69
6679	74059	The reigning Indy-car series champion will be among top contenders.	The reigning Indy-car series champion will be among top contenders.	3522656	1472007972678	1472007972790		78
6679	74059	The reigning Indy-car series champion will be among top contenders.	The reigning Indy-car series champion will be among top contenders.	3522658	1472007972806	1472007972910		68
6679	74059	The reigning Indy-car series champion will be among top contenders.	The reigning Indy-car series champion will be among top contenders.	3522661	1472007973006	1472007973158		69
6679	74059	The reigning Indy-car series champion will be among top contenders.	The reigning Indy-car series champion will be among top contenders.	3522663	1472007973118	1472007973246		82
6679	74059	The reigning Indy-car series champion will be among top contenders.	The reigning Indy-car series champion will be among top contenders.	3522654	1472007973230	1472007973398		83
6679	74059	The reigning Indy-car series champion will be among top contenders.	The reigning Indy-car series champion will be among top contenders.	3522655	1472007973319	1472007973470		190
6679	74087	In a couple of weeks.	In a couple of weeks,	3522935	1472007989918	1472007990126	SHIFT	16
6679	74087	In a couple of weeks.	In a couple of weeks,	3522936	1472007990086	1472007990270		73
6679	74087	In a couple of weeks.	In a couple of weeks,	3522939	1472007990214	1472007990374		78
6679	74087	In a couple of weeks.	In a couple of weeks,	3522944	1472007990342	1472007990470		32
6679	74087	In a couple of weeks.	In a couple of weeks,	3522947	1472007990502	1472007990670		65
6679	74087	In a couple of weeks.	In a couple of weeks,	3523068	1472007990582	1472007990710		32
6679	74087	In a couple of weeks.	In a couple of weeks,	3523070	1472007991750	1472007991934		67
6679	74087	In a couple of weeks.	In a couple of weeks,	3523073	1472007991918	1472007992158		79
6679	74087	In a couple of weeks.	In a couple of weeks,	3523076	1472007992055	1472007992158		85
6679	74087	In a couple of weeks.	In a couple of weeks,	3523077	1472007992278	1472007992494		80
6679	74087	In a couple of weeks.	In a couple of weeks,	3523109	1472007992366	1472007992498		76
6679	74087	In a couple of weeks.	In a couple of weeks,	3523112	1472007992500	1472007992662		69
6679	74087	In a couple of weeks.	In a couple of weeks,	3523115	1472007992966	1472007993078		32
6679	74087	In a couple of weeks.	In a couple of weeks,	3523118	1472007993134	1472007993262		79
6679	74087	In a couple of weeks.	In a couple of weeks,	3523122	1472007993246	1472007993398		70
6679	74087	In a couple of weeks.	In a couple of weeks,	3523156	1472007993334	1472007993462		32
6679	74087	In a couple of weeks.	In a couple of weeks,	3523157	1472007993494	1472007993705		87
6679	74087	In a couple of weeks.	In a couple of weeks,	3523159	1472007993678	1472007993750		69
6679	74087	In a couple of weeks.	In a couple of weeks,	3523162	1472007993814	1472007993958		69
6679	74087	In a couple of weeks.	In a couple of weeks,	3523169	1472007993878	1472007993974		75
6679	74087	In a couple of weeks.	In a couple of weeks,	3523173	1472007994022	1472007994190		83
6679	74087	In a couple of weeks.	In a couple of weeks,	3523165	1472007994102	1472007994214		188
6679	74100	He is one of three Eagles who will be held out of the game.	He is one of three Eagles who will be held out of the game.	3523336	1472007997110	1472007997390	SHIFT	16
6679	74100	He is one of three Eagles who will be held out of the game.	He is one of three Eagles who will be held out of the game.	3523334	1472007997254	1472007997382		72
6679	74100	He is one of three Eagles who will be held out of the game.	He is one of three Eagles who will be held out of the game.	3523337	1472007997358	1472007997507		69
6679	74100	He is one of three Eagles who will be held out of the game.	He is one of three Eagles who will be held out of the game.	3523338	1472007997478	1472007997582		32
6679	74100	He is one of three Eagles who will be held out of the game.	He is one of three Eagles who will be held out of the game.	3523339	1472007997638	1472007997742		73
6679	74100	He is one of three Eagles who will be held out of the game.	He is one of three Eagles who will be held out of the game.	3523374	1472007997726	1472007997870		83
6679	74100	He is one of three Eagles who will be held out of the game.	He is one of three Eagles who will be held out of the game.	3523377	1472007997806	1472007997918		32
6679	74100	He is one of three Eagles who will be held out of the game.	He is one of three Eagles who will be held out of the game.	3523382	1472007998358	1472007998398		8
6679	74100	He is one of three Eagles who will be held out of the game.	He is one of three Eagles who will be held out of the game.	3523387	1472007998446	1472007998495		8
6679	74100	He is one of three Eagles who will be held out of the game.	He is one of three Eagles who will be held out of the game.	3523392	1472007998558	1472007998622		8
6679	74100	He is one of three Eagles who will be held out of the game.	He is one of three Eagles who will be held out of the game.	3523397	1472007998646	1472007998726		8
6679	74100	He is one of three Eagles who will be held out of the game.	He is one of three Eagles who will be held out of the game.	3523417	1472007998766	1472007998886		8
6679	74100	He is one of three Eagles who will be held out of the game.	He is one of three Eagles who will be held out of the game.	3523419	1472007999022	1472007999142		69
6679	74100	He is one of three Eagles who will be held out of the game.	He is one of three Eagles who will be held out of the game.	3523423	1472007999118	1472007999238		32
6679	74100	He is one of three Eagles who will be held out of the game.	He is one of three Eagles who will be held out of the game.	3523428	1472007999294	1472007999414		73
6679	74100	He is one of three Eagles who will be held out of the game.	He is one of three Eagles who will be held out of the game.	3523455	1472007999398	1472007999535		83
6679	74100	He is one of three Eagles who will be held out of the game.	He is one of three Eagles who will be held out of the game.	3523461	1472007999462	1472007999590		32
6679	74100	He is one of three Eagles who will be held out of the game.	He is one of three Eagles who will be held out of the game.	3523466	1472007999598	1472007999758		79
6679	74100	He is one of three Eagles who will be held out of the game.	He is one of three Eagles who will be held out of the game.	3523470	1472007999662	1472007999782		78
6679	74100	He is one of three Eagles who will be held out of the game.	He is one of three Eagles who will be held out of the game.	3523475	1472007999782	1472007999902		69
6679	74100	He is one of three Eagles who will be held out of the game.	He is one of three Eagles who will be held out of the game.	3523503	1472007999854	1472007999958		32
6679	74100	He is one of three Eagles who will be held out of the game.	He is one of three Eagles who will be held out of the game.	3523505	1472008000006	1472008000118		79
6679	74100	He is one of three Eagles who will be held out of the game.	He is one of three Eagles who will be held out of the game.	3523507	1472008000110	1472008000222		70
6679	74100	He is one of three Eagles who will be held out of the game.	He is one of three Eagles who will be held out of the game.	3523511	1472008000198	1472008000294		32
6679	74100	He is one of three Eagles who will be held out of the game.	He is one of three Eagles who will be held out of the game.	3523516	1472008000342	1472008000446		84
6679	74100	He is one of three Eagles who will be held out of the game.	He is one of three Eagles who will be held out of the game.	3523566	1472008000414	1472008000542		72
6679	74100	He is one of three Eagles who will be held out of the game.	He is one of three Eagles who will be held out of the game.	3523568	1472008000550	1472008000630		82
6679	74100	He is one of three Eagles who will be held out of the game.	He is one of three Eagles who will be held out of the game.	3523572	1472008000790	1472008000855		69
6679	74100	He is one of three Eagles who will be held out of the game.	He is one of three Eagles who will be held out of the game.	3523576	1472008000934	1472008001022		69
6679	74100	He is one of three Eagles who will be held out of the game.	He is one of three Eagles who will be held out of the game.	3523580	1472008001038	1472008001174		32
6679	74100	He is one of three Eagles who will be held out of the game.	He is one of three Eagles who will be held out of the game.	3523584	1472008001342	1472008001574	SHIFT	16
6679	74100	He is one of three Eagles who will be held out of the game.	He is one of three Eagles who will be held out of the game.	3523625	1472008001430	1472008001606		69
6679	74100	He is one of three Eagles who will be held out of the game.	He is one of three Eagles who will be held out of the game.	3523627	1472008001579	1472008001766		65
6679	74100	He is one of three Eagles who will be held out of the game.	He is one of three Eagles who will be held out of the game.	3523629	1472008002022	1472008002150		71
6679	74100	He is one of three Eagles who will be held out of the game.	He is one of three Eagles who will be held out of the game.	3523632	1472008002134	1472008002270		76
6679	74100	He is one of three Eagles who will be held out of the game.	He is one of three Eagles who will be held out of the game.	3523635	1472008002230	1472008002382		69
6679	74100	He is one of three Eagles who will be held out of the game.	He is one of three Eagles who will be held out of the game.	3523641	1472008002326	1472008002454		83
6679	74100	He is one of three Eagles who will be held out of the game.	He is one of three Eagles who will be held out of the game.	3523642	1472008002422	1472008002550		32
6679	74100	He is one of three Eagles who will be held out of the game.	He is one of three Eagles who will be held out of the game.	3523643	1472008002566	1472008002702		87
6679	74100	He is one of three Eagles who will be held out of the game.	He is one of three Eagles who will be held out of the game.	3523644	1472008002670	1472008002798		72
6679	74100	He is one of three Eagles who will be held out of the game.	He is one of three Eagles who will be held out of the game.	3523646	1472008002774	1472008002926		79
6679	74100	He is one of three Eagles who will be held out of the game.	He is one of three Eagles who will be held out of the game.	3523681	1472008002918	1472008003025		32
6679	74100	He is one of three Eagles who will be held out of the game.	He is one of three Eagles who will be held out of the game.	3523683	1472008003006	1472008003166		87
6679	74100	He is one of three Eagles who will be held out of the game.	He is one of three Eagles who will be held out of the game.	3523684	1472008003102	1472008003182		73
6679	74100	He is one of three Eagles who will be held out of the game.	He is one of three Eagles who will be held out of the game.	3523685	1472008003278	1472008003326		76
6679	74100	He is one of three Eagles who will be held out of the game.	He is one of three Eagles who will be held out of the game.	3523686	1472008003390	1472008003494		76
6679	74100	He is one of three Eagles who will be held out of the game.	He is one of three Eagles who will be held out of the game.	3523709	1472008003454	1472008003598		32
6679	74100	He is one of three Eagles who will be held out of the game.	He is one of three Eagles who will be held out of the game.	3523713	1472008003614	1472008003718		66
6679	74100	He is one of three Eagles who will be held out of the game.	He is one of three Eagles who will be held out of the game.	3523718	1472008003719	1472008003822		69
6679	74100	He is one of three Eagles who will be held out of the game.	He is one of three Eagles who will be held out of the game.	3523721	1472008003790	1472008003894		32
6679	74100	He is one of three Eagles who will be held out of the game.	He is one of three Eagles who will be held out of the game.	3523726	1472008003958	1472008004078		72
6679	74100	He is one of three Eagles who will be held out of the game.	He is one of three Eagles who will be held out of the game.	3523765	1472008004070	1472008004206		69
6679	74100	He is one of three Eagles who will be held out of the game.	He is one of three Eagles who will be held out of the game.	3523767	1472008004174	1472008004318		76
6679	74100	He is one of three Eagles who will be held out of the game.	He is one of three Eagles who will be held out of the game.	3523770	1472008004326	1472008004430		68
6679	74100	He is one of three Eagles who will be held out of the game.	He is one of three Eagles who will be held out of the game.	3523773	1472008004438	1472008004550		32
6679	74100	He is one of three Eagles who will be held out of the game.	He is one of three Eagles who will be held out of the game.	3523777	1472008004630	1472008004878		79
6679	74100	He is one of three Eagles who will be held out of the game.	He is one of three Eagles who will be held out of the game.	3523786	1472008004790	1472008004902		85
6679	74100	He is one of three Eagles who will be held out of the game.	He is one of three Eagles who will be held out of the game.	3523791	1472008004910	1472008005014		84
6679	74100	He is one of three Eagles who will be held out of the game.	He is one of three Eagles who will be held out of the game.	3523796	1472008004990	1472008005086		32
6679	74100	He is one of three Eagles who will be held out of the game.	He is one of three Eagles who will be held out of the game.	3523802	1472008005158	1472008005286		79
6679	74100	He is one of three Eagles who will be held out of the game.	He is one of three Eagles who will be held out of the game.	3523807	1472008005287	1472008005366		70
6679	74100	He is one of three Eagles who will be held out of the game.	He is one of three Eagles who will be held out of the game.	3523810	1472008005367	1472008005446		32
6679	74100	He is one of three Eagles who will be held out of the game.	He is one of three Eagles who will be held out of the game.	3523831	1472008005470	1472008005590		84
6679	74100	He is one of three Eagles who will be held out of the game.	He is one of three Eagles who will be held out of the game.	3523836	1472008005542	1472008005638		72
6679	74100	He is one of three Eagles who will be held out of the game.	He is one of three Eagles who will be held out of the game.	3523840	1472008005638	1472008005766		69
6679	74100	He is one of three Eagles who will be held out of the game.	He is one of three Eagles who will be held out of the game.	3523844	1472008005718	1472008005822		32
6679	74100	He is one of three Eagles who will be held out of the game.	He is one of three Eagles who will be held out of the game.	3523849	1472008005846	1472008005958		71
6679	74100	He is one of three Eagles who will be held out of the game.	He is one of three Eagles who will be held out of the game.	3523897	1472008005942	1472008006126		65
6679	74100	He is one of three Eagles who will be held out of the game.	He is one of three Eagles who will be held out of the game.	3523898	1472008006006	1472008006126		77
6679	74100	He is one of three Eagles who will be held out of the game.	He is one of three Eagles who will be held out of the game.	3523899	1472008006127	1472008006270		69
6679	74100	He is one of three Eagles who will be held out of the game.	He is one of three Eagles who will be held out of the game.	3523900	1472008006230	1472008006358		190
6679	74114	Thanks so much for the message.	Thanks so much for the message.	3524003	1472008008686	1472008008902	SHIFT	16
6679	74114	Thanks so much for the message.	Thanks so much for the message.	3524005	1472008008822	1472008008966		84
6679	74114	Thanks so much for the message.	Thanks so much for the message.	3524008	1472008008926	1472008009022		72
6679	74114	Thanks so much for the message.	Thanks so much for the message.	3524010	1472008009023	1472008009198		65
6679	74114	Thanks so much for the message.	Thanks so much for the message.	3524016	1472008009110	1472008009262		78
6679	74114	Thanks so much for the message.	Thanks so much for the message.	3524067	1472008009222	1472008009350		75
6679	74114	Thanks so much for the message.	Thanks so much for the message.	3524071	1472008009342	1472008009478		83
6679	74114	Thanks so much for the message.	Thanks so much for the message.	3524074	1472008009446	1472008009582		32
6679	74114	Thanks so much for the message.	Thanks so much for the message.	3524076	1472008009814	1472008009966		83
6679	74114	Thanks so much for the message.	Thanks so much for the message.	3524078	1472008009886	1472008010038		79
6679	74114	Thanks so much for the message.	Thanks so much for the message.	3524147	1472008009990	1472008010134		32
6679	74114	Thanks so much for the message.	Thanks so much for the message.	3524151	1472008010118	1472008010238		77
6679	74114	Thanks so much for the message.	Thanks so much for the message.	3524155	1472008010326	1472008010462		85
6679	74114	Thanks so much for the message.	Thanks so much for the message.	3524159	1472008010814	1472008010958		67
6679	74114	Thanks so much for the message.	Thanks so much for the message.	3524163	1472008010959	1472008011086		72
6679	74114	Thanks so much for the message.	Thanks so much for the message.	3524198	1472008011046	1472008011182		32
6679	74114	Thanks so much for the message.	Thanks so much for the message.	3524202	1472008011398	1472008011502		70
6679	74114	Thanks so much for the message.	Thanks so much for the message.	3524208	1472008011478	1472008011598		79
6679	74114	Thanks so much for the message.	Thanks so much for the message.	3524215	1472008011654	1472008011750		82
6679	74114	Thanks so much for the message.	Thanks so much for the message.	3524225	1472008011766	1472008011862		32
6679	74114	Thanks so much for the message.	Thanks so much for the message.	3524233	1472008011862	1472008011982		84
6679	74114	Thanks so much for the message.	Thanks so much for the message.	3524266	1472008011958	1472008012046		72
6679	74114	Thanks so much for the message.	Thanks so much for the message.	3524268	1472008012030	1472008012182		69
6679	74114	Thanks so much for the message.	Thanks so much for the message.	3524270	1472008012110	1472008012222		32
6679	74114	Thanks so much for the message.	Thanks so much for the message.	3524272	1472008012326	1472008012462		77
6679	74114	Thanks so much for the message.	Thanks so much for the message.	3524274	1472008012414	1472008012570		69
6679	74114	Thanks so much for the message.	Thanks so much for the message.	3524276	1472008012598	1472008012678		83
6679	74114	Thanks so much for the message.	Thanks so much for the message.	3524329	1472008012766	1472008012966		65
6679	74114	Thanks so much for the message.	Thanks so much for the message.	3524332	1472008013190	1472008013270		8
6679	74114	Thanks so much for the message.	Thanks so much for the message.	3524338	1472008013454	1472008013622		83
6679	74114	Thanks so much for the message.	Thanks so much for the message.	3524343	1472008013574	1472008013798		65
6679	74114	Thanks so much for the message.	Thanks so much for the message.	3524369	1472008013726	1472008013830		71
6679	74114	Thanks so much for the message.	Thanks so much for the message.	3524376	1472008013830	1472008013998		69
6679	74114	Thanks so much for the message.	Thanks so much for the message.	3524386	1472008013902	1472008014086		190
6679	74122	Foreign insurance firms can file applications to the ministry.	Foreign insurance firms can file applications to the ministry.	3524494	1472008015838	1472008016030	SHIFT	16
6679	74122	Foreign insurance firms can file applications to the ministry.	Foreign insurance firms can file applications to the ministry.	3524499	1472008015966	1472008016126		70
6679	74122	Foreign insurance firms can file applications to the ministry.	Foreign insurance firms can file applications to the ministry.	3524504	1472008016142	1472008016270		79
6679	74122	Foreign insurance firms can file applications to the ministry.	Foreign insurance firms can file applications to the ministry.	3524507	1472008016230	1472008016342		82
6679	74122	Foreign insurance firms can file applications to the ministry.	Foreign insurance firms can file applications to the ministry.	3524509	1472008016438	1472008016622		69
6679	74122	Foreign insurance firms can file applications to the ministry.	Foreign insurance firms can file applications to the ministry.	3524526	1472008016550	1472008016686		73
6679	74122	Foreign insurance firms can file applications to the ministry.	Foreign insurance firms can file applications to the ministry.	3524528	1472008016694	1472008016838		71
6679	74122	Foreign insurance firms can file applications to the ministry.	Foreign insurance firms can file applications to the ministry.	3524530	1472008016782	1472008016926		78
6679	74122	Foreign insurance firms can file applications to the ministry.	Foreign insurance firms can file applications to the ministry.	3524532	1472008016862	1472008017006		32
6679	74122	Foreign insurance firms can file applications to the ministry.	Foreign insurance firms can file applications to the ministry.	3524535	1472008017102	1472008017246		73
6679	74122	Foreign insurance firms can file applications to the ministry.	Foreign insurance firms can file applications to the ministry.	3524554	1472008017182	1472008017334		78
6679	74122	Foreign insurance firms can file applications to the ministry.	Foreign insurance firms can file applications to the ministry.	3524561	1472008017486	1472008017710		83
6679	74122	Foreign insurance firms can file applications to the ministry.	Foreign insurance firms can file applications to the ministry.	3524557	1472008017566	1472008017694		85
6679	74122	Foreign insurance firms can file applications to the ministry.	Foreign insurance firms can file applications to the ministry.	3524566	1472008017662	1472008017822		82
6679	74122	Foreign insurance firms can file applications to the ministry.	Foreign insurance firms can file applications to the ministry.	3524625	1472008017870	1472008018118		65
6679	74122	Foreign insurance firms can file applications to the ministry.	Foreign insurance firms can file applications to the ministry.	3524571	1472008017990	1472008018102		78
6679	74122	Foreign insurance firms can file applications to the ministry.	Foreign insurance firms can file applications to the ministry.	3524628	1472008018246	1472008018398		67
6679	74122	Foreign insurance firms can file applications to the ministry.	Foreign insurance firms can file applications to the ministry.	3524634	1472008018374	1472008018502		69
6679	74122	Foreign insurance firms can file applications to the ministry.	Foreign insurance firms can file applications to the ministry.	3524637	1472008018526	1472008018678		32
6679	74122	Foreign insurance firms can file applications to the ministry.	Foreign insurance firms can file applications to the ministry.	3524641	1472008019158	1472008019262		70
6679	74122	Foreign insurance firms can file applications to the ministry.	Foreign insurance firms can file applications to the ministry.	3524676	1472008019241	1472008019374		73
6679	74122	Foreign insurance firms can file applications to the ministry.	Foreign insurance firms can file applications to the ministry.	3524679	1472008019350	1472008019534		82
6679	74122	Foreign insurance firms can file applications to the ministry.	Foreign insurance firms can file applications to the ministry.	3524685	1472008019494	1472008019638		77
6679	74122	Foreign insurance firms can file applications to the ministry.	Foreign insurance firms can file applications to the ministry.	3524688	1472008019590	1472008019758		83
6679	74122	Foreign insurance firms can file applications to the ministry.	Foreign insurance firms can file applications to the ministry.	3524692	1472008019718	1472008019846		32
6679	74122	Foreign insurance firms can file applications to the ministry.	Foreign insurance firms can file applications to the ministry.	3524696	1472008020206	1472008020390		67
6679	74122	Foreign insurance firms can file applications to the ministry.	Foreign insurance firms can file applications to the ministry.	3524727	1472008020398	1472008020566		65
6679	74122	Foreign insurance firms can file applications to the ministry.	Foreign insurance firms can file applications to the ministry.	3524731	1472008020550	1472008020710		78
6679	74122	Foreign insurance firms can file applications to the ministry.	Foreign insurance firms can file applications to the ministry.	3524733	1472008020662	1472008020822		32
6679	74122	Foreign insurance firms can file applications to the ministry.	Foreign insurance firms can file applications to the ministry.	3524735	1472008020918	1472008021070		70
6679	74122	Foreign insurance firms can file applications to the ministry.	Foreign insurance firms can file applications to the ministry.	3524761	1472008020998	1472008021086		73
6679	74122	Foreign insurance firms can file applications to the ministry.	Foreign insurance firms can file applications to the ministry.	3524765	1472008021158	1472008021302		76
6679	74122	Foreign insurance firms can file applications to the ministry.	Foreign insurance firms can file applications to the ministry.	3524772	1472008021270	1472008021430		69
6679	74122	Foreign insurance firms can file applications to the ministry.	Foreign insurance firms can file applications to the ministry.	3524776	1472008021382	1472008021510		32
6679	74122	Foreign insurance firms can file applications to the ministry.	Foreign insurance firms can file applications to the ministry.	3524779	1472008021470	1472008021626		65
6679	74122	Foreign insurance firms can file applications to the ministry.	Foreign insurance firms can file applications to the ministry.	3524850	1472008021606	1472008021638		80
6679	74122	Foreign insurance firms can file applications to the ministry.	Foreign insurance firms can file applications to the ministry.	3524852	1472008021726	1472008021830		80
6679	74122	Foreign insurance firms can file applications to the ministry.	Foreign insurance firms can file applications to the ministry.	3524858	1472008021982	1472008022230		76
6679	74122	Foreign insurance firms can file applications to the ministry.	Foreign insurance firms can file applications to the ministry.	3524863	1472008022126	1472008022246		73
6679	74122	Foreign insurance firms can file applications to the ministry.	Foreign insurance firms can file applications to the ministry.	3524868	1472008022950	1472008023110		67
6679	74122	Foreign insurance firms can file applications to the ministry.	Foreign insurance firms can file applications to the ministry.	3524874	1472008023118	1472008023294		65
6679	74122	Foreign insurance firms can file applications to the ministry.	Foreign insurance firms can file applications to the ministry.	3524886	1472008023374	1472008023518		84
6679	74122	Foreign insurance firms can file applications to the ministry.	Foreign insurance firms can file applications to the ministry.	3524888	1472008023462	1472008023638		73
6679	74122	Foreign insurance firms can file applications to the ministry.	Foreign insurance firms can file applications to the ministry.	3524891	1472008023526	1472008023718		79
6679	74122	Foreign insurance firms can file applications to the ministry.	Foreign insurance firms can file applications to the ministry.	3524894	1472008023638	1472008023776		78
6679	74122	Foreign insurance firms can file applications to the ministry.	Foreign insurance firms can file applications to the ministry.	3524916	1472008023758	1472008023910		83
6679	74122	Foreign insurance firms can file applications to the ministry.	Foreign insurance firms can file applications to the ministry.	3524914	1472008023779	1472008023878		32
6679	74122	Foreign insurance firms can file applications to the ministry.	Foreign insurance firms can file applications to the ministry.	3524919	1472008024118	1472008024214		84
6679	74122	Foreign insurance firms can file applications to the ministry.	Foreign insurance firms can file applications to the ministry.	3524923	1472008024174	1472008024310		79
6679	74122	Foreign insurance firms can file applications to the ministry.	Foreign insurance firms can file applications to the ministry.	3524926	1472008024270	1472008024382		32
6679	74122	Foreign insurance firms can file applications to the ministry.	Foreign insurance firms can file applications to the ministry.	3524936	1472008024326	1472008024438		84
6679	74122	Foreign insurance firms can file applications to the ministry.	Foreign insurance firms can file applications to the ministry.	3524937	1472008024438	1472008024542		72
6679	74122	Foreign insurance firms can file applications to the ministry.	Foreign insurance firms can file applications to the ministry.	3524938	1472008024478	1472008024609		69
6679	74122	Foreign insurance firms can file applications to the ministry.	Foreign insurance firms can file applications to the ministry.	3524939	1472008024590	1472008024718		32
6679	74122	Foreign insurance firms can file applications to the ministry.	Foreign insurance firms can file applications to the ministry.	3524941	1472008024774	1472008024926		73
6679	74122	Foreign insurance firms can file applications to the ministry.	Foreign insurance firms can file applications to the ministry.	3524991	1472008024870	1472008025030		77
6679	74122	Foreign insurance firms can file applications to the ministry.	Foreign insurance firms can file applications to the ministry.	3524994	1472008025214	1472008025270		8
6679	74122	Foreign insurance firms can file applications to the ministry.	Foreign insurance firms can file applications to the ministry.	3525000	1472008025326	1472008025406		8
6679	74122	Foreign insurance firms can file applications to the ministry.	Foreign insurance firms can file applications to the ministry.	3525007	1472008025550	1472008025678		77
6679	74122	Foreign insurance firms can file applications to the ministry.	Foreign insurance firms can file applications to the ministry.	3525010	1472008025678	1472008025830		73
6679	74122	Foreign insurance firms can file applications to the ministry.	Foreign insurance firms can file applications to the ministry.	3525051	1472008025814	1472008025934		78
6679	74122	Foreign insurance firms can file applications to the ministry.	Foreign insurance firms can file applications to the ministry.	3525053	1472008026046	1472008026142		73
6679	74122	Foreign insurance firms can file applications to the ministry.	Foreign insurance firms can file applications to the ministry.	3525055	1472008026134	1472008026302		83
6679	74122	Foreign insurance firms can file applications to the ministry.	Foreign insurance firms can file applications to the ministry.	3525057	1472008026342	1472008026454		84
6679	74122	Foreign insurance firms can file applications to the ministry.	Foreign insurance firms can file applications to the ministry.	3525060	1472008026542	1472008026662		89
6679	74122	Foreign insurance firms can file applications to the ministry.	Foreign insurance firms can file applications to the ministry.	3525088	1472008027134	1472008027182		8
6679	74122	Foreign insurance firms can file applications to the ministry.	Foreign insurance firms can file applications to the ministry.	3525089	1472008027222	1472008027286		8
6679	74122	Foreign insurance firms can file applications to the ministry.	Foreign insurance firms can file applications to the ministry.	3525090	1472008027326	1472008027486		82
6679	74122	Foreign insurance firms can file applications to the ministry.	Foreign insurance firms can file applications to the ministry.	3525189	1472008027462	1472008027542		89
6679	74122	Foreign insurance firms can file applications to the ministry.	Foreign insurance firms can file applications to the ministry.	3525195	1472008028022	1472008028070		8
6679	74122	Foreign insurance firms can file applications to the ministry.	Foreign insurance firms can file applications to the ministry.	3525203	1472008028270	1472008028350		190
6679	74122	Foreign insurance firms can file applications to the ministry.	Foreign insurance firms can file applications to the ministry.	3525210	1472008028734	1472008028798		8
6679	74140	San Francisco was Interconnect meeting.	San Francisco was Interconnect meeting.	3525327	1472008030814	1472008031054	SHIFT	16
6679	74140	San Francisco was Interconnect meeting.	San Francisco was Interconnect meeting.	3525331	1472008030974	1472008031158		83
6679	74140	San Francisco was Interconnect meeting.	San Francisco was Interconnect meeting.	3525336	1472008031158	1472008031326		65
6679	74140	San Francisco was Interconnect meeting.	San Francisco was Interconnect meeting.	3525342	1472008031278	1472008031382		78
6679	74140	San Francisco was Interconnect meeting.	San Francisco was Interconnect meeting.	3525347	1472008031342	1472008031494		32
6679	74140	San Francisco was Interconnect meeting.	San Francisco was Interconnect meeting.	3525386	1472008031750	1472008031950	SHIFT	16
6679	74140	San Francisco was Interconnect meeting.	San Francisco was Interconnect meeting.	3525351	1472008031846	1472008031942		70
6679	74140	San Francisco was Interconnect meeting.	San Francisco was Interconnect meeting.	3525389	1472008032038	1472008032158		82
6679	74140	San Francisco was Interconnect meeting.	San Francisco was Interconnect meeting.	3525393	1472008032118	1472008032286		65
6679	74140	San Francisco was Interconnect meeting.	San Francisco was Interconnect meeting.	3525395	1472008032206	1472008032334		78
6679	74140	San Francisco was Interconnect meeting.	San Francisco was Interconnect meeting.	3525398	1472008032766	1472008032910		67
6679	74140	San Francisco was Interconnect meeting.	San Francisco was Interconnect meeting.	3525497	1472008032894	1472008033047		73
6679	74140	San Francisco was Interconnect meeting.	San Francisco was Interconnect meeting.	3525500	1472008033086	1472008033278		83
6679	74140	San Francisco was Interconnect meeting.	San Francisco was Interconnect meeting.	3525505	1472008034214	1472008034342		67
6679	74140	San Francisco was Interconnect meeting.	San Francisco was Interconnect meeting.	3525509	1472008034614	1472008034774		79
6679	74140	San Francisco was Interconnect meeting.	San Francisco was Interconnect meeting.	3525513	1472008034750	1472008034894		32
6679	74140	San Francisco was Interconnect meeting.	San Francisco was Interconnect meeting.	3525518	1472008034942	1472008035078		87
6679	74140	San Francisco was Interconnect meeting.	San Francisco was Interconnect meeting.	3525566	1472008035062	1472008035246		65
6679	74140	San Francisco was Interconnect meeting.	San Francisco was Interconnect meeting.	3525572	1472008035158	1472008035302		83
6679	74140	San Francisco was Interconnect meeting.	San Francisco was Interconnect meeting.	3525578	1472008035254	1472008035398		32
6679	74140	San Francisco was Interconnect meeting.	San Francisco was Interconnect meeting.	3525581	1472008035470	1472008035718	SHIFT	16
6679	74140	San Francisco was Interconnect meeting.	San Francisco was Interconnect meeting.	3525584	1472008035606	1472008035798		73
6679	74140	San Francisco was Interconnect meeting.	San Francisco was Interconnect meeting.	3525586	1472008035774	1472008035870		78
6679	74140	San Francisco was Interconnect meeting.	San Francisco was Interconnect meeting.	3525588	1472008036030	1472008036142		84
6679	74140	San Francisco was Interconnect meeting.	San Francisco was Interconnect meeting.	3525668	1472008036158	1472008036366		69
6679	74140	San Francisco was Interconnect meeting.	San Francisco was Interconnect meeting.	3525670	1472008036254	1472008036367		82
6679	74140	San Francisco was Interconnect meeting.	San Francisco was Interconnect meeting.	3525673	1472008036862	1472008036974		67
6679	74140	San Francisco was Interconnect meeting.	San Francisco was Interconnect meeting.	3525677	1472008037134	1472008037286		69
6679	74140	San Francisco was Interconnect meeting.	San Francisco was Interconnect meeting.	3525683	1472008037422	1472008037478		78
6679	74140	San Francisco was Interconnect meeting.	San Francisco was Interconnect meeting.	3525741	1472008037550	1472008037646		78
6679	74140	San Francisco was Interconnect meeting.	San Francisco was Interconnect meeting.	3525744	1472008038206	1472008038263		8
6679	74140	San Francisco was Interconnect meeting.	San Francisco was Interconnect meeting.	3525752	1472008038326	1472008038358		8
6679	74140	San Francisco was Interconnect meeting.	San Francisco was Interconnect meeting.	3525761	1472008038423	1472008038494		8
6679	74140	San Francisco was Interconnect meeting.	San Francisco was Interconnect meeting.	3525768	1472008038726	1472008038862		79
6679	74140	San Francisco was Interconnect meeting.	San Francisco was Interconnect meeting.	3525846	1472008039150	1472008039190		78
6679	74140	San Francisco was Interconnect meeting.	San Francisco was Interconnect meeting.	3525847	1472008039270	1472008039342		78
6679	74140	San Francisco was Interconnect meeting.	San Francisco was Interconnect meeting.	3525848	1472008039742	1472008039846		69
6679	74140	San Francisco was Interconnect meeting.	San Francisco was Interconnect meeting.	3525849	1472008039982	1472008040126		88
6679	74140	San Francisco was Interconnect meeting.	San Francisco was Interconnect meeting.	3525851	1472008040262	1472008040398		84
6679	74140	San Francisco was Interconnect meeting.	San Francisco was Interconnect meeting.	3525897	1472008040598	1472008040638		8
6679	74140	San Francisco was Interconnect meeting.	San Francisco was Interconnect meeting.	3525900	1472008040694	1472008040798		8
6679	74140	San Francisco was Interconnect meeting.	San Francisco was Interconnect meeting.	3525906	1472008040814	1472008040950		67
6679	74140	San Francisco was Interconnect meeting.	San Francisco was Interconnect meeting.	3525911	1472008041086	1472008041206		84
6679	74140	San Francisco was Interconnect meeting.	San Francisco was Interconnect meeting.	3525921	1472008041342	1472008041470		32
6679	74140	San Francisco was Interconnect meeting.	San Francisco was Interconnect meeting.	3525953	1472008041558	1472008041702		77
6679	74140	San Francisco was Interconnect meeting.	San Francisco was Interconnect meeting.	3525955	1472008041654	1472008041829		69
6679	74140	San Francisco was Interconnect meeting.	San Francisco was Interconnect meeting.	3525958	1472008041806	1472008041862		84
6679	74140	San Francisco was Interconnect meeting.	San Francisco was Interconnect meeting.	3525959	1472008041927	1472008042030		84
6679	74140	San Francisco was Interconnect meeting.	San Francisco was Interconnect meeting.	3525960	1472008042054	1472008042182		73
6679	74140	San Francisco was Interconnect meeting.	San Francisco was Interconnect meeting.	3525998	1472008042134	1472008042230		78
6679	74140	San Francisco was Interconnect meeting.	San Francisco was Interconnect meeting.	3526005	1472008042230	1472008042343		71
6679	74140	San Francisco was Interconnect meeting.	San Francisco was Interconnect meeting.	3526012	1472008042326	1472008042478		190
6679	74140	San Francisco was Interconnect meeting.	San Francisco was Interconnect meeting.	3526019	1472008042758	1472008042806		8
6679	74140	San Francisco was Interconnect meeting.	San Francisco was Interconnect meeting.	3526024	1472008042822	1472008042910		8
6679	74140	San Francisco was Interconnect meeting.	San Francisco was Interconnect meeting.	3526027	1472008042934	1472008043014		8
6679	74140	San Francisco was Interconnect meeting.	San Francisco was Interconnect meeting.	3526117	1472008043078	1472008043126		8
6679	74140	San Francisco was Interconnect meeting.	San Francisco was Interconnect meeting.	3526123	1472008043198	1472008043254		8
6679	74140	San Francisco was Interconnect meeting.	San Francisco was Interconnect meeting.	3526127	1472008043318	1472008043398		8
6679	74140	San Francisco was Interconnect meeting.	San Francisco was Interconnect meeting.	3526131	1472008043534	1472008043726		69
6679	74140	San Francisco was Interconnect meeting.	San Francisco was Interconnect meeting.	3526136	1472008044350	1472008044494		84
6679	74140	San Francisco was Interconnect meeting.	San Francisco was Interconnect meeting.	3526181	1472008044734	1472008044886		73
6679	74140	San Francisco was Interconnect meeting.	San Francisco was Interconnect meeting.	3526189	1472008044814	1472008044934		78
6679	74140	San Francisco was Interconnect meeting.	San Francisco was Interconnect meeting.	3526196	1472008044935	1472008045006		71
6679	74140	San Francisco was Interconnect meeting.	San Francisco was Interconnect meeting.	3526201	1472008045046	1472008045206		190
6679	74156	He said police in Dallas were also in favor of fences.	HE said police in Dallas were also in favor of fences.	3526343	1472008047438	1472008047862	SHIFT	16
6679	74156	He said police in Dallas were also in favor of fences.	HE said police in Dallas were also in favor of fences.	3526341	1472008047678	1472008047838		72
6679	74156	He said police in Dallas were also in favor of fences.	HE said police in Dallas were also in favor of fences.	3526349	1472008047830	1472008048006		69
6679	74156	He said police in Dallas were also in favor of fences.	HE said police in Dallas were also in favor of fences.	3526355	1472008047950	1472008048086		32
6679	74156	He said police in Dallas were also in favor of fences.	HE said police in Dallas were also in favor of fences.	3526357	1472008048214	1472008048390		83
6679	74156	He said police in Dallas were also in favor of fences.	HE said police in Dallas were also in favor of fences.	3526397	1472008048326	1472008048550		65
6679	74156	He said police in Dallas were also in favor of fences.	HE said police in Dallas were also in favor of fences.	3526393	1472008048398	1472008048518		73
6679	74156	He said police in Dallas were also in favor of fences.	HE said police in Dallas were also in favor of fences.	3526399	1472008048486	1472008048627		68
6679	74156	He said police in Dallas were also in favor of fences.	HE said police in Dallas were also in favor of fences.	3526401	1472008048606	1472008048710		32
6679	74156	He said police in Dallas were also in favor of fences.	HE said police in Dallas were also in favor of fences.	3526405	1472008048870	1472008049126		80
6679	74156	He said police in Dallas were also in favor of fences.	HE said police in Dallas were also in favor of fences.	3526469	1472008049046	1472008049134		79
6679	74156	He said police in Dallas were also in favor of fences.	HE said police in Dallas were also in favor of fences.	3526471	1472008049334	1472008049542		76
6679	74156	He said police in Dallas were also in favor of fences.	HE said police in Dallas were also in favor of fences.	3526474	1472008049430	1472008049550		73
6679	74156	He said police in Dallas were also in favor of fences.	HE said police in Dallas were also in favor of fences.	3526479	1472008049854	1472008049966		67
6679	74156	He said police in Dallas were also in favor of fences.	HE said police in Dallas were also in favor of fences.	3526484	1472008050078	1472008050198		69
6679	74156	He said police in Dallas were also in favor of fences.	HE said police in Dallas were also in favor of fences.	3526488	1472008050199	1472008050318		32
6679	74156	He said police in Dallas were also in favor of fences.	HE said police in Dallas were also in favor of fences.	3526495	1472008050350	1472008050486		73
6679	74156	He said police in Dallas were also in favor of fences.	HE said police in Dallas were also in favor of fences.	3526496	1472008050454	1472008050558		78
6679	74156	He said police in Dallas were also in favor of fences.	HE said police in Dallas were also in favor of fences.	3526497	1472008050502	1472008050622		32
6679	74156	He said police in Dallas were also in favor of fences.	HE said police in Dallas were also in favor of fences.	3526498	1472008050678	1472008050886	SHIFT	16
6679	74156	He said police in Dallas were also in favor of fences.	HE said police in Dallas were also in favor of fences.	3526499	1472008050774	1472008050926		68
6679	74156	He said police in Dallas were also in favor of fences.	HE said police in Dallas were also in favor of fences.	3526549	1472008050894	1472008051054		65
6679	74156	He said police in Dallas were also in favor of fences.	HE said police in Dallas were also in favor of fences.	3526554	1472008051038	1472008051097		76
6679	74156	He said police in Dallas were also in favor of fences.	HE said police in Dallas were also in favor of fences.	3526560	1472008051166	1472008051294		76
6679	74156	He said police in Dallas were also in favor of fences.	HE said police in Dallas were also in favor of fences.	3526566	1472008051318	1472008051534		65
6679	74156	He said police in Dallas were also in favor of fences.	HE said police in Dallas were also in favor of fences.	3526570	1472008051446	1472008051590		83
6679	74156	He said police in Dallas were also in favor of fences.	HE said police in Dallas were also in favor of fences.	3526584	1472008051558	1472008051702		32
6679	74156	He said police in Dallas were also in favor of fences.	HE said police in Dallas were also in favor of fences.	3526587	1472008051718	1472008051958		87
6679	74156	He said police in Dallas were also in favor of fences.	HE said police in Dallas were also in favor of fences.	3526590	1472008051894	1472008052038		69
6679	74156	He said police in Dallas were also in favor of fences.	HE said police in Dallas were also in favor of fences.	3526596	1472008052022	1472008052166		82
6679	74156	He said police in Dallas were also in favor of fences.	HE said police in Dallas were also in favor of fences.	3526600	1472008052150	1472008052294		69
6679	74156	He said police in Dallas were also in favor of fences.	HE said police in Dallas were also in favor of fences.	3526610	1472008052262	1472008052398		32
6679	74156	He said police in Dallas were also in favor of fences.	HE said police in Dallas were also in favor of fences.	3526612	1472008052414	1472008052558		65
6679	74156	He said police in Dallas were also in favor of fences.	HE said police in Dallas were also in favor of fences.	3526614	1472008052502	1472008052590		76
6679	74156	He said police in Dallas were also in favor of fences.	HE said police in Dallas were also in favor of fences.	3526616	1472008052630	1472008052782		83
6679	74156	He said police in Dallas were also in favor of fences.	HE said police in Dallas were also in favor of fences.	3526621	1472008052718	1472008052846		79
6679	74156	He said police in Dallas were also in favor of fences.	HE said police in Dallas were also in favor of fences.	3526665	1472008052822	1472008052974		32
6679	74156	He said police in Dallas were also in favor of fences.	HE said police in Dallas were also in favor of fences.	3526669	1472008053014	1472008053142		73
6679	74156	He said police in Dallas were also in favor of fences.	HE said police in Dallas were also in favor of fences.	3526673	1472008053110	1472008053254		78
6679	74156	He said police in Dallas were also in favor of fences.	HE said police in Dallas were also in favor of fences.	3526678	1472008053190	1472008053326		32
6679	74156	He said police in Dallas were also in favor of fences.	HE said police in Dallas were also in favor of fences.	3526683	1472008053550	1472008053710		70
6679	74156	He said police in Dallas were also in favor of fences.	HE said police in Dallas were also in favor of fences.	3526746	1472008053686	1472008053830		65
6679	74156	He said police in Dallas were also in favor of fences.	HE said police in Dallas were also in favor of fences.	3526750	1472008053974	1472008054118		86
6679	74156	He said police in Dallas were also in favor of fences.	HE said police in Dallas were also in favor of fences.	3526755	1472008054246	1472008054376		79
6679	74156	He said police in Dallas were also in favor of fences.	HE said police in Dallas were also in favor of fences.	3526762	1472008054358	1472008054502		82
6679	74156	He said police in Dallas were also in favor of fences.	HE said police in Dallas were also in favor of fences.	3526767	1472008054486	1472008054606		32
6679	74156	He said police in Dallas were also in favor of fences.	HE said police in Dallas were also in favor of fences.	3526771	1472008054670	1472008054782		79
6679	74156	He said police in Dallas were also in favor of fences.	HE said police in Dallas were also in favor of fences.	3526834	1472008054786	1472008054886		70
6679	74156	He said police in Dallas were also in favor of fences.	HE said police in Dallas were also in favor of fences.	3526837	1472008055038	1472008055174		32
6679	74156	He said police in Dallas were also in favor of fences.	HE said police in Dallas were also in favor of fences.	3526840	1472008055966	1472008056182		70
6679	74156	He said police in Dallas were also in favor of fences.	HE said police in Dallas were also in favor of fences.	3526844	1472008056110	1472008056286		69
6679	74156	He said police in Dallas were also in favor of fences.	HE said police in Dallas were also in favor of fences.	3526915	1472008056222	1472008056390		78
6679	74156	He said police in Dallas were also in favor of fences.	HE said police in Dallas were also in favor of fences.	3526917	1472008056894	1472008057006		67
6679	74156	He said police in Dallas were also in favor of fences.	HE said police in Dallas were also in favor of fences.	3526919	1472008057206	1472008057350		69
6679	74156	He said police in Dallas were also in favor of fences.	HE said police in Dallas were also in favor of fences.	3526921	1472008057302	1472008057502		83
6679	74156	He said police in Dallas were also in favor of fences.	HE said police in Dallas were also in favor of fences.	3526922	1472008057430	1472008057622		190
6679	74173	Please call me if you have any questions.	Please call me if you have any questions.	3527141	1472008059750	1472008060270	SHIFT	16
6679	74173	Please call me if you have any questions.	Please call me if you have any questions.	3527135	1472008059958	1472008060222		80
6679	74173	Please call me if you have any questions.	Please call me if you have any questions.	3527138	1472008060142	1472008060262		76
6679	74173	Please call me if you have any questions.	Please call me if you have any questions.	3527144	1472008060950	1472008061006		8
6679	74173	Please call me if you have any questions.	Please call me if you have any questions.	3527148	1472008061190	1472008061302		76
6679	74173	Please call me if you have any questions.	Please call me if you have any questions.	3527151	1472008061502	1472008061655		69
6679	74173	Please call me if you have any questions.	Please call me if you have any questions.	3527195	1472008061623	1472008061822		65
6679	74173	Please call me if you have any questions.	Please call me if you have any questions.	3527198	1472008061766	1472008061934		83
6679	74173	Please call me if you have any questions.	Please call me if you have any questions.	3527204	1472008061870	1472008062014		69
6679	74173	Please call me if you have any questions.	Please call me if you have any questions.	3527210	1472008061974	1472008062126		32
6679	74173	Please call me if you have any questions.	Please call me if you have any questions.	3527215	1472008062406	1472008062526		67
6679	74173	Please call me if you have any questions.	Please call me if you have any questions.	3527218	1472008062662	1472008062830		65
6679	74173	Please call me if you have any questions.	Please call me if you have any questions.	3527239	1472008062846	1472008062903		76
6679	74173	Please call me if you have any questions.	Please call me if you have any questions.	3527242	1472008062982	1472008063110		76
6679	74173	Please call me if you have any questions.	Please call me if you have any questions.	3527246	1472008063038	1472008063190		32
6679	74173	Please call me if you have any questions.	Please call me if you have any questions.	3527252	1472008063206	1472008063334		77
6679	74173	Please call me if you have any questions.	Please call me if you have any questions.	3527257	1472008063334	1472008063478		69
6679	74173	Please call me if you have any questions.	Please call me if you have any questions.	3527277	1472008063390	1472008063502		32
6679	74173	Please call me if you have any questions.	Please call me if you have any questions.	3527278	1472008063534	1472008063646		73
6679	74173	Please call me if you have any questions.	Please call me if you have any questions.	3527280	1472008063662	1472008063782		70
6679	74173	Please call me if you have any questions.	Please call me if you have any questions.	3527284	1472008063726	1472008063838		32
6679	74173	Please call me if you have any questions.	Please call me if you have any questions.	3527287	1472008063926	1472008064054		89
6679	74173	Please call me if you have any questions.	Please call me if you have any questions.	3527330	1472008064030	1472008064214		79
6679	74173	Please call me if you have any questions.	Please call me if you have any questions.	3527333	1472008064126	1472008064246		85
6679	74173	Please call me if you have any questions.	Please call me if you have any questions.	3527335	1472008064198	1472008064310		32
6679	74173	Please call me if you have any questions.	Please call me if you have any questions.	3527338	1472008064358	1472008064470		72
6679	74173	Please call me if you have any questions.	Please call me if you have any questions.	3527340	1472008064486	1472008064694		65
6679	74173	Please call me if you have any questions.	Please call me if you have any questions.	3527359	1472008064582	1472008064718		86
6679	74173	Please call me if you have any questions.	Please call me if you have any questions.	3527360	1472008064699	1472008064846		69
6679	74173	Please call me if you have any questions.	Please call me if you have any questions.	3527363	1472008064790	1472008064870		32
6679	74173	Please call me if you have any questions.	Please call me if you have any questions.	3527369	1472008064982	1472008065134		65
6679	74173	Please call me if you have any questions.	Please call me if you have any questions.	3527373	1472008065022	1472008065135		78
6679	74173	Please call me if you have any questions.	Please call me if you have any questions.	3527378	1472008065158	1472008065262		89
6679	74173	Please call me if you have any questions.	Please call me if you have any questions.	3527415	1472008065270	1472008065382		32
6679	74173	Please call me if you have any questions.	Please call me if you have any questions.	3527417	1472008065694	1472008065830		81
6679	74173	Please call me if you have any questions.	Please call me if you have any questions.	3527421	1472008065926	1472008066062		85
6679	74173	Please call me if you have any questions.	Please call me if you have any questions.	3527424	1472008066063	1472008066206		69
6679	74173	Please call me if you have any questions.	Please call me if you have any questions.	3527440	1472008066158	1472008066374		83
6679	74173	Please call me if you have any questions.	Please call me if you have any questions.	3527444	1472008066294	1472008066438		84
6679	74173	Please call me if you have any questions.	Please call me if you have any questions.	3527448	1472008066375	1472008066486		73
6679	74173	Please call me if you have any questions.	Please call me if you have any questions.	3527451	1472008066446	1472008066622		79
6679	74173	Please call me if you have any questions.	Please call me if you have any questions.	3527462	1472008066526	1472008066632		78
6679	74173	Please call me if you have any questions.	Please call me if you have any questions.	3527467	1472008066606	1472008066742		83
6679	74173	Please call me if you have any questions.	Please call me if you have any questions.	3527475	1472008066798	1472008066934		190
