PARTICIPANT_ID	TEST_SECTION_ID	SENTENCE	USER_INPUT	KEYSTROKE_ID	PRESS_TIME	RELEASE_TIME	LETTER	KEYCODE
6684	71887	And if he's not, then he doesn't play.	And if hes not, then he doesn't play.	3418347	1472005585739	1472005586226	SHIFT	16
6684	71887	And if he's not, then he doesn't play.	And if hes not, then he doesn't play.	3418345	1472005586062	1472005586177	A	65
6684	71887	And if he's not, then he doesn't play.	And if hes not, then he doesn't play.	3418350	1472005586489	1472005586621	n	78
6684	71887	And if he's not, then he doesn't play.	And if hes not, then he doesn't play.	3418354	1472005586798	1472005586894	d	68
6684	71887	And if he's not, then he doesn't play.	And if hes not, then he doesn't play.	3418356	1472005586949	1472005587046	 	32
6684	71887	And if he's not, then he doesn't play.	And if hes not, then he doesn't play.	3418361	1472005587303	1472005587372	i	73
6684	71887	And if he's not, then he doesn't play.	And if hes not, then he doesn't play.	3418439	1472005587702	1472005587799	f	70
6684	71887	And if he's not, then he doesn't play.	And if hes not, then he doesn't play.	3418443	1472005587844	1472005587967	 	32
6684	71887	And if he's not, then he doesn't play.	And if hes not, then he doesn't play.	3418445	1472005588296	1472005588410	h	72
6684	71887	And if he's not, then he doesn't play.	And if hes not, then he doesn't play.	3418447	1472005588901	1472005589016	e	69
6684	71887	And if he's not, then he doesn't play.	And if hes not, then he doesn't play.	3418451	1472005589193	1472005589334	s	83
6684	71887	And if he's not, then he doesn't play.	And if hes not, then he doesn't play.	3418585	1472005589820	1472005589935	 	32
6684	71887	And if he's not, then he doesn't play.	And if hes not, then he doesn't play.	3418588	1472005590281	1472005590351	n	78
6684	71887	And if he's not, then he doesn't play.	And if hes not, then he doesn't play.	3418590	1472005590619	1472005590716	o	79
6684	71887	And if he's not, then he doesn't play.	And if hes not, then he doesn't play.	3418592	1472005590972	1472005591051	t	84
6684	71887	And if he's not, then he doesn't play.	And if hes not, then he doesn't play.	3418594	1472005591629	1472005591959	SHIFT	16
6684	71887	And if he's not, then he doesn't play.	And if hes not, then he doesn't play.	3418596	1472005592222	1472005592319	,	188
6684	71887	And if he's not, then he doesn't play.	And if hes not, then he doesn't play.	3418698	1472005593000	1472005593088	 	32
6684	71887	And if he's not, then he doesn't play.	And if hes not, then he doesn't play.	3418703	1472005593721	1472005593809	t	84
6684	71887	And if he's not, then he doesn't play.	And if hes not, then he doesn't play.	3418706	1472005593852	1472005593931	h	72
6684	71887	And if he's not, then he doesn't play.	And if hes not, then he doesn't play.	3418707	1472005593955	1472005594078	e	69
6684	71887	And if he's not, then he doesn't play.	And if hes not, then he doesn't play.	3418709	1472005594257	1472005594363	n	78
6684	71887	And if he's not, then he doesn't play.	And if hes not, then he doesn't play.	3418797	1472005594425	1472005594540	 	32
6684	71887	And if he's not, then he doesn't play.	And if hes not, then he doesn't play.	3418800	1472005595012	1472005595117	h	72
6684	71887	And if he's not, then he doesn't play.	And if hes not, then he doesn't play.	3418803	1472005595213	1472005595328	e	69
6684	71887	And if he's not, then he doesn't play.	And if hes not, then he doesn't play.	3418805	1472005595374	1472005595471	 	32
6684	71887	And if he's not, then he doesn't play.	And if hes not, then he doesn't play.	3418808	1472005595582	1472005595679	d	68
6684	71887	And if he's not, then he doesn't play.	And if hes not, then he doesn't play.	3418937	1472005595805	1472005595893	o	79
6684	71887	And if he's not, then he doesn't play.	And if hes not, then he doesn't play.	3418940	1472005596095	1472005596192	e	69
6684	71887	And if he's not, then he doesn't play.	And if hes not, then he doesn't play.	3418943	1472005596494	1472005596600	s	83
6684	71887	And if he's not, then he doesn't play.	And if hes not, then he doesn't play.	3418945	1472005597407	1472005597477	n	78
6684	71887	And if he's not, then he doesn't play.	And if hes not, then he doesn't play.	3418947	1472005598240	1472005598292	'	222
6684	71887	And if he's not, then he doesn't play.	And if hes not, then he doesn't play.	3419076	1472005598557	1472005598654	t	84
6684	71887	And if he's not, then he doesn't play.	And if hes not, then he doesn't play.	3419077	1472005598717	1472005598805	 	32
6684	71887	And if he's not, then he doesn't play.	And if hes not, then he doesn't play.	3419078	1472005600841	1472005600893	p	80
6684	71887	And if he's not, then he doesn't play.	And if hes not, then he doesn't play.	3419079	1472005601133	1472005601203	l	76
6684	71887	And if he's not, then he doesn't play.	And if hes not, then he doesn't play.	3419080	1472005601305	1472005601447	a	65
6684	71887	And if he's not, then he doesn't play.	And if hes not, then he doesn't play.	3419150	1472005601887	1472005601984	y	89
6684	71887	And if he's not, then he doesn't play.	And if hes not, then he doesn't play.	3419153	1472005602333	1472005602394	.	190
6684	71911	I will be there.	I will be there.	3419391	1472005607086	1472005607403	SHIFT	16
6684	71911	I will be there.	I will be there.	3419389	1472005607304	1472005607355	I	73
6684	71911	I will be there.	I will be there.	3419392	1472005607874	1472005607961	 	32
6684	71911	I will be there.	I will be there.	3419393	1472005608054	1472005608196	w	87
6684	71911	I will be there.	I will be there.	3419394	1472005608277	1472005608329	i	73
6684	71911	I will be there.	I will be there.	3419395	1472005608507	1472005608559	l	76
6684	71911	I will be there.	I will be there.	3419442	1472005608665	1472005608734	l	76
6684	71911	I will be there.	I will be there.	3419448	1472005608823	1472005608938	 	32
6684	71911	I will be there.	I will be there.	3419454	1472005609400	1472005609488	b	66
6684	71911	I will be there.	I will be there.	3419460	1472005609593	1472005609727	e	69
6684	71911	I will be there.	I will be there.	3419510	1472005609727	1472005609824	 	32
6684	71911	I will be there.	I will be there.	3419513	1472005609998	1472005610077	t	84
6684	71911	I will be there.	I will be there.	3419518	1472005610103	1472005610190	h	72
6684	71911	I will be there.	I will be there.	3419521	1472005610277	1472005610409	e	69
6684	71911	I will be there.	I will be there.	3419524	1472005610408	1472005610532	r	82
6684	71911	I will be there.	I will be there.	3419527	1472005610556	1472005610689	e	69
6684	71911	I will be there.	I will be there.	3419607	1472005610753	1472005610822	 	32
6684	71911	I will be there.	I will be there.	3419610	1472005611260	1472005611339	BKSP	8
6684	71911	I will be there.	I will be there.	3419611	1472005612270	1472005612321	.	190
6684	71923	What's your phone number?	What's your phone number?	3420057	1472005618576	1472005620042	SHIFT	16
6684	71923	What's your phone number?	What's your phone number?	3420055	1472005619878	1472005619993	W	87
6684	71923	What's your phone number?	What's your phone number?	3420059	1472005620214	1472005620275	h	72
6684	71923	What's your phone number?	What's your phone number?	3420061	1472005620343	1472005620449	a	65
6684	71923	What's your phone number?	What's your phone number?	3420064	1472005620897	1472005620976	t	84
6684	71923	What's your phone number?	What's your phone number?	3420067	1472005622873	1472005623006	SHIFT	16
6684	71923	What's your phone number?	What's your phone number?	3420070	1472005623103	1472005623253	SHIFT	16
6684	71923	What's your phone number?	What's your phone number?	3420073	1472005623625	1472005623686	'	222
6684	71923	What's your phone number?	What's your phone number?	3420121	1472005624246	1472005624380	s	83
6684	71923	What's your phone number?	What's your phone number?	3420124	1472005624380	1472005624495	 	32
6684	71923	What's your phone number?	What's your phone number?	3420129	1472005625182	1472005625252	y	89
6684	71923	What's your phone number?	What's your phone number?	3420132	1472005625385	1472005625473	o	79
6684	71923	What's your phone number?	What's your phone number?	3420134	1472005625632	1472005625710	u	85
6684	71923	What's your phone number?	What's your phone number?	3420183	1472005626085	1472005626172	r	82
6684	71923	What's your phone number?	What's your phone number?	3420184	1472005626254	1472005626368	 	32
6684	71923	What's your phone number?	What's your phone number?	3420185	1472005626671	1472005626741	p	80
6684	71923	What's your phone number?	What's your phone number?	3420187	1472005627222	1472005627292	h	72
6684	71923	What's your phone number?	What's your phone number?	3420189	1472005627425	1472005627513	o	79
6684	71923	What's your phone number?	What's your phone number?	3420216	1472005627671	1472005627741	n	78
6684	71923	What's your phone number?	What's your phone number?	3420218	1472005627891	1472005627979	e	69
6684	71923	What's your phone number?	What's your phone number?	3420220	1472005628024	1472005628121	 	32
6684	71923	What's your phone number?	What's your phone number?	3420223	1472005628395	1472005628456	n	78
6684	71923	What's your phone number?	What's your phone number?	3420227	1472005628688	1472005628748	u	85
6684	71923	What's your phone number?	What's your phone number?	3420311	1472005629150	1472005629220	m	77
6684	71923	What's your phone number?	What's your phone number?	3420313	1472005629603	1472005629664	b	66
6684	71923	What's your phone number?	What's your phone number?	3420315	1472005629877	1472005629974	e	69
6684	71923	What's your phone number?	What's your phone number?	3420317	1472005630026	1472005630132	r	82
6684	71923	What's your phone number?	What's your phone number?	3420319	1472005631643	1472005631858	SHIFT	16
6684	71923	What's your phone number?	What's your phone number?	3420331	1472005631799	1472005631859	?	191
6684	71941	We had some measurement of gas from Quantum throughout the month.	We had some measurement of gas from Quantum thoughout the month .	3420737	1472005641773	1472005642126	SHIFT	16
6684	71941	We had some measurement of gas from Quantum throughout the month.	We had some measurement of gas from Quantum thoughout the month .	3420738	1472005642025	1472005642126	W	87
6684	71941	We had some measurement of gas from Quantum throughout the month.	We had some measurement of gas from Quantum thoughout the month .	3420739	1472005642297	1472005642394	e	69
6684	71941	We had some measurement of gas from Quantum throughout the month.	We had some measurement of gas from Quantum thoughout the month .	3420740	1472005642494	1472005642600	 	32
6684	71941	We had some measurement of gas from Quantum throughout the month.	We had some measurement of gas from Quantum thoughout the month .	3420742	1472005642739	1472005642854	h	72
6684	71941	We had some measurement of gas from Quantum throughout the month.	We had some measurement of gas from Quantum thoughout the month .	3420745	1472005642885	1472005642991	a	65
6684	71941	We had some measurement of gas from Quantum throughout the month.	We had some measurement of gas from Quantum thoughout the month .	3420796	1472005643107	1472005643212	d	68
6684	71941	We had some measurement of gas from Quantum throughout the month.	We had some measurement of gas from Quantum thoughout the month .	3420799	1472005643258	1472005643364	 	32
6684	71941	We had some measurement of gas from Quantum throughout the month.	We had some measurement of gas from Quantum thoughout the month .	3420804	1472005643852	1472005643940	s	83
6684	71941	We had some measurement of gas from Quantum throughout the month.	We had some measurement of gas from Quantum thoughout the month .	3420807	1472005644093	1472005644172	o	79
6684	71941	We had some measurement of gas from Quantum throughout the month.	We had some measurement of gas from Quantum thoughout the month .	3420812	1472005644357	1472005644472	m	77
6684	71941	We had some measurement of gas from Quantum throughout the month.	We had some measurement of gas from Quantum thoughout the month .	3420867	1472005644576	1472005644664	e	69
6684	71941	We had some measurement of gas from Quantum throughout the month.	We had some measurement of gas from Quantum thoughout the month .	3420869	1472005644737	1472005644843	 	32
6684	71941	We had some measurement of gas from Quantum throughout the month.	We had some measurement of gas from Quantum thoughout the month .	3420873	1472005645117	1472005645214	m	77
6684	71941	We had some measurement of gas from Quantum throughout the month.	We had some measurement of gas from Quantum thoughout the month .	3420877	1472005645372	1472005645469	e	69
6684	71941	We had some measurement of gas from Quantum throughout the month.	We had some measurement of gas from Quantum thoughout the month .	3420881	1472005645753	1472005645868	a	65
6684	71941	We had some measurement of gas from Quantum throughout the month.	We had some measurement of gas from Quantum thoughout the month .	3420972	1472005646037	1472005646152	s	83
6684	71941	We had some measurement of gas from Quantum throughout the month.	We had some measurement of gas from Quantum thoughout the month .	3420974	1472005646465	1472005646526	u	85
6684	71941	We had some measurement of gas from Quantum throughout the month.	We had some measurement of gas from Quantum thoughout the month .	3420976	1472005646801	1472005646889	r	82
6684	71941	We had some measurement of gas from Quantum throughout the month.	We had some measurement of gas from Quantum thoughout the month .	3420978	1472005647192	1472005647289	e	69
6684	71941	We had some measurement of gas from Quantum throughout the month.	We had some measurement of gas from Quantum thoughout the month .	3420982	1472005647539	1472005647618	m	77
6684	71941	We had some measurement of gas from Quantum throughout the month.	We had some measurement of gas from Quantum thoughout the month .	3421078	1472005647758	1472005647864	e	69
6684	71941	We had some measurement of gas from Quantum throughout the month.	We had some measurement of gas from Quantum thoughout the month .	3421082	1472005647980	1472005648076	n	78
6684	71941	We had some measurement of gas from Quantum throughout the month.	We had some measurement of gas from Quantum thoughout the month .	3421087	1472005648271	1472005648359	t	84
6684	71941	We had some measurement of gas from Quantum throughout the month.	We had some measurement of gas from Quantum thoughout the month .	3421091	1472005648476	1472005648600	 	32
6684	71941	We had some measurement of gas from Quantum throughout the month.	We had some measurement of gas from Quantum thoughout the month .	3421096	1472005649530	1472005649600	o	79
6684	71941	We had some measurement of gas from Quantum throughout the month.	We had some measurement of gas from Quantum thoughout the month .	3421170	1472005650126	1472005650196	f	70
6684	71941	We had some measurement of gas from Quantum throughout the month.	We had some measurement of gas from Quantum thoughout the month .	3421173	1472005650277	1472005650392	 	32
6684	71941	We had some measurement of gas from Quantum throughout the month.	We had some measurement of gas from Quantum thoughout the month .	3421176	1472005650612	1472005650700	g	71
6684	71941	We had some measurement of gas from Quantum throughout the month.	We had some measurement of gas from Quantum thoughout the month .	3421178	1472005650768	1472005650900	a	65
6684	71941	We had some measurement of gas from Quantum throughout the month.	We had some measurement of gas from Quantum thoughout the month .	3421179	1472005650952	1472005651085	s	83
6684	71941	We had some measurement of gas from Quantum throughout the month.	We had some measurement of gas from Quantum thoughout the month .	3421264	1472005651168	1472005651264	 	32
6684	71941	We had some measurement of gas from Quantum throughout the month.	We had some measurement of gas from Quantum thoughout the month .	3421268	1472005652400	1472005652497	f	70
6684	71941	We had some measurement of gas from Quantum throughout the month.	We had some measurement of gas from Quantum thoughout the month .	3421275	1472005652566	1472005652682	r	82
6684	71941	We had some measurement of gas from Quantum throughout the month.	We had some measurement of gas from Quantum thoughout the month .	3421280	1472005652861	1472005652967	o	79
6684	71941	We had some measurement of gas from Quantum throughout the month.	We had some measurement of gas from Quantum thoughout the month .	3421285	1472005653116	1472005653267	m	77
6684	71941	We had some measurement of gas from Quantum throughout the month.	We had some measurement of gas from Quantum thoughout the month .	3421417	1472005653312	1472005653435	 	32
6684	71941	We had some measurement of gas from Quantum throughout the month.	We had some measurement of gas from Quantum thoughout the month .	3421420	1472005654478	1472005654894	SHIFT	16
6684	71941	We had some measurement of gas from Quantum throughout the month.	We had some measurement of gas from Quantum thoughout the month .	3421418	1472005654720	1472005654835	Q	81
6684	71941	We had some measurement of gas from Quantum throughout the month.	We had some measurement of gas from Quantum thoughout the month .	3421422	1472005655075	1472005655181	u	85
6684	71941	We had some measurement of gas from Quantum throughout the month.	We had some measurement of gas from Quantum thoughout the month .	3421425	1472005655500	1472005655642	a	65
6684	71941	We had some measurement of gas from Quantum throughout the month.	We had some measurement of gas from Quantum thoughout the month .	3421430	1472005655776	1472005655873	n	78
6684	71941	We had some measurement of gas from Quantum throughout the month.	We had some measurement of gas from Quantum thoughout the month .	3421572	1472005656122	1472005656200	t	84
6684	71941	We had some measurement of gas from Quantum throughout the month.	We had some measurement of gas from Quantum thoughout the month .	3421574	1472005656477	1472005656547	u	85
6684	71941	We had some measurement of gas from Quantum throughout the month.	We had some measurement of gas from Quantum thoughout the month .	3421578	1472005656895	1472005657010	m	77
6684	71941	We had some measurement of gas from Quantum throughout the month.	We had some measurement of gas from Quantum thoughout the month .	3421582	1472005657405	1472005657510	 	32
6684	71941	We had some measurement of gas from Quantum throughout the month.	We had some measurement of gas from Quantum thoughout the month .	3421586	1472005658664	1472005658752	t	84
6684	71941	We had some measurement of gas from Quantum throughout the month.	We had some measurement of gas from Quantum thoughout the month .	3421694	1472005658804	1472005658892	h	72
6684	71941	We had some measurement of gas from Quantum throughout the month.	We had some measurement of gas from Quantum thoughout the month .	3421699	1472005659537	1472005659671	o	79
6684	71941	We had some measurement of gas from Quantum throughout the month.	We had some measurement of gas from Quantum thoughout the month .	3421704	1472005659945	1472005660042	u	85
6684	71941	We had some measurement of gas from Quantum throughout the month.	We had some measurement of gas from Quantum thoughout the month .	3421714	1472005661053	1472005661141	g	71
6684	71941	We had some measurement of gas from Quantum throughout the month.	We had some measurement of gas from Quantum thoughout the month .	3421720	1472005661203	1472005661273	h	72
6684	71941	We had some measurement of gas from Quantum throughout the month.	We had some measurement of gas from Quantum thoughout the month .	3421852	1472005661684	1472005661772	o	79
6684	71941	We had some measurement of gas from Quantum throughout the month.	We had some measurement of gas from Quantum thoughout the month .	3421856	1472005661886	1472005661983	u	85
6684	71941	We had some measurement of gas from Quantum throughout the month.	We had some measurement of gas from Quantum thoughout the month .	3421859	1472005662115	1472005662247	t	84
6684	71941	We had some measurement of gas from Quantum throughout the month.	We had some measurement of gas from Quantum thoughout the month .	3421862	1472005662364	1472005662461	 	32
6684	71941	We had some measurement of gas from Quantum throughout the month.	We had some measurement of gas from Quantum thoughout the month .	3421865	1472005663534	1472005663630	t	84
6684	71941	We had some measurement of gas from Quantum throughout the month.	We had some measurement of gas from Quantum thoughout the month .	3421904	1472005663665	1472005663770	h	72
6684	71941	We had some measurement of gas from Quantum throughout the month.	We had some measurement of gas from Quantum thoughout the month .	3421910	1472005663803	1472005663936	e	69
6684	71941	We had some measurement of gas from Quantum throughout the month.	We had some measurement of gas from Quantum thoughout the month .	3421915	1472005663991	1472005664114	 	32
6684	71941	We had some measurement of gas from Quantum throughout the month.	We had some measurement of gas from Quantum thoughout the month .	3421919	1472005664398	1472005664476	m	77
6684	71941	We had some measurement of gas from Quantum throughout the month.	We had some measurement of gas from Quantum thoughout the month .	3421924	1472005664637	1472005664725	o	79
6684	71941	We had some measurement of gas from Quantum throughout the month.	We had some measurement of gas from Quantum thoughout the month .	3422378	1472005664892	1472005664980	n	78
6684	71941	We had some measurement of gas from Quantum throughout the month.	We had some measurement of gas from Quantum thoughout the month .	3422380	1472005665256	1472005665352	t	84
6684	71941	We had some measurement of gas from Quantum throughout the month.	We had some measurement of gas from Quantum thoughout the month .	3422384	1472005665414	1472005665502	h	72
6684	71941	We had some measurement of gas from Quantum throughout the month.	We had some measurement of gas from Quantum thoughout the month .	3422386	1472005669513	1472005669646	 	32
6684	71941	We had some measurement of gas from Quantum throughout the month.	We had some measurement of gas from Quantum thoughout the month .	3422390	1472005673333	1472005673394	.	190
6684	71986	The best-of-seven series moves to Indianapolis, Indiana.	The best-of-seven series moves to Indianapolis, Indiana.	3422978	1472005681800	1472005682324	SHIFT	16
6684	71986	The best-of-seven series moves to Indianapolis, Indiana.	The best-of-seven series moves to Indianapolis, Indiana.	3422970	1472005682170	1472005682284	T	84
6684	71986	The best-of-seven series moves to Indianapolis, Indiana.	The best-of-seven series moves to Indianapolis, Indiana.	3422985	1472005682389	1472005682493	h	72
6684	71986	The best-of-seven series moves to Indianapolis, Indiana.	The best-of-seven series moves to Indianapolis, Indiana.	3422989	1472005682493	1472005682615	e	69
6684	71986	The best-of-seven series moves to Indianapolis, Indiana.	The best-of-seven series moves to Indianapolis, Indiana.	3422994	1472005682661	1472005682776	 	32
6684	71986	The best-of-seven series moves to Indianapolis, Indiana.	The best-of-seven series moves to Indianapolis, Indiana.	3423000	1472005683013	1472005683110	b	66
6684	71986	The best-of-seven series moves to Indianapolis, Indiana.	The best-of-seven series moves to Indianapolis, Indiana.	3423049	1472005683215	1472005683321	e	69
6684	71986	The best-of-seven series moves to Indianapolis, Indiana.	The best-of-seven series moves to Indianapolis, Indiana.	3423053	1472005683480	1472005683595	s	83
6684	71986	The best-of-seven series moves to Indianapolis, Indiana.	The best-of-seven series moves to Indianapolis, Indiana.	3423059	1472005683728	1472005683825	t	84
6684	71986	The best-of-seven series moves to Indianapolis, Indiana.	The best-of-seven series moves to Indianapolis, Indiana.	3423066	1472005683861	1472005684003	 	32
6684	71986	The best-of-seven series moves to Indianapolis, Indiana.	The best-of-seven series moves to Indianapolis, Indiana.	3423071	1472005684098	1472005684249	o	79
6684	71986	The best-of-seven series moves to Indianapolis, Indiana.	The best-of-seven series moves to Indianapolis, Indiana.	3423399	1472005685656	1472005685734	=	187
6684	71986	The best-of-seven series moves to Indianapolis, Indiana.	The best-of-seven series moves to Indianapolis, Indiana.	3423403	1472005686300	1472005686351	BKSP	8
6684	71986	The best-of-seven series moves to Indianapolis, Indiana.	The best-of-seven series moves to Indianapolis, Indiana.	3423409	1472005686475	1472005686527	BKSP	8
6684	71986	The best-of-seven series moves to Indianapolis, Indiana.	The best-of-seven series moves to Indianapolis, Indiana.	3423414	1472005686830	1472005686891	BKSP	8
6684	71986	The best-of-seven series moves to Indianapolis, Indiana.	The best-of-seven series moves to Indianapolis, Indiana.	3423421	1472005688137	1472005688216	-	189
6684	71986	The best-of-seven series moves to Indianapolis, Indiana.	The best-of-seven series moves to Indianapolis, Indiana.	3423426	1472005688653	1472005688759	o	79
6684	71986	The best-of-seven series moves to Indianapolis, Indiana.	The best-of-seven series moves to Indianapolis, Indiana.	3423430	1472005689060	1472005689166	f	70
6684	71986	The best-of-seven series moves to Indianapolis, Indiana.	The best-of-seven series moves to Indianapolis, Indiana.	3423433	1472005690114	1472005690238	s	83
6684	71986	The best-of-seven series moves to Indianapolis, Indiana.	The best-of-seven series moves to Indianapolis, Indiana.	3423585	1472005690317	1472005690441	e	69
6684	71986	The best-of-seven series moves to Indianapolis, Indiana.	The best-of-seven series moves to Indianapolis, Indiana.	3423586	1472005690807	1472005690904	v	86
6684	71986	The best-of-seven series moves to Indianapolis, Indiana.	The best-of-seven series moves to Indianapolis, Indiana.	3423588	1472005691000	1472005691124	e	69
6684	71986	The best-of-seven series moves to Indianapolis, Indiana.	The best-of-seven series moves to Indianapolis, Indiana.	3423590	1472005691347	1472005691426	n	78
6684	71986	The best-of-seven series moves to Indianapolis, Indiana.	The best-of-seven series moves to Indianapolis, Indiana.	3423594	1472005692305	1472005692384	BKSP	8
6684	71986	The best-of-seven series moves to Indianapolis, Indiana.	The best-of-seven series moves to Indianapolis, Indiana.	3423599	1472005692499	1472005692550	BKSP	8
6684	71986	The best-of-seven series moves to Indianapolis, Indiana.	The best-of-seven series moves to Indianapolis, Indiana.	3423603	1472005692656	1472005692699	BKSP	8
6684	71986	The best-of-seven series moves to Indianapolis, Indiana.	The best-of-seven series moves to Indianapolis, Indiana.	3423606	1472005692814	1472005692857	BKSP	8
6684	71986	The best-of-seven series moves to Indianapolis, Indiana.	The best-of-seven series moves to Indianapolis, Indiana.	3423610	1472005692971	1472005693014	BKSP	8
6684	71986	The best-of-seven series moves to Indianapolis, Indiana.	The best-of-seven series moves to Indianapolis, Indiana.	3423613	1472005693981	1472005694041	-	189
6684	71986	The best-of-seven series moves to Indianapolis, Indiana.	The best-of-seven series moves to Indianapolis, Indiana.	3423679	1472005694557	1472005694663	s	83
6684	71986	The best-of-seven series moves to Indianapolis, Indiana.	The best-of-seven series moves to Indianapolis, Indiana.	3423681	1472005694760	1472005694875	e	69
6684	71986	The best-of-seven series moves to Indianapolis, Indiana.	The best-of-seven series moves to Indianapolis, Indiana.	3423683	1472005695232	1472005695311	v	86
6684	71986	The best-of-seven series moves to Indianapolis, Indiana.	The best-of-seven series moves to Indianapolis, Indiana.	3423684	1472005695434	1472005695558	e	69
6684	71986	The best-of-seven series moves to Indianapolis, Indiana.	The best-of-seven series moves to Indianapolis, Indiana.	3423685	1472005695799	1472005695913	n	78
6684	71986	The best-of-seven series moves to Indianapolis, Indiana.	The best-of-seven series moves to Indianapolis, Indiana.	3423721	1472005696003	1472005696118	 	32
6684	71986	The best-of-seven series moves to Indianapolis, Indiana.	The best-of-seven series moves to Indianapolis, Indiana.	3423722	1472005696265	1472005696371	s	83
6684	71986	The best-of-seven series moves to Indianapolis, Indiana.	The best-of-seven series moves to Indianapolis, Indiana.	3423724	1472005696468	1472005696574	e	69
6684	71986	The best-of-seven series moves to Indianapolis, Indiana.	The best-of-seven series moves to Indianapolis, Indiana.	3423726	1472005696689	1472005696776	r	82
6684	71986	The best-of-seven series moves to Indianapolis, Indiana.	The best-of-seven series moves to Indianapolis, Indiana.	3423727	1472005696973	1472005697061	i	73
6684	71986	The best-of-seven series moves to Indianapolis, Indiana.	The best-of-seven series moves to Indianapolis, Indiana.	3423784	1472005697228	1472005697315	e	69
6684	71986	The best-of-seven series moves to Indianapolis, Indiana.	The best-of-seven series moves to Indianapolis, Indiana.	3423787	1472005697510	1472005697625	s	83
6684	71986	The best-of-seven series moves to Indianapolis, Indiana.	The best-of-seven series moves to Indianapolis, Indiana.	3423792	1472005697752	1472005697885	 	32
6684	71986	The best-of-seven series moves to Indianapolis, Indiana.	The best-of-seven series moves to Indianapolis, Indiana.	3423797	1472005698607	1472005698668	m	77
6684	71986	The best-of-seven series moves to Indianapolis, Indiana.	The best-of-seven series moves to Indianapolis, Indiana.	3423804	1472005698847	1472005698952	o	79
6684	71986	The best-of-seven series moves to Indianapolis, Indiana.	The best-of-seven series moves to Indianapolis, Indiana.	3423869	1472005699388	1472005699449	v	86
6684	71986	The best-of-seven series moves to Indianapolis, Indiana.	The best-of-seven series moves to Indianapolis, Indiana.	3423870	1472005699600	1472005699696	e	69
6684	71986	The best-of-seven series moves to Indianapolis, Indiana.	The best-of-seven series moves to Indianapolis, Indiana.	3423871	1472005699837	1472005699934	s	83
6684	71986	The best-of-seven series moves to Indianapolis, Indiana.	The best-of-seven series moves to Indianapolis, Indiana.	3423873	1472005699989	1472005700104	 	32
6684	71986	The best-of-seven series moves to Indianapolis, Indiana.	The best-of-seven series moves to Indianapolis, Indiana.	3423876	1472005700198	1472005700322	t	84
6684	71986	The best-of-seven series moves to Indianapolis, Indiana.	The best-of-seven series moves to Indianapolis, Indiana.	3424014	1472005700322	1472005700436	o	79
6684	71986	The best-of-seven series moves to Indianapolis, Indiana.	The best-of-seven series moves to Indianapolis, Indiana.	3424018	1472005700534	1472005700613	 	32
6684	71986	The best-of-seven series moves to Indianapolis, Indiana.	The best-of-seven series moves to Indianapolis, Indiana.	3424022	1472005701359	1472005701837	SHIFT	16
6684	71986	The best-of-seven series moves to Indianapolis, Indiana.	The best-of-seven series moves to Indianapolis, Indiana.	3424020	1472005701738	1472005701808	I	73
6684	71986	The best-of-seven series moves to Indianapolis, Indiana.	The best-of-seven series moves to Indianapolis, Indiana.	3424025	1472005702055	1472005702134	n	78
6684	71986	The best-of-seven series moves to Indianapolis, Indiana.	The best-of-seven series moves to Indianapolis, Indiana.	3424028	1472005702445	1472005702560	d	68
6684	71986	The best-of-seven series moves to Indianapolis, Indiana.	The best-of-seven series moves to Indianapolis, Indiana.	3424030	1472005702730	1472005702808	i	73
6684	71986	The best-of-seven series moves to Indianapolis, Indiana.	The best-of-seven series moves to Indianapolis, Indiana.	3424206	1472005703046	1472005703179	a	65
6684	71986	The best-of-seven series moves to Indianapolis, Indiana.	The best-of-seven series moves to Indianapolis, Indiana.	3424209	1472005703350	1472005703402	n	78
6684	71986	The best-of-seven series moves to Indianapolis, Indiana.	The best-of-seven series moves to Indianapolis, Indiana.	3424213	1472005705903	1472005706026	a	65
6684	71986	The best-of-seven series moves to Indianapolis, Indiana.	The best-of-seven series moves to Indianapolis, Indiana.	3424217	1472005706162	1472005706250	p	80
6684	71986	The best-of-seven series moves to Indianapolis, Indiana.	The best-of-seven series moves to Indianapolis, Indiana.	3424221	1472005706409	1472005706488	o	79
6684	71986	The best-of-seven series moves to Indianapolis, Indiana.	The best-of-seven series moves to Indianapolis, Indiana.	3424331	1472005706639	1472005706726	l	76
6684	71986	The best-of-seven series moves to Indianapolis, Indiana.	The best-of-seven series moves to Indianapolis, Indiana.	3424333	1472005706858	1472005706937	i	73
6684	71986	The best-of-seven series moves to Indianapolis, Indiana.	The best-of-seven series moves to Indianapolis, Indiana.	3424335	1472005707131	1472005707236	s	83
6684	71986	The best-of-seven series moves to Indianapolis, Indiana.	The best-of-seven series moves to Indianapolis, Indiana.	3424336	1472005708475	1472005708553	,	188
6684	71986	The best-of-seven series moves to Indianapolis, Indiana.	The best-of-seven series moves to Indianapolis, Indiana.	3424337	1472005708885	1472005708973	 	32
6684	71986	The best-of-seven series moves to Indianapolis, Indiana.	The best-of-seven series moves to Indianapolis, Indiana.	3424503	1472005709189	1472005709569	SHIFT	16
6684	71986	The best-of-seven series moves to Indianapolis, Indiana.	The best-of-seven series moves to Indianapolis, Indiana.	3424501	1472005709452	1472005709513	I	73
6684	71986	The best-of-seven series moves to Indianapolis, Indiana.	The best-of-seven series moves to Indianapolis, Indiana.	3424505	1472005709762	1472005709823	 	32
6684	71986	The best-of-seven series moves to Indianapolis, Indiana.	The best-of-seven series moves to Indianapolis, Indiana.	3424508	1472005710574	1472005710635	BKSP	8
6684	71986	The best-of-seven series moves to Indianapolis, Indiana.	The best-of-seven series moves to Indianapolis, Indiana.	3424513	1472005711107	1472005711168	n	78
6684	71986	The best-of-seven series moves to Indianapolis, Indiana.	The best-of-seven series moves to Indianapolis, Indiana.	3424518	1472005712044	1472005712132	d	68
6684	71986	The best-of-seven series moves to Indianapolis, Indiana.	The best-of-seven series moves to Indianapolis, Indiana.	3424522	1472005712221	1472005712300	i	73
6684	71986	The best-of-seven series moves to Indianapolis, Indiana.	The best-of-seven series moves to Indianapolis, Indiana.	3424724	1472005714306	1472005714429	a	65
6684	71986	The best-of-seven series moves to Indianapolis, Indiana.	The best-of-seven series moves to Indianapolis, Indiana.	3424728	1472005714555	1472005714607	n	78
6684	71986	The best-of-seven series moves to Indianapolis, Indiana.	The best-of-seven series moves to Indianapolis, Indiana.	3424733	1472005714638	1472005714744	a	65
6684	71986	The best-of-seven series moves to Indianapolis, Indiana.	The best-of-seven series moves to Indianapolis, Indiana.	3424738	1472005715921	1472005715973	.	190
6684	72029	Winning here, everybody was more shocked and surprised.	Winning here, everybody was more shocked than suprised.	3425065	1472005722271	1472005722732	SHIFT	16
6684	72029	Winning here, everybody was more shocked and surprised.	Winning here, everybody was more shocked than suprised.	3425061	1472005722568	1472005722683	W	87
6684	72029	Winning here, everybody was more shocked and surprised.	Winning here, everybody was more shocked than suprised.	3425069	1472005722879	1472005722957	i	73
6684	72029	Winning here, everybody was more shocked and surprised.	Winning here, everybody was more shocked than suprised.	3425074	1472005723170	1472005723213	n	78
6684	72029	Winning here, everybody was more shocked and surprised.	Winning here, everybody was more shocked than suprised.	3425079	1472005723337	1472005723398	n	78
6684	72029	Winning here, everybody was more shocked and surprised.	Winning here, everybody was more shocked than suprised.	3425084	1472005723522	1472005723627	i	73
6684	72029	Winning here, everybody was more shocked and surprised.	Winning here, everybody was more shocked than suprised.	3425119	1472005723760	1472005723874	n	78
6684	72029	Winning here, everybody was more shocked and surprised.	Winning here, everybody was more shocked than suprised.	3425122	1472005723979	1472005724085	g	71
6684	72029	Winning here, everybody was more shocked and surprised.	Winning here, everybody was more shocked than suprised.	3425125	1472005724148	1472005724263	 	32
6684	72029	Winning here, everybody was more shocked and surprised.	Winning here, everybody was more shocked than suprised.	3425130	1472005724447	1472005724544	h	72
6684	72029	Winning here, everybody was more shocked and surprised.	Winning here, everybody was more shocked than suprised.	3425136	1472005724658	1472005724773	e	69
6684	72029	Winning here, everybody was more shocked and surprised.	Winning here, everybody was more shocked than suprised.	3425260	1472005724887	1472005724966	r	82
6684	72029	Winning here, everybody was more shocked and surprised.	Winning here, everybody was more shocked than suprised.	3425265	1472005725053	1472005725177	e	69
6684	72029	Winning here, everybody was more shocked and surprised.	Winning here, everybody was more shocked than suprised.	3425271	1472005726182	1472005726260	,	188
6684	72029	Winning here, everybody was more shocked and surprised.	Winning here, everybody was more shocked than suprised.	3425276	1472005726565	1472005726662	 	32
6684	72029	Winning here, everybody was more shocked and surprised.	Winning here, everybody was more shocked than suprised.	3425280	1472005727428	1472005727507	e	69
6684	72029	Winning here, everybody was more shocked and surprised.	Winning here, everybody was more shocked than suprised.	3425352	1472005727712	1472005727791	v	86
6684	72029	Winning here, everybody was more shocked and surprised.	Winning here, everybody was more shocked than suprised.	3425355	1472005727878	1472005727993	e	69
6684	72029	Winning here, everybody was more shocked and surprised.	Winning here, everybody was more shocked than suprised.	3425359	1472005728117	1472005728213	r	82
6684	72029	Winning here, everybody was more shocked and surprised.	Winning here, everybody was more shocked than suprised.	3425361	1472005728427	1472005728497	y	89
6684	72029	Winning here, everybody was more shocked and surprised.	Winning here, everybody was more shocked than suprised.	3425363	1472005728863	1472005728914	b	66
6684	72029	Winning here, everybody was more shocked and surprised.	Winning here, everybody was more shocked than suprised.	3425502	1472005729219	1472005729289	o	79
6684	72029	Winning here, everybody was more shocked and surprised.	Winning here, everybody was more shocked than suprised.	3425508	1472005729850	1472005729929	d	68
6684	72029	Winning here, everybody was more shocked and surprised.	Winning here, everybody was more shocked than suprised.	3425516	1472005730493	1472005730617	y	89
6684	72029	Winning here, everybody was more shocked and surprised.	Winning here, everybody was more shocked than suprised.	3425522	1472005730958	1472005731064	 	32
6684	72029	Winning here, everybody was more shocked and surprised.	Winning here, everybody was more shocked than suprised.	3425528	1472005731506	1472005731594	a	65
6684	72029	Winning here, everybody was more shocked and surprised.	Winning here, everybody was more shocked than suprised.	3425607	1472005732134	1472005732213	BKSP	8
6684	72029	Winning here, everybody was more shocked and surprised.	Winning here, everybody was more shocked than suprised.	3425613	1472005732414	1472005732520	w	87
6684	72029	Winning here, everybody was more shocked and surprised.	Winning here, everybody was more shocked than suprised.	3425622	1472005732616	1472005732766	a	65
6684	72029	Winning here, everybody was more shocked and surprised.	Winning here, everybody was more shocked than suprised.	3425625	1472005732765	1472005732862	s	83
6684	72029	Winning here, everybody was more shocked and surprised.	Winning here, everybody was more shocked than suprised.	3425631	1472005732935	1472005733040	 	32
6684	72029	Winning here, everybody was more shocked and surprised.	Winning here, everybody was more shocked than suprised.	3425635	1472005733243	1472005733313	m	77
6684	72029	Winning here, everybody was more shocked and surprised.	Winning here, everybody was more shocked than suprised.	3425690	1472005733608	1472005733696	o	79
6684	72029	Winning here, everybody was more shocked and surprised.	Winning here, everybody was more shocked than suprised.	3425695	1472005733925	1472005734000	r	69
6684	72029	Winning here, everybody was more shocked and surprised.	Winning here, everybody was more shocked than suprised.	3425698	1472005734378	1472005734501	BKSP	8
6684	72029	Winning here, everybody was more shocked and surprised.	Winning here, everybody was more shocked than suprised.	3425701	1472005734542	1472005734602	r	82
6684	72029	Winning here, everybody was more shocked and surprised.	Winning here, everybody was more shocked than suprised.	3425704	1472005734645	1472005734778	e	69
6684	72029	Winning here, everybody was more shocked and surprised.	Winning here, everybody was more shocked than suprised.	3425818	1472005735128	1472005735207	BKSP	8
6684	72029	Winning here, everybody was more shocked and surprised.	Winning here, everybody was more shocked than suprised.	3425820	1472005735313	1472005735347	BKSP	8
6684	72029	Winning here, everybody was more shocked and surprised.	Winning here, everybody was more shocked than suprised.	3425822	1472005735435	1472005735504	BKSP	8
6684	72029	Winning here, everybody was more shocked and surprised.	Winning here, everybody was more shocked than suprised.	3425823	1472005735590	1472005735695	r	82
6684	72029	Winning here, everybody was more shocked and surprised.	Winning here, everybody was more shocked than suprised.	3425825	1472005735782	1472005735906	e	69
6684	72029	Winning here, everybody was more shocked and surprised.	Winning here, everybody was more shocked than suprised.	3425827	1472005736266	1472005736336	 	32
6684	72029	Winning here, everybody was more shocked and surprised.	Winning here, everybody was more shocked than suprised.	3425828	1472005737174	1472005737289	s	83
6684	72029	Winning here, everybody was more shocked and surprised.	Winning here, everybody was more shocked than suprised.	3425830	1472005737360	1472005737421	h	72
6684	72029	Winning here, everybody was more shocked and surprised.	Winning here, everybody was more shocked than suprised.	3425885	1472005737761	1472005737830	o	79
6684	72029	Winning here, everybody was more shocked and surprised.	Winning here, everybody was more shocked than suprised.	3425890	1472005738114	1472005738183	c	67
6684	72029	Winning here, everybody was more shocked and surprised.	Winning here, everybody was more shocked than suprised.	3425894	1472005738398	1472005738459	k	75
6684	72029	Winning here, everybody was more shocked and surprised.	Winning here, everybody was more shocked than suprised.	3425897	1472005738671	1472005738759	e	69
6684	72029	Winning here, everybody was more shocked and surprised.	Winning here, everybody was more shocked than suprised.	3425901	1472005738882	1472005738979	d	68
6684	72029	Winning here, everybody was more shocked and surprised.	Winning here, everybody was more shocked than suprised.	3425945	1472005739043	1472005739175	 	32
6684	72029	Winning here, everybody was more shocked and surprised.	Winning here, everybody was more shocked than suprised.	3425946	1472005739243	1472005739331	t	84
6684	72029	Winning here, everybody was more shocked and surprised.	Winning here, everybody was more shocked than suprised.	3425947	1472005739347	1472005739462	h	72
6684	72029	Winning here, everybody was more shocked and surprised.	Winning here, everybody was more shocked than suprised.	3425948	1472005739763	1472005739886	a	65
6684	72029	Winning here, everybody was more shocked and surprised.	Winning here, everybody was more shocked than suprised.	3425950	1472005740012	1472005740128	n	78
6684	72029	Winning here, everybody was more shocked and surprised.	Winning here, everybody was more shocked than suprised.	3426058	1472005740181	1472005740278	 	32
6684	72029	Winning here, everybody was more shocked and surprised.	Winning here, everybody was more shocked than suprised.	3426063	1472005740560	1472005740674	s	83
6684	72029	Winning here, everybody was more shocked and surprised.	Winning here, everybody was more shocked than suprised.	3426066	1472005740979	1472005741049	u	85
6684	72029	Winning here, everybody was more shocked and surprised.	Winning here, everybody was more shocked than suprised.	3426068	1472005741748	1472005741836	p	80
6684	72029	Winning here, everybody was more shocked and surprised.	Winning here, everybody was more shocked than suprised.	3426072	1472005741987	1472005742081	r	82
6684	72029	Winning here, everybody was more shocked and surprised.	Winning here, everybody was more shocked than suprised.	3426369	1472005742358	1472005742428	i	73
6684	72029	Winning here, everybody was more shocked and surprised.	Winning here, everybody was more shocked than suprised.	3426374	1472005744910	1472005745007	s	83
6684	72029	Winning here, everybody was more shocked and surprised.	Winning here, everybody was more shocked than suprised.	3426377	1472005745184	1472005745290	e	69
6684	72029	Winning here, everybody was more shocked and surprised.	Winning here, everybody was more shocked than suprised.	3426380	1472005745458	1472005745547	d	68
6684	72029	Winning here, everybody was more shocked and surprised.	Winning here, everybody was more shocked than suprised.	3426383	1472005747108	1472005747169	.	190
6684	72062	We've advised the family how to go about it.	We've advised the family how to go about it.	3426796	1472005751707	1472005752159	SHIFT	16
6684	72062	We've advised the family how to go about it.	We've advised the family how to go about it.	3426792	1472005752031	1472005752118	W	87
6684	72062	We've advised the family how to go about it.	We've advised the family how to go about it.	3426800	1472005752312	1472005752404	e	69
6684	72062	We've advised the family how to go about it.	We've advised the family how to go about it.	3426804	1472005753792	1472005753861	'	222
6684	72062	We've advised the family how to go about it.	We've advised the family how to go about it.	3426807	1472005754871	1472005754941	v	86
6684	72062	We've advised the family how to go about it.	We've advised the family how to go about it.	3426810	1472005755199	1472005755305	e	69
6684	72062	We've advised the family how to go about it.	We've advised the family how to go about it.	3426876	1472005755405	1472005755483	 	32
6684	72062	We've advised the family how to go about it.	We've advised the family how to go about it.	3426878	1472005755827	1472005755933	a	65
6684	72062	We've advised the family how to go about it.	We've advised the family how to go about it.	3426882	1472005756192	1472005756271	d	68
6684	72062	We've advised the family how to go about it.	We've advised the family how to go about it.	3426884	1472005756646	1472005756698	v	86
6684	72062	We've advised the family how to go about it.	We've advised the family how to go about it.	3426886	1472005757048	1472005757108	i	73
6684	72062	We've advised the family how to go about it.	We've advised the family how to go about it.	3426931	1472005757266	1472005757354	s	83
6684	72062	We've advised the family how to go about it.	We've advised the family how to go about it.	3426934	1472005757496	1472005757630	e	69
6684	72062	We've advised the family how to go about it.	We've advised the family how to go about it.	3426939	1472005757753	1472005757841	d	68
6684	72062	We've advised the family how to go about it.	We've advised the family how to go about it.	3426944	1472005757887	1472005758010	 	32
6684	72062	We've advised the family how to go about it.	We've advised the family how to go about it.	3426949	1472005758087	1472005758182	t	84
6684	72062	We've advised the family how to go about it.	We've advised the family how to go about it.	3427030	1472005758181	1472005758261	h	72
6684	72062	We've advised the family how to go about it.	We've advised the family how to go about it.	3427034	1472005758321	1472005758453	e	69
6684	72062	We've advised the family how to go about it.	We've advised the family how to go about it.	3427037	1472005758499	1472005758614	 	32
6684	72062	We've advised the family how to go about it.	We've advised the family how to go about it.	3427041	1472005758726	1472005758814	f	70
6684	72062	We've advised the family how to go about it.	We've advised the family how to go about it.	3427045	1472005759088	1472005759212	a	65
6684	72062	We've advised the family how to go about it.	We've advised the family how to go about it.	3427049	1472005759374	1472005759443	m	77
6684	72062	We've advised the family how to go about it.	We've advised the family how to go about it.	3427196	1472005759855	1472005759898	i	73
6684	72062	We've advised the family how to go about it.	We've advised the family how to go about it.	3427202	1472005760103	1472005760181	l	76
6684	72062	We've advised the family how to go about it.	We've advised the family how to go about it.	3427206	1472005760852	1472005760957	y	89
6684	72062	We've advised the family how to go about it.	We've advised the family how to go about it.	3427210	1472005761307	1472005761422	 	32
6684	72062	We've advised the family how to go about it.	We've advised the family how to go about it.	3427213	1472005762378	1472005762448	h	72
6684	72062	We've advised the family how to go about it.	We've advised the family how to go about it.	3427245	1472005762707	1472005762831	o	79
6684	72062	We've advised the family how to go about it.	We've advised the family how to go about it.	3427246	1472005763042	1472005763150	w	87
6684	72062	We've advised the family how to go about it.	We've advised the family how to go about it.	3427247	1472005763149	1472005763282	 	32
6684	72062	We've advised the family how to go about it.	We've advised the family how to go about it.	3427248	1472005763376	1472005763463	t	84
6684	72062	We've advised the family how to go about it.	We've advised the family how to go about it.	3427250	1472005763481	1472005763596	o	79
6684	72062	We've advised the family how to go about it.	We've advised the family how to go about it.	3427309	1472005763639	1472005763754	 	32
6684	72062	We've advised the family how to go about it.	We've advised the family how to go about it.	3427312	1472005763938	1472005764035	g	71
6684	72062	We've advised the family how to go about it.	We've advised the family how to go about it.	3427317	1472005764106	1472005764221	o	79
6684	72062	We've advised the family how to go about it.	We've advised the family how to go about it.	3427319	1472005764274	1472005764379	 	32
6684	72062	We've advised the family how to go about it.	We've advised the family how to go about it.	3427325	1472005764661	1472005764784	a	65
6684	72062	We've advised the family how to go about it.	We've advised the family how to go about it.	3427467	1472005765531	1472005765664	BKSP	8
6684	72062	We've advised the family how to go about it.	We've advised the family how to go about it.	3427469	1472005766798	1472005766930	a	65
6684	72062	We've advised the family how to go about it.	We've advised the family how to go about it.	3427474	1472005767190	1472005767278	b	66
6684	72062	We've advised the family how to go about it.	We've advised the family how to go about it.	3427479	1472005767439	1472005767509	o	79
6684	72062	We've advised the family how to go about it.	We've advised the family how to go about it.	3427483	1472005767622	1472005767692	u	85
6684	72062	We've advised the family how to go about it.	We've advised the family how to go about it.	3427488	1472005767833	1472005767894	t	84
6684	72062	We've advised the family how to go about it.	We've advised the family how to go about it.	3427637	1472005768002	1472005768108	 	32
6684	72062	We've advised the family how to go about it.	We've advised the family how to go about it.	3427640	1472005768230	1472005768336	i	73
6684	72062	We've advised the family how to go about it.	We've advised the family how to go about it.	3427642	1472005768396	1472005768475	t	84
6684	72062	We've advised the family how to go about it.	We've advised the family how to go about it.	3427646	1472005768529	1472005768617	 	32
6684	72062	We've advised the family how to go about it.	We've advised the family how to go about it.	3427648	1472005769091	1472005769169	BKSP	8
6684	72062	We've advised the family how to go about it.	We've advised the family how to go about it.	3427650	1472005770935	1472005770996	.	190
6684	72085	Bob, I'll pick San Diego as my winner.	Bob, I'll pick San Diego as my winner.	3428051	1472005776155	1472005776965	SHIFT	16
6684	72085	Bob, I'll pick San Diego as my winner.	Bob, I'll pick San Diego as my winner.	3428050	1472005776892	1472005776944	B	66
6684	72085	Bob, I'll pick San Diego as my winner.	Bob, I'll pick San Diego as my winner.	3428052	1472005777256	1472005777325	o	79
6684	72085	Bob, I'll pick San Diego as my winner.	Bob, I'll pick San Diego as my winner.	3428053	1472005777564	1472005777634	b	66
6684	72085	Bob, I'll pick San Diego as my winner.	Bob, I'll pick San Diego as my winner.	3428054	1472005777832	1472005777902	 	32
6684	72085	Bob, I'll pick San Diego as my winner.	Bob, I'll pick San Diego as my winner.	3428055	1472005779497	1472005779567	BKSP	8
6684	72085	Bob, I'll pick San Diego as my winner.	Bob, I'll pick San Diego as my winner.	3428056	1472005780506	1472005780584	,	188
6684	72085	Bob, I'll pick San Diego as my winner.	Bob, I'll pick San Diego as my winner.	3428138	1472005780745	1472005780869	 	32
6684	72085	Bob, I'll pick San Diego as my winner.	Bob, I'll pick San Diego as my winner.	3428139	1472005782279	1472005782820	SHIFT	16
6684	72085	Bob, I'll pick San Diego as my winner.	Bob, I'll pick San Diego as my winner.	3428140	1472005782766	1472005782821	I	73
6684	72085	Bob, I'll pick San Diego as my winner.	Bob, I'll pick San Diego as my winner.	3428141	1472005783802	1472005783854	'	222
6684	72085	Bob, I'll pick San Diego as my winner.	Bob, I'll pick San Diego as my winner.	3428142	1472005784174	1472005784235	l	76
6684	72085	Bob, I'll pick San Diego as my winner.	Bob, I'll pick San Diego as my winner.	3428143	1472005784341	1472005784420	l	76
6684	72085	Bob, I'll pick San Diego as my winner.	Bob, I'll pick San Diego as my winner.	3428180	1472005784499	1472005784596	 	32
6684	72085	Bob, I'll pick San Diego as my winner.	Bob, I'll pick San Diego as my winner.	3428182	1472005784827	1472005784888	p	80
6684	72085	Bob, I'll pick San Diego as my winner.	Bob, I'll pick San Diego as my winner.	3428184	1472005785091	1472005785143	i	73
6684	72085	Bob, I'll pick San Diego as my winner.	Bob, I'll pick San Diego as my winner.	3428186	1472005785597	1472005785685	c	67
6684	72085	Bob, I'll pick San Diego as my winner.	Bob, I'll pick San Diego as my winner.	3428188	1472005785918	1472005786005	k	75
6684	72085	Bob, I'll pick San Diego as my winner.	Bob, I'll pick San Diego as my winner.	3428252	1472005786185	1472005786272	 	32
6684	72085	Bob, I'll pick San Diego as my winner.	Bob, I'll pick San Diego as my winner.	3428255	1472005786964	1472005787327	SHIFT	16
6684	72085	Bob, I'll pick San Diego as my winner.	Bob, I'll pick San Diego as my winner.	3428258	1472005787234	1472005787327	S	83
6684	72085	Bob, I'll pick San Diego as my winner.	Bob, I'll pick San Diego as my winner.	3428262	1472005787532	1472005787692	a	65
6684	72085	Bob, I'll pick San Diego as my winner.	Bob, I'll pick San Diego as my winner.	3428263	1472005787845	1472005787968	n	78
6684	72085	Bob, I'll pick San Diego as my winner.	Bob, I'll pick San Diego as my winner.	3428265	1472005788067	1472005788137	 	32
6684	72085	Bob, I'll pick San Diego as my winner.	Bob, I'll pick San Diego as my winner.	3428465	1472005788192	1472005788491	SHIFT	16
6684	72085	Bob, I'll pick San Diego as my winner.	Bob, I'll pick San Diego as my winner.	3428464	1472005788372	1472005788469	D	68
6684	72085	Bob, I'll pick San Diego as my winner.	Bob, I'll pick San Diego as my winner.	3428466	1472005788628	1472005788698	i	73
6684	72085	Bob, I'll pick San Diego as my winner.	Bob, I'll pick San Diego as my winner.	3428467	1472005788892	1472005788952	e	69
6684	72085	Bob, I'll pick San Diego as my winner.	Bob, I'll pick San Diego as my winner.	3428468	1472005792990	1472005793077	g	71
6684	72085	Bob, I'll pick San Diego as my winner.	Bob, I'll pick San Diego as my winner.	3428469	1472005793238	1472005793335	o	79
6684	72085	Bob, I'll pick San Diego as my winner.	Bob, I'll pick San Diego as my winner.	3428531	1472005793603	1472005793700	 	32
6684	72085	Bob, I'll pick San Diego as my winner.	Bob, I'll pick San Diego as my winner.	3428533	1472005794286	1472005794428	a	65
6684	72085	Bob, I'll pick San Diego as my winner.	Bob, I'll pick San Diego as my winner.	3428535	1472005794615	1472005794765	s	83
6684	72085	Bob, I'll pick San Diego as my winner.	Bob, I'll pick San Diego as my winner.	3428537	1472005794847	1472005794980	 	32
6684	72085	Bob, I'll pick San Diego as my winner.	Bob, I'll pick San Diego as my winner.	3428539	1472005795182	1472005795279	m	77
6684	72085	Bob, I'll pick San Diego as my winner.	Bob, I'll pick San Diego as my winner.	3428603	1472005795663	1472005795805	y	89
6684	72085	Bob, I'll pick San Diego as my winner.	Bob, I'll pick San Diego as my winner.	3428606	1472005795984	1472005796107	 	32
6684	72085	Bob, I'll pick San Diego as my winner.	Bob, I'll pick San Diego as my winner.	3428609	1472005796820	1472005796962	w	87
6684	72085	Bob, I'll pick San Diego as my winner.	Bob, I'll pick San Diego as my winner.	3428614	1472005797132	1472005797238	i	73
6684	72085	Bob, I'll pick San Diego as my winner.	Bob, I'll pick San Diego as my winner.	3428616	1472005797397	1472005797476	n	78
6684	72085	Bob, I'll pick San Diego as my winner.	Bob, I'll pick San Diego as my winner.	3428679	1472005797572	1472005797642	n	78
6684	72085	Bob, I'll pick San Diego as my winner.	Bob, I'll pick San Diego as my winner.	3428681	1472005797711	1472005797844	e	69
6684	72085	Bob, I'll pick San Diego as my winner.	Bob, I'll pick San Diego as my winner.	3428684	1472005797878	1472005797984	r	82
6684	72085	Bob, I'll pick San Diego as my winner.	Bob, I'll pick San Diego as my winner.	3428686	1472005798701	1472005798789	.	190
6684	72109	I'll send you minutes.	I'll send you minutes.	3429100	1472005803866	1472005804568	SHIFT	16
6684	72109	I'll send you minutes.	I'll send you minutes.	3429099	1472005804469	1472005804530	I	73
6684	72109	I'll send you minutes.	I'll send you minutes.	3429101	1472005804885	1472005804937	l	76
6684	72109	I'll send you minutes.	I'll send you minutes.	3429102	1472005805061	1472005805131	l	76
6684	72109	I'll send you minutes.	I'll send you minutes.	3429103	1472005806018	1472005806106	BKSP	8
6684	72109	I'll send you minutes.	I'll send you minutes.	3429104	1472005806202	1472005806254	BKSP	8
6684	72109	I'll send you minutes.	I'll send you minutes.	3429105	1472005806333	1472005806394	BKSP	8
6684	72109	I'll send you minutes.	I'll send you minutes.	3429109	1472005807086	1472005807511	SHIFT	16
6684	72109	I'll send you minutes.	I'll send you minutes.	3429107	1472005807429	1472005807490	I	73
6684	72109	I'll send you minutes.	I'll send you minutes.	3429111	1472005808429	1472005808499	'	222
6684	72109	I'll send you minutes.	I'll send you minutes.	3429151	1472005808748	1472005808800	l	76
6684	72109	I'll send you minutes.	I'll send you minutes.	3429157	1472005808896	1472005808975	l	76
6684	72109	I'll send you minutes.	I'll send you minutes.	3429162	1472005809037	1472005809170	 	32
6684	72109	I'll send you minutes.	I'll send you minutes.	3429167	1472005809263	1472005809404	s	83
6684	72109	I'll send you minutes.	I'll send you minutes.	3429174	1472005809484	1472005809607	e	69
6684	72109	I'll send you minutes.	I'll send you minutes.	3429230	1472005809723	1472005809838	n	78
6684	72109	I'll send you minutes.	I'll send you minutes.	3429232	1472005809962	1472005810059	f	70
6684	72109	I'll send you minutes.	I'll send you minutes.	3429235	1472005810077	1472005810201	 	32
6684	72109	I'll send you minutes.	I'll send you minutes.	3429241	1472005810486	1472005810573	BKSP	8
6684	72109	I'll send you minutes.	I'll send you minutes.	3429243	1472005810667	1472005810773	d	68
6684	72109	I'll send you minutes.	I'll send you minutes.	3429249	1472005810828	1472005810951	 	32
6684	72109	I'll send you minutes.	I'll send you minutes.	3429376	1472005811344	1472005811423	BKSP	8
6684	72109	I'll send you minutes.	I'll send you minutes.	3429379	1472005811511	1472005811562	BKSP	8
6684	72109	I'll send you minutes.	I'll send you minutes.	3429383	1472005811659	1472005811702	BKSP	8
6684	72109	I'll send you minutes.	I'll send you minutes.	3429387	1472005811832	1472005811919	d	68
6684	72109	I'll send you minutes.	I'll send you minutes.	3429389	1472005812001	1472005812089	 	32
6684	72109	I'll send you minutes.	I'll send you minutes.	3429391	1472005813431	1472005813510	y	89
6684	72109	I'll send you minutes.	I'll send you minutes.	3429393	1472005813589	1472005813686	o	79
6684	72109	I'll send you minutes.	I'll send you minutes.	3429398	1472005813782	1472005813879	u	85
6684	72109	I'll send you minutes.	I'll send you minutes.	3429458	1472005814004	1472005814119	 	32
6684	72109	I'll send you minutes.	I'll send you minutes.	3429461	1472005814267	1472005814328	m	77
6684	72109	I'll send you minutes.	I'll send you minutes.	3429465	1472005814542	1472005814621	i	73
6684	72109	I'll send you minutes.	I'll send you minutes.	3429469	1472005814762	1472005814859	n	78
6684	72109	I'll send you minutes.	I'll send you minutes.	3429476	1472005815377	1472005815438	u	85
6684	72109	I'll send you minutes.	I'll send you minutes.	3429588	1472005815723	1472005815793	t	84
6684	72109	I'll send you minutes.	I'll send you minutes.	3429590	1472005815970	1472005816076	e	69
6684	72109	I'll send you minutes.	I'll send you minutes.	3429592	1472005816360	1472005816475	s	83
6684	72109	I'll send you minutes.	I'll send you minutes.	3429594	1472005817435	1472005817497	.	190
6684	72127	I will need to get you set up in their system prior to Tuesday.	I will need to get you set up in their system prior to Tuesday.	3430132	1472005827825	1472005828797	SHIFT	16
6684	72127	I will need to get you set up in their system prior to Tuesday.	I will need to get you set up in their system prior to Tuesday.	3430128	1472005828670	1472005828731	I	73
6684	72127	I will need to get you set up in their system prior to Tuesday.	I will need to get you set up in their system prior to Tuesday.	3430137	1472005829106	1472005829203	 	32
6684	72127	I will need to get you set up in their system prior to Tuesday.	I will need to get you set up in their system prior to Tuesday.	3430141	1472005829251	1472005829393	w	87
6684	72127	I will need to get you set up in their system prior to Tuesday.	I will need to get you set up in their system prior to Tuesday.	3430143	1472005829473	1472005829534	i	73
6684	72127	I will need to get you set up in their system prior to Tuesday.	I will need to get you set up in their system prior to Tuesday.	3430146	1472005829694	1472005829755	l	76
6684	72127	I will need to get you set up in their system prior to Tuesday.	I will need to get you set up in their system prior to Tuesday.	3430174	1472005829852	1472005829913	l	76
6684	72127	I will need to get you set up in their system prior to Tuesday.	I will need to get you set up in their system prior to Tuesday.	3430176	1472005829992	1472005830089	 	32
6684	72127	I will need to get you set up in their system prior to Tuesday.	I will need to get you set up in their system prior to Tuesday.	3430178	1472005830399	1472005830460	n	78
6684	72127	I will need to get you set up in their system prior to Tuesday.	I will need to get you set up in their system prior to Tuesday.	3430181	1472005830690	1472005830751	e	69
6684	72127	I will need to get you set up in their system prior to Tuesday.	I will need to get you set up in their system prior to Tuesday.	3430184	1472005830848	1472005830936	e	69
6684	72127	I will need to get you set up in their system prior to Tuesday.	I will need to get you set up in their system prior to Tuesday.	3430244	1472005831284	1472005831372	d	68
6684	72127	I will need to get you set up in their system prior to Tuesday.	I will need to get you set up in their system prior to Tuesday.	3430246	1472005831436	1472005831541	 	32
6684	72127	I will need to get you set up in their system prior to Tuesday.	I will need to get you set up in their system prior to Tuesday.	3430249	1472005831707	1472005831777	t	84
6684	72127	I will need to get you set up in their system prior to Tuesday.	I will need to get you set up in their system prior to Tuesday.	3430252	1472005831803	1472005831891	o	79
6684	72127	I will need to get you set up in their system prior to Tuesday.	I will need to get you set up in their system prior to Tuesday.	3430255	1472005832025	1472005832122	 	32
6684	72127	I will need to get you set up in their system prior to Tuesday.	I will need to get you set up in their system prior to Tuesday.	3430339	1472005832306	1472005832384	g	71
6684	72127	I will need to get you set up in their system prior to Tuesday.	I will need to get you set up in their system prior to Tuesday.	3430343	1472005832561	1472005832613	e	69
6684	72127	I will need to get you set up in their system prior to Tuesday.	I will need to get you set up in their system prior to Tuesday.	3430345	1472005832872	1472005832978	t	84
6684	72127	I will need to get you set up in their system prior to Tuesday.	I will need to get you set up in their system prior to Tuesday.	3430347	1472005833059	1472005833138	 	32
6684	72127	I will need to get you set up in their system prior to Tuesday.	I will need to get you set up in their system prior to Tuesday.	3430349	1472005834085	1472005834164	y	89
6684	72127	I will need to get you set up in their system prior to Tuesday.	I will need to get you set up in their system prior to Tuesday.	3430386	1472005834271	1472005834359	o	79
6684	72127	I will need to get you set up in their system prior to Tuesday.	I will need to get you set up in their system prior to Tuesday.	3430388	1472005834454	1472005834569	u	85
6684	72127	I will need to get you set up in their system prior to Tuesday.	I will need to get you set up in their system prior to Tuesday.	3430391	1472005834659	1472005834782	 	32
6684	72127	I will need to get you set up in their system prior to Tuesday.	I will need to get you set up in their system prior to Tuesday.	3430394	1472005834965	1472005835080	s	83
6684	72127	I will need to get you set up in their system prior to Tuesday.	I will need to get you set up in their system prior to Tuesday.	3430397	1472005835213	1472005835292	e	69
6684	72127	I will need to get you set up in their system prior to Tuesday.	I will need to get you set up in their system prior to Tuesday.	3430439	1472005835452	1472005835539	t	84
6684	72127	I will need to get you set up in their system prior to Tuesday.	I will need to get you set up in their system prior to Tuesday.	3430441	1472005835603	1472005835727	 	32
6684	72127	I will need to get you set up in their system prior to Tuesday.	I will need to get you set up in their system prior to Tuesday.	3430443	1472005835875	1472005835972	u	85
6684	72127	I will need to get you set up in their system prior to Tuesday.	I will need to get you set up in their system prior to Tuesday.	3430446	1472005836160	1472005836293	p	80
6684	72127	I will need to get you set up in their system prior to Tuesday.	I will need to get you set up in their system prior to Tuesday.	3430451	1472005836354	1472005836487	 	32
6684	72127	I will need to get you set up in their system prior to Tuesday.	I will need to get you set up in their system prior to Tuesday.	3430493	1472005836636	1472005836741	i	73
6684	72127	I will need to get you set up in their system prior to Tuesday.	I will need to get you set up in their system prior to Tuesday.	3430494	1472005836811	1472005836961	n	78
6684	72127	I will need to get you set up in their system prior to Tuesday.	I will need to get you set up in their system prior to Tuesday.	3430496	1472005836988	1472005837130	 	32
6684	72127	I will need to get you set up in their system prior to Tuesday.	I will need to get you set up in their system prior to Tuesday.	3430498	1472005837269	1472005837375	t	84
6684	72127	I will need to get you set up in their system prior to Tuesday.	I will need to get you set up in their system prior to Tuesday.	3430500	1472005837436	1472005837533	h	72
6684	72127	I will need to get you set up in their system prior to Tuesday.	I will need to get you set up in their system prior to Tuesday.	3430609	1472005839379	1472005839493	e	69
6684	72127	I will need to get you set up in their system prior to Tuesday.	I will need to get you set up in their system prior to Tuesday.	3430613	1472005839510	1472005839607	i	73
6684	72127	I will need to get you set up in their system prior to Tuesday.	I will need to get you set up in their system prior to Tuesday.	3430617	1472005839972	1472005840051	r	82
6684	72127	I will need to get you set up in their system prior to Tuesday.	I will need to get you set up in their system prior to Tuesday.	3430622	1472005840079	1472005840220	 	32
6684	72127	I will need to get you set up in their system prior to Tuesday.	I will need to get you set up in their system prior to Tuesday.	3430627	1472005840654	1472005840769	s	83
6684	72127	I will need to get you set up in their system prior to Tuesday.	I will need to get you set up in their system prior to Tuesday.	3430669	1472005840894	1472005840973	y	89
6684	72127	I will need to get you set up in their system prior to Tuesday.	I will need to get you set up in their system prior to Tuesday.	3430673	1472005841068	1472005841174	s	83
6684	72127	I will need to get you set up in their system prior to Tuesday.	I will need to get you set up in their system prior to Tuesday.	3430679	1472005841478	1472005841548	t	84
6684	72127	I will need to get you set up in their system prior to Tuesday.	I will need to get you set up in their system prior to Tuesday.	3430684	1472005841707	1472005841840	e	69
6684	72127	I will need to get you set up in their system prior to Tuesday.	I will need to get you set up in their system prior to Tuesday.	3430687	1472005842036	1472005842151	m	77
6684	72127	I will need to get you set up in their system prior to Tuesday.	I will need to get you set up in their system prior to Tuesday.	3430804	1472005842178	1472005842338	 	32
6684	72127	I will need to get you set up in their system prior to Tuesday.	I will need to get you set up in their system prior to Tuesday.	3430807	1472005843582	1472005843643	p	80
6684	72127	I will need to get you set up in their system prior to Tuesday.	I will need to get you set up in their system prior to Tuesday.	3430810	1472005843855	1472005843942	r	82
6684	72127	I will need to get you set up in their system prior to Tuesday.	I will need to get you set up in their system prior to Tuesday.	3430812	1472005844130	1472005844190	i	73
6684	72127	I will need to get you set up in their system prior to Tuesday.	I will need to get you set up in their system prior to Tuesday.	3430814	1472005844351	1472005844429	o	79
6684	72127	I will need to get you set up in their system prior to Tuesday.	I will need to get you set up in their system prior to Tuesday.	3430852	1472005844839	1472005844969	r	82
6684	72127	I will need to get you set up in their system prior to Tuesday.	I will need to get you set up in their system prior to Tuesday.	3430855	1472005844947	1472005845070	 	32
6684	72127	I will need to get you set up in their system prior to Tuesday.	I will need to get you set up in their system prior to Tuesday.	3430859	1472005845137	1472005845260	t	84
6684	72127	I will need to get you set up in their system prior to Tuesday.	I will need to get you set up in their system prior to Tuesday.	3430863	1472005845305	1472005845428	o	79
6684	72127	I will need to get you set up in their system prior to Tuesday.	I will need to get you set up in their system prior to Tuesday.	3430869	1472005845454	1472005845569	 	32
6684	72127	I will need to get you set up in their system prior to Tuesday.	I will need to get you set up in their system prior to Tuesday.	3430979	1472005846279	1472005846802	SHIFT	16
6684	72127	I will need to get you set up in their system prior to Tuesday.	I will need to get you set up in their system prior to Tuesday.	3430977	1472005846693	1472005846772	T	84
6684	72127	I will need to get you set up in their system prior to Tuesday.	I will need to get you set up in their system prior to Tuesday.	3430981	1472005847083	1472005847161	u	85
6684	72127	I will need to get you set up in their system prior to Tuesday.	I will need to get you set up in their system prior to Tuesday.	3430984	1472005847356	1472005847434	e	69
6684	72127	I will need to get you set up in their system prior to Tuesday.	I will need to get you set up in their system prior to Tuesday.	3430989	1472005847656	1472005847762	s	83
6684	72127	I will need to get you set up in their system prior to Tuesday.	I will need to get you set up in their system prior to Tuesday.	3430994	1472005848012	1472005848091	d	68
6684	72127	I will need to get you set up in their system prior to Tuesday.	I will need to get you set up in their system prior to Tuesday.	3431063	1472005848267	1472005848399	a	65
6684	72127	I will need to get you set up in their system prior to Tuesday.	I will need to get you set up in their system prior to Tuesday.	3431066	1472005848579	1472005848640	y	89
6684	72127	I will need to get you set up in their system prior to Tuesday.	I will need to get you set up in their system prior to Tuesday.	3431068	1472005849330	1472005849418	.	190
6684	72156	He has developed a good on-field relationship with QB Brad Johnson.	He has developed a good on-field relationship with QB Brad Johnson.	3431716	1472005860221	1472005861157	SHIFT	16
6684	72156	He has developed a good on-field relationship with QB Brad Johnson.	He has developed a good on-field relationship with QB Brad Johnson.	3431714	1472005861084	1472005861127	H	72
6684	72156	He has developed a good on-field relationship with QB Brad Johnson.	He has developed a good on-field relationship with QB Brad Johnson.	3431719	1472005861517	1472005861623	e	69
6684	72156	He has developed a good on-field relationship with QB Brad Johnson.	He has developed a good on-field relationship with QB Brad Johnson.	3431722	1472005861794	1472005861918	 	32
6684	72156	He has developed a good on-field relationship with QB Brad Johnson.	He has developed a good on-field relationship with QB Brad Johnson.	3431725	1472005862416	1472005862478	h	72
6684	72156	He has developed a good on-field relationship with QB Brad Johnson.	He has developed a good on-field relationship with QB Brad Johnson.	3431728	1472005862528	1472005862634	a	65
6684	72156	He has developed a good on-field relationship with QB Brad Johnson.	He has developed a good on-field relationship with QB Brad Johnson.	3431777	1472005862704	1472005862819	s	83
6684	72156	He has developed a good on-field relationship with QB Brad Johnson.	He has developed a good on-field relationship with QB Brad Johnson.	3431779	1472005862910	1472005863025	 	32
6684	72156	He has developed a good on-field relationship with QB Brad Johnson.	He has developed a good on-field relationship with QB Brad Johnson.	3431781	1472005863298	1472005863386	d	68
6684	72156	He has developed a good on-field relationship with QB Brad Johnson.	He has developed a good on-field relationship with QB Brad Johnson.	3431783	1472005863491	1472005863597	e	69
6684	72156	He has developed a good on-field relationship with QB Brad Johnson.	He has developed a good on-field relationship with QB Brad Johnson.	3431786	1472005863990	1472005864060	v	86
6684	72156	He has developed a good on-field relationship with QB Brad Johnson.	He has developed a good on-field relationship with QB Brad Johnson.	3431911	1472005865466	1472005865572	e	69
6684	72156	He has developed a good on-field relationship with QB Brad Johnson.	He has developed a good on-field relationship with QB Brad Johnson.	3431914	1472005865958	1472005866018	l	76
6684	72156	He has developed a good on-field relationship with QB Brad Johnson.	He has developed a good on-field relationship with QB Brad Johnson.	3431917	1472005866160	1472005866212	o	79
6684	72156	He has developed a good on-field relationship with QB Brad Johnson.	He has developed a good on-field relationship with QB Brad Johnson.	3431920	1472005866426	1472005866487	p	80
6684	72156	He has developed a good on-field relationship with QB Brad Johnson.	He has developed a good on-field relationship with QB Brad Johnson.	3431923	1472005866680	1472005866785	e	69
6684	72156	He has developed a good on-field relationship with QB Brad Johnson.	He has developed a good on-field relationship with QB Brad Johnson.	3432060	1472005866936	1472005867051	d	68
6684	72156	He has developed a good on-field relationship with QB Brad Johnson.	He has developed a good on-field relationship with QB Brad Johnson.	3432062	1472005867177	1472005867274	 	32
6684	72156	He has developed a good on-field relationship with QB Brad Johnson.	He has developed a good on-field relationship with QB Brad Johnson.	3432066	1472005867564	1472005867688	a	65
6684	72156	He has developed a good on-field relationship with QB Brad Johnson.	He has developed a good on-field relationship with QB Brad Johnson.	3432070	1472005867752	1472005867849	 	32
6684	72156	He has developed a good on-field relationship with QB Brad Johnson.	He has developed a good on-field relationship with QB Brad Johnson.	3432074	1472005869020	1472005869108	g	71
6684	72156	He has developed a good on-field relationship with QB Brad Johnson.	He has developed a good on-field relationship with QB Brad Johnson.	3432138	1472005869278	1472005869339	o	79
6684	72156	He has developed a good on-field relationship with QB Brad Johnson.	He has developed a good on-field relationship with QB Brad Johnson.	3432142	1472005869453	1472005869541	o	79
6684	72156	He has developed a good on-field relationship with QB Brad Johnson.	He has developed a good on-field relationship with QB Brad Johnson.	3432144	1472005869609	1472005869733	d	68
6684	72156	He has developed a good on-field relationship with QB Brad Johnson.	He has developed a good on-field relationship with QB Brad Johnson.	3432148	1472005869832	1472005869947	 	32
6684	72156	He has developed a good on-field relationship with QB Brad Johnson.	He has developed a good on-field relationship with QB Brad Johnson.	3432153	1472005870985	1472005871082	o	79
6684	72156	He has developed a good on-field relationship with QB Brad Johnson.	He has developed a good on-field relationship with QB Brad Johnson.	3432235	1472005871294	1472005871364	n	78
6684	72156	He has developed a good on-field relationship with QB Brad Johnson.	He has developed a good on-field relationship with QB Brad Johnson.	3432236	1472005871974	1472005872061	-	189
6684	72156	He has developed a good on-field relationship with QB Brad Johnson.	He has developed a good on-field relationship with QB Brad Johnson.	3432237	1472005872659	1472005872755	f	70
6684	72156	He has developed a good on-field relationship with QB Brad Johnson.	He has developed a good on-field relationship with QB Brad Johnson.	3432239	1472005872934	1472005873012	i	73
6684	72156	He has developed a good on-field relationship with QB Brad Johnson.	He has developed a good on-field relationship with QB Brad Johnson.	3432242	1472005873188	1472005873294	e	69
6684	72156	He has developed a good on-field relationship with QB Brad Johnson.	He has developed a good on-field relationship with QB Brad Johnson.	3432350	1472005873572	1472005873696	l	76
6684	72156	He has developed a good on-field relationship with QB Brad Johnson.	He has developed a good on-field relationship with QB Brad Johnson.	3432351	1472005873890	1472005874004	d	68
6684	72156	He has developed a good on-field relationship with QB Brad Johnson.	He has developed a good on-field relationship with QB Brad Johnson.	3432353	1472005874391	1472005874479	 	32
6684	72156	He has developed a good on-field relationship with QB Brad Johnson.	He has developed a good on-field relationship with QB Brad Johnson.	3432355	1472005875506	1472005875585	r	82
6684	72156	He has developed a good on-field relationship with QB Brad Johnson.	He has developed a good on-field relationship with QB Brad Johnson.	3432357	1472005875753	1472005875858	e	69
6684	72156	He has developed a good on-field relationship with QB Brad Johnson.	He has developed a good on-field relationship with QB Brad Johnson.	3432560	1472005877716	1472005877786	l	76
6684	72156	He has developed a good on-field relationship with QB Brad Johnson.	He has developed a good on-field relationship with QB Brad Johnson.	3432565	1472005877897	1472005878003	a	65
6684	72156	He has developed a good on-field relationship with QB Brad Johnson.	He has developed a good on-field relationship with QB Brad Johnson.	3432569	1472005879250	1472005879347	t	84
6684	72156	He has developed a good on-field relationship with QB Brad Johnson.	He has developed a good on-field relationship with QB Brad Johnson.	3432573	1472005879480	1472005879550	i	73
6684	72156	He has developed a good on-field relationship with QB Brad Johnson.	He has developed a good on-field relationship with QB Brad Johnson.	3432576	1472005879674	1472005879762	o	79
6684	72156	He has developed a good on-field relationship with QB Brad Johnson.	He has developed a good on-field relationship with QB Brad Johnson.	3432673	1472005879911	1472005880009	n	78
6684	72156	He has developed a good on-field relationship with QB Brad Johnson.	He has developed a good on-field relationship with QB Brad Johnson.	3432676	1472005880598	1472005880695	s	83
6684	72156	He has developed a good on-field relationship with QB Brad Johnson.	He has developed a good on-field relationship with QB Brad Johnson.	3432681	1472005881421	1472005881491	h	72
6684	72156	He has developed a good on-field relationship with QB Brad Johnson.	He has developed a good on-field relationship with QB Brad Johnson.	3432684	1472005881714	1472005881802	i	73
6684	72156	He has developed a good on-field relationship with QB Brad Johnson.	He has developed a good on-field relationship with QB Brad Johnson.	3432686	1472005882178	1472005882301	p	80
6684	72156	He has developed a good on-field relationship with QB Brad Johnson.	He has developed a good on-field relationship with QB Brad Johnson.	3432733	1472005883044	1472005883150	 	32
6684	72156	He has developed a good on-field relationship with QB Brad Johnson.	He has developed a good on-field relationship with QB Brad Johnson.	3432735	1472005883199	1472005883349	w	87
6684	72156	He has developed a good on-field relationship with QB Brad Johnson.	He has developed a good on-field relationship with QB Brad Johnson.	3432738	1472005883484	1472005883607	i	73
6684	72156	He has developed a good on-field relationship with QB Brad Johnson.	He has developed a good on-field relationship with QB Brad Johnson.	3432741	1472005883748	1472005883861	t	84
6684	72156	He has developed a good on-field relationship with QB Brad Johnson.	He has developed a good on-field relationship with QB Brad Johnson.	3432897	1472005883836	1472005884012	h	72
6684	72156	He has developed a good on-field relationship with QB Brad Johnson.	He has developed a good on-field relationship with QB Brad Johnson.	3432900	1472005884052	1472005884144	 	32
6684	72156	He has developed a good on-field relationship with QB Brad Johnson.	He has developed a good on-field relationship with QB Brad Johnson.	3432911	1472005884352	1472005885410	SHIFT	16
6684	72156	He has developed a good on-field relationship with QB Brad Johnson.	He has developed a good on-field relationship with QB Brad Johnson.	3432904	1472005884747	1472005884879	Q	81
6684	72156	He has developed a good on-field relationship with QB Brad Johnson.	He has developed a good on-field relationship with QB Brad Johnson.	3432907	1472005885256	1472005885371	B	66
6684	72156	He has developed a good on-field relationship with QB Brad Johnson.	He has developed a good on-field relationship with QB Brad Johnson.	3432915	1472005885584	1472005885708	 	32
6684	72156	He has developed a good on-field relationship with QB Brad Johnson.	He has developed a good on-field relationship with QB Brad Johnson.	3433010	1472005886248	1472005887229	SHIFT	16
6684	72156	He has developed a good on-field relationship with QB Brad Johnson.	He has developed a good on-field relationship with QB Brad Johnson.	3432919	1472005887075	1472005887145	B	66
6684	72156	He has developed a good on-field relationship with QB Brad Johnson.	He has developed a good on-field relationship with QB Brad Johnson.	3433016	1472005887527	1472005887587	r	82
6684	72156	He has developed a good on-field relationship with QB Brad Johnson.	He has developed a good on-field relationship with QB Brad Johnson.	3433020	1472005887889	1472005888013	a	65
6684	72156	He has developed a good on-field relationship with QB Brad Johnson.	He has developed a good on-field relationship with QB Brad Johnson.	3433027	1472005888119	1472005888243	d	68
6684	72156	He has developed a good on-field relationship with QB Brad Johnson.	He has developed a good on-field relationship with QB Brad Johnson.	3433035	1472005888334	1472005888431	 	32
6684	72156	He has developed a good on-field relationship with QB Brad Johnson.	He has developed a good on-field relationship with QB Brad Johnson.	3433135	1472005888512	1472005890579	SHIFT	16
6684	72156	He has developed a good on-field relationship with QB Brad Johnson.	He has developed a good on-field relationship with QB Brad Johnson.	3433041	1472005890444	1472005890505	J	74
6684	72156	He has developed a good on-field relationship with QB Brad Johnson.	He has developed a good on-field relationship with QB Brad Johnson.	3433137	1472005890905	1472005890957	o	79
6684	72156	He has developed a good on-field relationship with QB Brad Johnson.	He has developed a good on-field relationship with QB Brad Johnson.	3433141	1472005891708	1472005891796	h	72
6684	72156	He has developed a good on-field relationship with QB Brad Johnson.	He has developed a good on-field relationship with QB Brad Johnson.	3433147	1472005892036	1472005892097	n	78
6684	72156	He has developed a good on-field relationship with QB Brad Johnson.	He has developed a good on-field relationship with QB Brad Johnson.	3433154	1472005892542	1472005892648	s	83
6684	72156	He has developed a good on-field relationship with QB Brad Johnson.	He has developed a good on-field relationship with QB Brad Johnson.	3433160	1472005892837	1472005892933	o	79
6684	72156	He has developed a good on-field relationship with QB Brad Johnson.	He has developed a good on-field relationship with QB Brad Johnson.	3433233	1472005893155	1472005893278	n	78
6684	72156	He has developed a good on-field relationship with QB Brad Johnson.	He has developed a good on-field relationship with QB Brad Johnson.	3433237	1472005894184	1472005894254	.	190
6684	72203	Can you try this again?	Can you try this again.	3433574	1472005900168	1472005900541	SHIFT	16
6684	72203	Can you try this again?	Can you try this again.	3433577	1472005900465	1472005900560	C	67
6684	72203	Can you try this again?	Can you try this again.	3433581	1472005900682	1472005900833	a	65
6684	72203	Can you try this again?	Can you try this again.	3433588	1472005900914	1472005901046	n	78
6684	72203	Can you try this again?	Can you try this again.	3433595	1472005901100	1472005901224	 	32
6684	72203	Can you try this again?	Can you try this again.	3433602	1472005901399	1472005901478	y	89
6684	72203	Can you try this again?	Can you try this again.	3433654	1472005901531	1472005901645	o	79
6684	72203	Can you try this again?	Can you try this again.	3433656	1472005901714	1472005901793	u	85
6684	72203	Can you try this again?	Can you try this again.	3433660	1472005901874	1472005901979	 	32
6684	72203	Can you try this again?	Can you try this again.	3433664	1472005902155	1472005902224	t	84
6684	72203	Can you try this again?	Can you try this again.	3433669	1472005902662	1472005902750	r	82
6684	72203	Can you try this again?	Can you try this again.	3433713	1472005902883	1472005902989	y	89
6684	72203	Can you try this again?	Can you try this again.	3433717	1472005903042	1472005903193	 	32
6684	72203	Can you try this again?	Can you try this again.	3433726	1472005903287	1472005903375	t	84
6684	72203	Can you try this again?	Can you try this again.	3433734	1472005903427	1472005903551	h	72
6684	72203	Can you try this again?	Can you try this again.	3433738	1472005903657	1472005903808	i	73
6684	72203	Can you try this again?	Can you try this again.	3433785	1472005903884	1472005903981	s	83
6684	72203	Can you try this again?	Can you try this again.	3433789	1472005904045	1472005904160	 	32
6684	72203	Can you try this again?	Can you try this again.	3433792	1472005904361	1472005904475	a	65
6684	72203	Can you try this again?	Can you try this again.	3433796	1472005904762	1472005904850	g	71
6684	72203	Can you try this again?	Can you try this again.	3433799	1472005904990	1472005905131	a	65
6684	72203	Can you try this again?	Can you try this again.	3433862	1472005905249	1472005905327	i	73
6684	72203	Can you try this again?	Can you try this again.	3433868	1472005905513	1472005905592	n	78
6684	72203	Can you try this again?	Can you try this again.	3433874	1472005906031	1472005906092	.	190
6684	72220	Davis was listed as questionable on the weekly injury report.	Davis was listed as questionable on the weekly injury report.	3434270	1472005912245	1472005912697	SHIFT	16
6684	72220	Davis was listed as questionable on the weekly injury report.	Davis was listed as questionable on the weekly injury report.	3434268	1472005912587	1472005912675	D	68
6684	72220	Davis was listed as questionable on the weekly injury report.	Davis was listed as questionable on the weekly injury report.	3434274	1472005912813	1472005912982	a	65
6684	72220	Davis was listed as questionable on the weekly injury report.	Davis was listed as questionable on the weekly injury report.	3434277	1472005913187	1472005913284	v	86
6684	72220	Davis was listed as questionable on the weekly injury report.	Davis was listed as questionable on the weekly injury report.	3434278	1472005913526	1472005913658	i	73
6684	72220	Davis was listed as questionable on the weekly injury report.	Davis was listed as questionable on the weekly injury report.	3434279	1472005913744	1472005913850	s	83
6684	72220	Davis was listed as questionable on the weekly injury report.	Davis was listed as questionable on the weekly injury report.	3434319	1472005913905	1472005914019	 	32
6684	72220	Davis was listed as questionable on the weekly injury report.	Davis was listed as questionable on the weekly injury report.	3434320	1472005914166	1472005914281	w	87
6684	72220	Davis was listed as questionable on the weekly injury report.	Davis was listed as questionable on the weekly injury report.	3434321	1472005914539	1472005914663	a	65
6684	72220	Davis was listed as questionable on the weekly injury report.	Davis was listed as questionable on the weekly injury report.	3434322	1472005914724	1472005914839	s	83
6684	72220	Davis was listed as questionable on the weekly injury report.	Davis was listed as questionable on the weekly injury report.	3434323	1472005914894	1472005915027	 	32
6684	72220	Davis was listed as questionable on the weekly injury report.	Davis was listed as questionable on the weekly injury report.	3434419	1472005915294	1472005915381	l	76
6684	72220	Davis was listed as questionable on the weekly injury report.	Davis was listed as questionable on the weekly injury report.	3434422	1472005915720	1472005915817	i	73
6684	72220	Davis was listed as questionable on the weekly injury report.	Davis was listed as questionable on the weekly injury report.	3434425	1472005916001	1472005916107	s	83
6684	72220	Davis was listed as questionable on the weekly injury report.	Davis was listed as questionable on the weekly injury report.	3434426	1472005916285	1472005916373	t	84
6684	72220	Davis was listed as questionable on the weekly injury report.	Davis was listed as questionable on the weekly injury report.	3434427	1472005916532	1472005916638	e	69
6684	72220	Davis was listed as questionable on the weekly injury report.	Davis was listed as questionable on the weekly injury report.	3434467	1472005916761	1472005916840	d	68
6684	72220	Davis was listed as questionable on the weekly injury report.	Davis was listed as questionable on the weekly injury report.	3434470	1472005916958	1472005917072	 	32
6684	72220	Davis was listed as questionable on the weekly injury report.	Davis was listed as questionable on the weekly injury report.	3434473	1472005917264	1472005917388	a	65
6684	72220	Davis was listed as questionable on the weekly injury report.	Davis was listed as questionable on the weekly injury report.	3434476	1472005917431	1472005917545	s	83
6684	72220	Davis was listed as questionable on the weekly injury report.	Davis was listed as questionable on the weekly injury report.	3434480	1472005917619	1472005917751	 	32
6684	72220	Davis was listed as questionable on the weekly injury report.	Davis was listed as questionable on the weekly injury report.	3434666	1472005918966	1472005919117	q	81
6684	72220	Davis was listed as questionable on the weekly injury report.	Davis was listed as questionable on the weekly injury report.	3434668	1472005919341	1472005919447	u	85
6684	72220	Davis was listed as questionable on the weekly injury report.	Davis was listed as questionable on the weekly injury report.	3434672	1472005920009	1472005920097	e	69
6684	72220	Davis was listed as questionable on the weekly injury report.	Davis was listed as questionable on the weekly injury report.	3434675	1472005920373	1472005920469	s	83
6684	72220	Davis was listed as questionable on the weekly injury report.	Davis was listed as questionable on the weekly injury report.	3434677	1472005920809	1472005920897	t	84
6684	72220	Davis was listed as questionable on the weekly injury report.	Davis was listed as questionable on the weekly injury report.	3434776	1472005921067	1472005921127	i	73
6684	72220	Davis was listed as questionable on the weekly injury report.	Davis was listed as questionable on the weekly injury report.	3434778	1472005921242	1472005921313	o	79
6684	72220	Davis was listed as questionable on the weekly injury report.	Davis was listed as questionable on the weekly injury report.	3434782	1472005921516	1472005921586	n	78
6684	72220	Davis was listed as questionable on the weekly injury report.	Davis was listed as questionable on the weekly injury report.	3434786	1472005921860	1472005921975	a	65
6684	72220	Davis was listed as questionable on the weekly injury report.	Davis was listed as questionable on the weekly injury report.	3434789	1472005922432	1472005922537	b	66
6684	72220	Davis was listed as questionable on the weekly injury report.	Davis was listed as questionable on the weekly injury report.	3434872	1472005922717	1472005922804	l	76
6684	72220	Davis was listed as questionable on the weekly injury report.	Davis was listed as questionable on the weekly injury report.	3434876	1472005923015	1472005923130	e	69
6684	72220	Davis was listed as questionable on the weekly injury report.	Davis was listed as questionable on the weekly injury report.	3434877	1472005923365	1472005923461	 	32
6684	72220	Davis was listed as questionable on the weekly injury report.	Davis was listed as questionable on the weekly injury report.	3434879	1472005924015	1472005924148	o	79
6684	72220	Davis was listed as questionable on the weekly injury report.	Davis was listed as questionable on the weekly injury report.	3434882	1472005924243	1472005924430	n	78
6684	72220	Davis was listed as questionable on the weekly injury report.	Davis was listed as questionable on the weekly injury report.	3434925	1472005924448	1472005924614	 	32
6684	72220	Davis was listed as questionable on the weekly injury report.	Davis was listed as questionable on the weekly injury report.	3434926	1472005924614	1472005924717	t	84
6684	72220	Davis was listed as questionable on the weekly injury report.	Davis was listed as questionable on the weekly injury report.	3434927	1472005924787	1472005924909	h	72
6684	72220	Davis was listed as questionable on the weekly injury report.	Davis was listed as questionable on the weekly injury report.	3434929	1472005924874	1472005925014	e	69
6684	72220	Davis was listed as questionable on the weekly injury report.	Davis was listed as questionable on the weekly injury report.	3434931	1472005925060	1472005925183	 	32
6684	72220	Davis was listed as questionable on the weekly injury report.	Davis was listed as questionable on the weekly injury report.	3435078	1472005925896	1472005926011	w	87
6684	72220	Davis was listed as questionable on the weekly injury report.	Davis was listed as questionable on the weekly injury report.	3435082	1472005926153	1472005926249	e	69
6684	72220	Davis was listed as questionable on the weekly injury report.	Davis was listed as questionable on the weekly injury report.	3435086	1472005926346	1472005926443	e	69
6684	72220	Davis was listed as questionable on the weekly injury report.	Davis was listed as questionable on the weekly injury report.	3435089	1472005926613	1472005926728	l	76
6684	72220	Davis was listed as questionable on the weekly injury report.	Davis was listed as questionable on the weekly injury report.	3435095	1472005927714	1472005927793	BKSP	8
6684	72220	Davis was listed as questionable on the weekly injury report.	Davis was listed as questionable on the weekly injury report.	3435099	1472005928175	1472005928218	k	75
6684	72220	Davis was listed as questionable on the weekly injury report.	Davis was listed as questionable on the weekly injury report.	3435218	1472005928468	1472005928547	l	76
6684	72220	Davis was listed as questionable on the weekly injury report.	Davis was listed as questionable on the weekly injury report.	3435221	1472005929199	1472005929277	y	89
6684	72220	Davis was listed as questionable on the weekly injury report.	Davis was listed as questionable on the weekly injury report.	3435223	1472005929466	1472005929580	 	32
6684	72220	Davis was listed as questionable on the weekly injury report.	Davis was listed as questionable on the weekly injury report.	3435226	1472005930340	1472005930437	i	73
6684	72220	Davis was listed as questionable on the weekly injury report.	Davis was listed as questionable on the weekly injury report.	3435230	1472005930569	1472005930665	n	78
6684	72220	Davis was listed as questionable on the weekly injury report.	Davis was listed as questionable on the weekly injury report.	3435342	1472005931355	1472005931434	j	74
6684	72220	Davis was listed as questionable on the weekly injury report.	Davis was listed as questionable on the weekly injury report.	3435347	1472005931620	1472005931699	u	85
6684	72220	Davis was listed as questionable on the weekly injury report.	Davis was listed as questionable on the weekly injury report.	3435352	1472005932010	1472005932107	r	82
6684	72220	Davis was listed as questionable on the weekly injury report.	Davis was listed as questionable on the weekly injury report.	3435358	1472005932402	1472005932499	y	89
6684	72220	Davis was listed as questionable on the weekly injury report.	Davis was listed as questionable on the weekly injury report.	3435363	1472005932652	1472005932785	 	32
6684	72220	Davis was listed as questionable on the weekly injury report.	Davis was listed as questionable on the weekly injury report.	3435406	1472005932914	1472005933011	r	82
6684	72220	Davis was listed as questionable on the weekly injury report.	Davis was listed as questionable on the weekly injury report.	3435409	1472005933053	1472005933204	e	69
6684	72220	Davis was listed as questionable on the weekly injury report.	Davis was listed as questionable on the weekly injury report.	3435412	1472005933348	1472005933463	p	80
6684	72220	Davis was listed as questionable on the weekly injury report.	Davis was listed as questionable on the weekly injury report.	3435416	1472005933568	1472005933701	o	79
6684	72220	Davis was listed as questionable on the weekly injury report.	Davis was listed as questionable on the weekly injury report.	3435419	1472005933931	1472005933964	r	82
6684	72220	Davis was listed as questionable on the weekly injury report.	Davis was listed as questionable on the weekly injury report.	3435472	1472005934429	1472005934490	t	84
6684	72220	Davis was listed as questionable on the weekly injury report.	Davis was listed as questionable on the weekly injury report.	3435474	1472005935100	1472005935152	.	190
6684	72251	That would be great.	That would be great.	3435700	1472005938425	1472005939119	SHIFT	16
6684	72251	That would be great.	That would be great.	3435697	1472005938947	1472005939044	T	84
6684	72251	That would be great.	That would be great.	3435705	1472005939193	1472005939308	h	72
6684	72251	That would be great.	That would be great.	3435713	1472005939483	1472005939580	a	65
6684	72251	That would be great.	That would be great.	3435719	1472005939732	1472005939811	t	84
6684	72251	That would be great.	That would be great.	3435724	1472005939865	1472005939989	 	32
6684	72251	That would be great.	That would be great.	3435805	1472005940109	1472005940232	w	87
6684	72251	That would be great.	That would be great.	3435807	1472005940359	1472005940491	o	79
6684	72251	That would be great.	That would be great.	3435813	1472005940605	1472005940701	u	85
6684	72251	That would be great.	That would be great.	3435816	1472005941095	1472005941219	l	76
6684	72251	That would be great.	That would be great.	3435820	1472005941251	1472005941386	d	68
6684	72251	That would be great.	That would be great.	3435902	1472005941385	1472005941499	 	32
6684	72251	That would be great.	That would be great.	3435907	1472005941683	1472005941798	b	66
6684	72251	That would be great.	That would be great.	3435910	1472005941867	1472005941982	e	69
6684	72251	That would be great.	That would be great.	3435914	1472005942037	1472005942142	 	32
6684	72251	That would be great.	That would be great.	3435919	1472005942497	1472005942575	g	71
6684	72251	That would be great.	That would be great.	3435921	1472005942699	1472005942814	r	82
6684	72251	That would be great.	That would be great.	3436001	1472005942946	1472005943061	e	69
6684	72251	That would be great.	That would be great.	3436004	1472005943228	1472005943388	a	65
6684	72251	That would be great.	That would be great.	3436008	1472005943486	1472005943574	t	84
6684	72251	That would be great.	That would be great.	3436010	1472005944004	1472005944101	.	190
6684	72264	It's still going on - quite boring though.	It's still going on - quite boring though.	3436602	1472005950857	1472005951749	SHIFT	16
6684	72264	It's still going on - quite boring though.	It's still going on - quite boring though.	3436598	1472005951667	1472005951728	I	73
6684	72264	It's still going on - quite boring though.	It's still going on - quite boring though.	3436606	1472005952011	1472005952089	t	84
6684	72264	It's still going on - quite boring though.	It's still going on - quite boring though.	3436609	1472005952574	1472005952635	'	222
6684	72264	It's still going on - quite boring though.	It's still going on - quite boring though.	3436611	1472005952944	1472005953032	s	83
6684	72264	It's still going on - quite boring though.	It's still going on - quite boring though.	3436613	1472005953060	1472005953157	 	32
6684	72264	It's still going on - quite boring though.	It's still going on - quite boring though.	3436684	1472005953466	1472005953535	s	83
6684	72264	It's still going on - quite boring though.	It's still going on - quite boring though.	3436687	1472005953750	1472005953820	t	84
6684	72264	It's still going on - quite boring though.	It's still going on - quite boring though.	3436689	1472005953980	1472005954041	i	73
6684	72264	It's still going on - quite boring though.	It's still going on - quite boring though.	3436694	1472005954201	1472005954253	l	76
6684	72264	It's still going on - quite boring though.	It's still going on - quite boring though.	3436697	1472005954358	1472005954428	l	76
6684	72264	It's still going on - quite boring though.	It's still going on - quite boring though.	3436746	1472005954490	1472005954614	 	32
6684	72264	It's still going on - quite boring though.	It's still going on - quite boring though.	3436747	1472005954717	1472005954822	g	71
6684	72264	It's still going on - quite boring though.	It's still going on - quite boring though.	3436749	1472005954929	1472005955026	o	79
6684	72264	It's still going on - quite boring though.	It's still going on - quite boring though.	3436753	1472005955140	1472005955228	i	73
6684	72264	It's still going on - quite boring though.	It's still going on - quite boring though.	3436757	1472005955468	1472005955583	n	78
6684	72264	It's still going on - quite boring though.	It's still going on - quite boring though.	3436820	1472005955715	1472005955793	g	71
6684	72264	It's still going on - quite boring though.	It's still going on - quite boring though.	3436823	1472005955857	1472005955945	 	32
6684	72264	It's still going on - quite boring though.	It's still going on - quite boring though.	3436828	1472005956130	1472005956218	o	79
6684	72264	It's still going on - quite boring though.	It's still going on - quite boring though.	3436832	1472005956384	1472005956508	n	78
6684	72264	It's still going on - quite boring though.	It's still going on - quite boring though.	3436836	1472005956598	1472005956676	 	32
6684	72264	It's still going on - quite boring though.	It's still going on - quite boring though.	3437145	1472005957141	1472005957229	BKSP	8
6684	72264	It's still going on - quite boring though.	It's still going on - quite boring though.	3437150	1472005957640	1472005957674	BKSP	8
6684	72264	It's still going on - quite boring though.	It's still going on - quite boring though.	3437155	1472005958917	1472005959005	n	78
6684	72264	It's still going on - quite boring though.	It's still going on - quite boring though.	3437161	1472005959139	1472005959209	 	32
6684	72264	It's still going on - quite boring though.	It's still going on - quite boring though.	3437168	1472005959399	1472005959711	SHIFT	16
6684	72264	It's still going on - quite boring though.	It's still going on - quite boring though.	3437172	1472005959992	1472005960062	-	189
6684	72264	It's still going on - quite boring though.	It's still going on - quite boring though.	3437178	1472005960590	1472005960660	 	32
6684	72264	It's still going on - quite boring though.	It's still going on - quite boring though.	3437183	1472005961982	1472005962079	q	81
6684	72264	It's still going on - quite boring though.	It's still going on - quite boring though.	3437260	1472005962277	1472005962338	i	73
6684	72264	It's still going on - quite boring though.	It's still going on - quite boring though.	3437262	1472005963190	1472005963251	BKSP	8
6684	72264	It's still going on - quite boring though.	It's still going on - quite boring though.	3437265	1472005963561	1472005963613	u	85
6684	72264	It's still going on - quite boring though.	It's still going on - quite boring though.	3437270	1472005963800	1472005963915	i	73
6684	72264	It's still going on - quite boring though.	It's still going on - quite boring though.	3437274	1472005964028	1472005964107	t	84
6684	72264	It's still going on - quite boring though.	It's still going on - quite boring though.	3437277	1472005964239	1472005964372	e	69
6684	72264	It's still going on - quite boring though.	It's still going on - quite boring though.	3437351	1472005964472	1472005964559	 	32
6684	72264	It's still going on - quite boring though.	It's still going on - quite boring though.	3437354	1472005964824	1472005964885	b	66
6684	72264	It's still going on - quite boring though.	It's still going on - quite boring though.	3437358	1472005965235	1472005965322	o	79
6684	72264	It's still going on - quite boring though.	It's still going on - quite boring though.	3437361	1472005965552	1472005965631	r	82
6684	72264	It's still going on - quite boring though.	It's still going on - quite boring though.	3437365	1472005965782	1472005965861	i	73
6684	72264	It's still going on - quite boring though.	It's still going on - quite boring though.	3437425	1472005966011	1472005966117	n	78
6684	72264	It's still going on - quite boring though.	It's still going on - quite boring though.	3437428	1472005966312	1472005966391	g	71
6684	72264	It's still going on - quite boring though.	It's still going on - quite boring though.	3437431	1472005966490	1472005966605	 	32
6684	72264	It's still going on - quite boring though.	It's still going on - quite boring though.	3437434	1472005966950	1472005967029	t	84
6684	72264	It's still going on - quite boring though.	It's still going on - quite boring though.	3437437	1472005967117	1472005967196	h	72
6684	72264	It's still going on - quite boring though.	It's still going on - quite boring though.	3437539	1472005967411	1472005967526	o	79
6684	72264	It's still going on - quite boring though.	It's still going on - quite boring though.	3437542	1472005967640	1472005967737	u	85
6684	72264	It's still going on - quite boring though.	It's still going on - quite boring though.	3437546	1472005968021	1472005968108	g	71
6684	72264	It's still going on - quite boring though.	It's still going on - quite boring though.	3437549	1472005968108	1472005968195	h	72
6684	72264	It's still going on - quite boring though.	It's still going on - quite boring though.	3437551	1472005968867	1472005968937	.	190
