PARTICIPANT_ID	TEST_SECTION_ID	SENTENCE	USER_INPUT	KEYSTROKE_ID	PRESS_TIME	RELEASE_TIME	LETTER	KEYCODE
6789	73065	I have no personal transactions with any Enron entity.	I have no personal transactions with any Enron enity.	3475442	1472006832584	1472006832630	i	73
6789	73065	I have no personal transactions with any Enron entity.	I have no personal transactions with any Enron enity.	3475444	1472006833942	1472006834037	BKSP	8
6789	73065	I have no personal transactions with any Enron entity.	I have no personal transactions with any Enron enity.	3475447	1472006834645	1472006834949	SHIFT	16
6789	73065	I have no personal transactions with any Enron entity.	I have no personal transactions with any Enron enity.	3475452	1472006834885	1472006834981	I	73
6789	73065	I have no personal transactions with any Enron entity.	I have no personal transactions with any Enron enity.	3475456	1472006835429	1472006835635	 	32
6789	73065	I have no personal transactions with any Enron entity.	I have no personal transactions with any Enron enity.	3475459	1472006836005	1472006836085	h	72
6789	73065	I have no personal transactions with any Enron entity.	I have no personal transactions with any Enron enity.	3475463	1472006836085	1472006836197	a	65
6789	73065	I have no personal transactions with any Enron entity.	I have no personal transactions with any Enron enity.	3475488	1472006836341	1472006836485	v	86
6789	73065	I have no personal transactions with any Enron entity.	I have no personal transactions with any Enron enity.	3475490	1472006836549	1472006836645	e	69
6789	73065	I have no personal transactions with any Enron entity.	I have no personal transactions with any Enron enity.	3475494	1472006836645	1472006836757	 	32
6789	73065	I have no personal transactions with any Enron entity.	I have no personal transactions with any Enron enity.	3475496	1472006836869	1472006836997	n	78
6789	73065	I have no personal transactions with any Enron entity.	I have no personal transactions with any Enron enity.	3475500	1472006837045	1472006837141	o	79
6789	73065	I have no personal transactions with any Enron entity.	I have no personal transactions with any Enron enity.	3475572	1472006837717	1472006837797	 	32
6789	73065	I have no personal transactions with any Enron entity.	I have no personal transactions with any Enron enity.	3475576	1472006837893	1472006838037	o	79
6789	73065	I have no personal transactions with any Enron entity.	I have no personal transactions with any Enron enity.	3475579	1472006838133	1472006838277	e	69
6789	73065	I have no personal transactions with any Enron entity.	I have no personal transactions with any Enron enity.	3475582	1472006838469	1472006838517	BKSP	8
6789	73065	I have no personal transactions with any Enron entity.	I have no personal transactions with any Enron enity.	3475587	1472006838597	1472006838677	BKSP	8
6789	73065	I have no personal transactions with any Enron entity.	I have no personal transactions with any Enron enity.	3475592	1472006839141	1472006839189	p	80
6789	73065	I have no personal transactions with any Enron entity.	I have no personal transactions with any Enron enity.	3475596	1472006839525	1472006839606	e	69
6789	73065	I have no personal transactions with any Enron entity.	I have no personal transactions with any Enron enity.	3475642	1472006839654	1472006839702	r	82
6789	73065	I have no personal transactions with any Enron entity.	I have no personal transactions with any Enron enity.	3475644	1472006841349	1472006841429	s	83
6789	73065	I have no personal transactions with any Enron entity.	I have no personal transactions with any Enron enity.	3475646	1472006841461	1472006841605	o	79
6789	73065	I have no personal transactions with any Enron entity.	I have no personal transactions with any Enron enity.	3475648	1472006841781	1472006841909	n	78
6789	73065	I have no personal transactions with any Enron entity.	I have no personal transactions with any Enron enity.	3475650	1472006842069	1472006842237	a	65
6789	73065	I have no personal transactions with any Enron entity.	I have no personal transactions with any Enron enity.	3475670	1472006842239	1472006842457	l	76
6789	73065	I have no personal transactions with any Enron entity.	I have no personal transactions with any Enron enity.	3475671	1472006842457	1472006842549	 	32
6789	73065	I have no personal transactions with any Enron entity.	I have no personal transactions with any Enron enity.	3475672	1472006843205	1472006843301	t	84
6789	73065	I have no personal transactions with any Enron entity.	I have no personal transactions with any Enron enity.	3475674	1472006843381	1472006843509	r	82
6789	73065	I have no personal transactions with any Enron entity.	I have no personal transactions with any Enron enity.	3475676	1472006843589	1472006843669	a	65
6789	73065	I have no personal transactions with any Enron entity.	I have no personal transactions with any Enron enity.	3475727	1472006844117	1472006844213	n	78
6789	73065	I have no personal transactions with any Enron entity.	I have no personal transactions with any Enron enity.	3475729	1472006844517	1472006844613	s	83
6789	73065	I have no personal transactions with any Enron entity.	I have no personal transactions with any Enron enity.	3475731	1472006844709	1472006844917	a	65
6789	73065	I have no personal transactions with any Enron entity.	I have no personal transactions with any Enron enity.	3475733	1472006845717	1472006845813	c	67
6789	73065	I have no personal transactions with any Enron entity.	I have no personal transactions with any Enron enity.	3475735	1472006845989	1472006846101	t	84
6789	73065	I have no personal transactions with any Enron entity.	I have no personal transactions with any Enron enity.	3475765	1472006846197	1472006846325	i	73
6789	73065	I have no personal transactions with any Enron entity.	I have no personal transactions with any Enron enity.	3475766	1472006846325	1472006846469	o	79
6789	73065	I have no personal transactions with any Enron entity.	I have no personal transactions with any Enron enity.	3475767	1472006846549	1472006846677	n	78
6789	73065	I have no personal transactions with any Enron entity.	I have no personal transactions with any Enron enity.	3475768	1472006846709	1472006846853	 	32
6789	73065	I have no personal transactions with any Enron entity.	I have no personal transactions with any Enron enity.	3475770	1472006847045	1472006847173	w	87
6789	73065	I have no personal transactions with any Enron entity.	I have no personal transactions with any Enron enity.	3475791	1472006847175	1472006847285	i	73
6789	73065	I have no personal transactions with any Enron entity.	I have no personal transactions with any Enron enity.	3475793	1472006847397	1472006847493	t	84
6789	73065	I have no personal transactions with any Enron entity.	I have no personal transactions with any Enron enity.	3475796	1472006847526	1472006847670	h	72
6789	73065	I have no personal transactions with any Enron entity.	I have no personal transactions with any Enron enity.	3475799	1472006847686	1472006847846	 	32
6789	73065	I have no personal transactions with any Enron entity.	I have no personal transactions with any Enron enity.	3475805	1472006848054	1472006848198	n	78
6789	73065	I have no personal transactions with any Enron entity.	I have no personal transactions with any Enron enity.	3475851	1472006848694	1472006848821	BKSP	8
6789	73065	I have no personal transactions with any Enron entity.	I have no personal transactions with any Enron enity.	3475852	1472006848869	1472006848981	a	65
6789	73065	I have no personal transactions with any Enron entity.	I have no personal transactions with any Enron enity.	3475853	1472006849029	1472006849141	n	78
6789	73065	I have no personal transactions with any Enron entity.	I have no personal transactions with any Enron enity.	3475854	1472006849269	1472006849413	y	89
6789	73065	I have no personal transactions with any Enron entity.	I have no personal transactions with any Enron enity.	3475855	1472006849477	1472006849621	 	32
6789	73065	I have no personal transactions with any Enron entity.	I have no personal transactions with any Enron enity.	3475856	1472006850085	1472006850197	e	69
6789	73065	I have no personal transactions with any Enron entity.	I have no personal transactions with any Enron enity.	3475951	1472006851125	1472006851189	BKSP	8
6789	73065	I have no personal transactions with any Enron entity.	I have no personal transactions with any Enron enity.	3475954	1472006851285	1472006852133	SHIFT	16
6789	73065	I have no personal transactions with any Enron entity.	I have no personal transactions with any Enron enity.	3475952	1472006852005	1472006852101	E	69
6789	73065	I have no personal transactions with any Enron entity.	I have no personal transactions with any Enron enity.	3475956	1472006852245	1472006852325	n	78
6789	73065	I have no personal transactions with any Enron entity.	I have no personal transactions with any Enron enity.	3475959	1472006852597	1472006852677	r	82
6789	73065	I have no personal transactions with any Enron entity.	I have no personal transactions with any Enron enity.	3475962	1472006852773	1472006852885	o	79
6789	73065	I have no personal transactions with any Enron entity.	I have no personal transactions with any Enron enity.	3475965	1472006853605	1472006853717	n	78
6789	73065	I have no personal transactions with any Enron entity.	I have no personal transactions with any Enron enity.	3476224	1472006853797	1472006853893	 	32
6789	73065	I have no personal transactions with any Enron entity.	I have no personal transactions with any Enron enity.	3476227	1472006854213	1472006854549	SHIFT	16
6789	73065	I have no personal transactions with any Enron entity.	I have no personal transactions with any Enron enity.	3476231	1472006854885	1472006854949	BKSP	8
6789	73065	I have no personal transactions with any Enron entity.	I have no personal transactions with any Enron enity.	3476234	1472006855045	1472006855109	BKSP	8
6789	73065	I have no personal transactions with any Enron entity.	I have no personal transactions with any Enron enity.	3476239	1472006860133	1472006860213	n	78
6789	73065	I have no personal transactions with any Enron entity.	I have no personal transactions with any Enron enity.	3476243	1472006860517	1472006860629	 	32
6789	73065	I have no personal transactions with any Enron entity.	I have no personal transactions with any Enron enity.	3476246	1472006861349	1472006861589	SHIFT	16
6789	73065	I have no personal transactions with any Enron entity.	I have no personal transactions with any Enron enity.	3476251	1472006861957	1472006862037	e	69
6789	73065	I have no personal transactions with any Enron entity.	I have no personal transactions with any Enron enity.	3476254	1472006862165	1472006862245	n	78
6789	73065	I have no personal transactions with any Enron entity.	I have no personal transactions with any Enron enity.	3476451	1472006863526	1472006863654	i	73
6789	73065	I have no personal transactions with any Enron entity.	I have no personal transactions with any Enron enity.	3476453	1472006863797	1472006863894	t	84
6789	73065	I have no personal transactions with any Enron entity.	I have no personal transactions with any Enron enity.	3476455	1472006863941	1472006864070	y	89
6789	73065	I have no personal transactions with any Enron entity.	I have no personal transactions with any Enron enity.	3476457	1472006865237	1472006865301	.	190
6789	73065	I have no personal transactions with any Enron entity.	I have no personal transactions with any Enron enity.	3476459	1472006870165	1472006870261	s	83
6789	73065	I have no personal transactions with any Enron entity.	I have no personal transactions with any Enron enity.	3476602	1472006871237	1472006871349	 	32
6789	73096	Make sure they are current.	Make sure they are current.	3476685	1472006880853	1472006880917	m	77
6789	73096	Make sure they are current.	Make sure they are current.	3476688	1472006881077	1472006881221	a	65
6789	73096	Make sure they are current.	Make sure they are current.	3476691	1472006881461	1472006881541	k	75
6789	73096	Make sure they are current.	Make sure they are current.	3476694	1472006881813	1472006881861	BKSP	8
6789	73096	Make sure they are current.	Make sure they are current.	3476697	1472006881925	1472006882069	BKSP	8
6789	73096	Make sure they are current.	Make sure they are current.	3476700	1472006882325	1472006882389	BKSP	8
6789	73096	Make sure they are current.	Make sure they are current.	3476702	1472006882485	1472006882709	SHIFT	16
6789	73096	Make sure they are current.	Make sure they are current.	3476704	1472006882661	1472006882709	M	77
6789	73096	Make sure they are current.	Make sure they are current.	3476705	1472006883461	1472006883589	a	65
6789	73096	Make sure they are current.	Make sure they are current.	3476711	1472006883591	1472006883669	k	75
6789	73096	Make sure they are current.	Make sure they are current.	3476712	1472006883701	1472006883813	e	69
6789	73096	Make sure they are current.	Make sure they are current.	3476713	1472006883845	1472006883957	 	32
6789	73096	Make sure they are current.	Make sure they are current.	3476714	1472006884085	1472006884197	s	83
6789	73096	Make sure they are current.	Make sure they are current.	3476715	1472006884245	1472006884358	u	85
6789	73096	Make sure they are current.	Make sure they are current.	3476737	1472006884917	1472006885045	r	82
6789	73096	Make sure they are current.	Make sure they are current.	3476740	1472006885045	1472006885173	e	69
6789	73096	Make sure they are current.	Make sure they are current.	3476742	1472006885141	1472006885269	 	32
6789	73096	Make sure they are current.	Make sure they are current.	3476743	1472006885397	1472006885525	t	84
6789	73096	Make sure they are current.	Make sure they are current.	3476744	1472006885525	1472006885589	h	71
6789	73096	Make sure they are current.	Make sure they are current.	3476776	1472006885637	1472006885733	e	69
6789	73096	Make sure they are current.	Make sure they are current.	3476777	1472006886069	1472006886117	BKSP	8
6789	73096	Make sure they are current.	Make sure they are current.	3476778	1472006886197	1472006886277	BKSP	8
6789	73096	Make sure they are current.	Make sure they are current.	3476779	1472006886293	1472006886357	BKSP	8
6789	73096	Make sure they are current.	Make sure they are current.	3476780	1472006887093	1472006887141	h	72
6789	73096	Make sure they are current.	Make sure they are current.	3476781	1472006887189	1472006887285	e	69
6789	73096	Make sure they are current.	Make sure they are current.	3476782	1472006887878	1472006887942	r	82
6789	73096	Make sure they are current.	Make sure they are current.	3476783	1472006888053	1472006888165	y	89
6789	73096	Make sure they are current.	Make sure they are current.	3476809	1472006888182	1472006888325	 	32
6789	73096	Make sure they are current.	Make sure they are current.	3476810	1472006888421	1472006888581	a	65
6789	73096	Make sure they are current.	Make sure they are current.	3476811	1472006888773	1472006888821	BKSP	8
6789	73096	Make sure they are current.	Make sure they are current.	3476812	1472006888885	1472006888949	BKSP	8
6789	73096	Make sure they are current.	Make sure they are current.	3476813	1472006889141	1472006889157	BKSP	8
6789	73096	Make sure they are current.	Make sure they are current.	3476814	1472006889253	1472006889301	BKSP	8
6789	73096	Make sure they are current.	Make sure they are current.	3476815	1472006889957	1472006890021	y	89
6789	73096	Make sure they are current.	Make sure they are current.	3476816	1472006890101	1472006890213	 	32
6789	73096	Make sure they are current.	Make sure they are current.	3476824	1472006890181	1472006890309	a	65
6789	73096	Make sure they are current.	Make sure they are current.	3476826	1472006890389	1472006890533	r	82
6789	73096	Make sure they are current.	Make sure they are current.	3476828	1472006890549	1472006890677	e	69
6789	73096	Make sure they are current.	Make sure they are current.	3476832	1472006890677	1472006890805	 	32
6789	73096	Make sure they are current.	Make sure they are current.	3476836	1472006891685	1472006891797	c	67
6789	73096	Make sure they are current.	Make sure they are current.	3476839	1472006891893	1472006892005	u	85
6789	73096	Make sure they are current.	Make sure they are current.	3476849	1472006892293	1472006892341	r	82
6789	73096	Make sure they are current.	Make sure they are current.	3476850	1472006892421	1472006892501	r	82
6789	73096	Make sure they are current.	Make sure they are current.	3476851	1472006892565	1472006892661	e	69
6789	73096	Make sure they are current.	Make sure they are current.	3476852	1472006892709	1472006892805	n	78
6789	73096	Make sure they are current.	Make sure they are current.	3476853	1472006892869	1472006892997	t	84
6789	73096	Make sure they are current.	Make sure they are current.	3476872	1472006893397	1472006893493	.	190
6789	73099	I'll send you a check.	I'll send you a check.	3476969	1472006896534	1472006896645	o	79
6789	73099	I'll send you a check.	I'll send you a check.	3476970	1472006897109	1472006897221	BKSP	8
6789	73099	I'll send you a check.	I'll send you a check.	3476971	1472006897605	1472006897845	SHIFT	16
6789	73099	I'll send you a check.	I'll send you a check.	3476972	1472006897765	1472006897845	I	73
6789	73099	I'll send you a check.	I'll send you a check.	3476973	1472006898933	1472006899061	;	186
6789	73099	I'll send you a check.	I'll send you a check.	3476974	1472006899509	1472006899621	BKSP	8
6789	73099	I'll send you a check.	I'll send you a check.	3476975	1472006900085	1472006900149	'	222
6789	73099	I'll send you a check.	I'll send you a check.	3476976	1472006900357	1472006900549	SHIFT	16
6789	73099	I'll send you a check.	I'll send you a check.	3476977	1472006900773	1472006900805	l	76
6789	73099	I'll send you a check.	I'll send you a check.	3476994	1472006900885	1472006900981	l	76
6789	73099	I'll send you a check.	I'll send you a check.	3476995	1472006901269	1472006901413	 	32
6789	73099	I'll send you a check.	I'll send you a check.	3476996	1472006901637	1472006901749	s	83
6789	73099	I'll send you a check.	I'll send you a check.	3476997	1472006901829	1472006901941	e	69
6789	73099	I'll send you a check.	I'll send you a check.	3476998	1472006901957	1472006902085	n	78
6789	73099	I'll send you a check.	I'll send you a check.	3477029	1472006902437	1472006902517	f	70
6789	73099	I'll send you a check.	I'll send you a check.	3477030	1472006902933	1472006902997	BKSP	8
6789	73099	I'll send you a check.	I'll send you a check.	3477031	1472006903093	1472006903189	d	68
6789	73099	I'll send you a check.	I'll send you a check.	3477033	1472006903236	1472006903366	 	32
6789	73099	I'll send you a check.	I'll send you a check.	3477035	1472006903462	1472006903605	y	89
6789	73099	I'll send you a check.	I'll send you a check.	3477075	1472006903574	1472006903782	o	79
6789	73099	I'll send you a check.	I'll send you a check.	3477077	1472006903718	1472006903861	u	85
6789	73099	I'll send you a check.	I'll send you a check.	3477079	1472006903877	1472006904053	 	32
6789	73099	I'll send you a check.	I'll send you a check.	3477081	1472006904277	1472006904389	b	66
6789	73099	I'll send you a check.	I'll send you a check.	3477082	1472006904437	1472006904565	a	65
6789	73099	I'll send you a check.	I'll send you a check.	3477083	1472006904741	1472006904789	BKSP	8
6789	73099	I'll send you a check.	I'll send you a check.	3477084	1472006904853	1472006904917	BKSP	8
6789	73099	I'll send you a check.	I'll send you a check.	3477087	1472006905045	1472006905157	a	65
6789	73099	I'll send you a check.	I'll send you a check.	3477105	1472006905541	1472006905637	 	32
6789	73099	I'll send you a check.	I'll send you a check.	3477106	1472006906293	1472006906405	c	67
6789	73099	I'll send you a check.	I'll send you a check.	3477108	1472006906469	1472006906565	h	72
6789	73099	I'll send you a check.	I'll send you a check.	3477110	1472006906645	1472006906757	e	69
6789	73099	I'll send you a check.	I'll send you a check.	3477112	1472006906917	1472006907013	c	67
6789	73099	I'll send you a check.	I'll send you a check.	3477150	1472006907077	1472006907173	h	72
6789	73099	I'll send you a check.	I'll send you a check.	3477152	1472006907797	1472006907877	BKSP	8
6789	73099	I'll send you a check.	I'll send you a check.	3477153	1472006908101	1472006908133	l	75
6789	73099	I'll send you a check.	I'll send you a check.	3477154	1472006908581	1472006908645	BKSP	8
6789	73099	I'll send you a check.	I'll send you a check.	3477155	1472006909317	1472006909365	.	190
6789	73107	We are about to leave Heaven!	we are about to leave Heaven!	3477200	1472006912438	1472006912566	w	87
6789	73107	We are about to leave Heaven!	we are about to leave Heaven!	3477201	1472006912614	1472006912774	e	69
6789	73107	We are about to leave Heaven!	we are about to leave Heaven!	3477202	1472006912806	1472006912934	 	32
6789	73107	We are about to leave Heaven!	we are about to leave Heaven!	3477203	1472006912903	1472006913062	a	65
6789	73107	We are about to leave Heaven!	we are about to leave Heaven!	3477204	1472006913094	1472006913238	t	82
6789	73107	We are about to leave Heaven!	we are about to leave Heaven!	3477229	1472006913606	1472006913654	BKSP	8
6789	73107	We are about to leave Heaven!	we are about to leave Heaven!	3477230	1472006914086	1472006914214	e	69
6789	73107	We are about to leave Heaven!	we are about to leave Heaven!	3477231	1472006914278	1472006914406	 	32
6789	73107	We are about to leave Heaven!	we are about to leave Heaven!	3477232	1472006914646	1472006914774	a	65
6789	73107	We are about to leave Heaven!	we are about to leave Heaven!	3477233	1472006914775	1472006914902	b	66
6789	73107	We are about to leave Heaven!	we are about to leave Heaven!	3477234	1472006914998	1472006915174	o	79
6789	73107	We are about to leave Heaven!	we are about to leave Heaven!	3477269	1472006915766	1472006915846	u	85
6789	73107	We are about to leave Heaven!	we are about to leave Heaven!	3477271	1472006915910	1472006916054	t	84
6789	73107	We are about to leave Heaven!	we are about to leave Heaven!	3477275	1472006916054	1472006916198	 	32
6789	73107	We are about to leave Heaven!	we are about to leave Heaven!	3477277	1472006916566	1472006916646	l	76
6789	73107	We are about to leave Heaven!	we are about to leave Heaven!	3477280	1472006916934	1472006916998	BKSP	8
6789	73107	We are about to leave Heaven!	we are about to leave Heaven!	3477282	1472006917190	1472006917270	t	84
6789	73107	We are about to leave Heaven!	we are about to leave Heaven!	3477297	1472006917350	1472006917446	o	79
6789	73107	We are about to leave Heaven!	we are about to leave Heaven!	3477299	1472006917510	1472006917638	 	32
6789	73107	We are about to leave Heaven!	we are about to leave Heaven!	3477300	1472006917750	1472006917830	l	76
6789	73107	We are about to leave Heaven!	we are about to leave Heaven!	3477301	1472006917878	1472006918022	e	69
6789	73107	We are about to leave Heaven!	we are about to leave Heaven!	3477302	1472006918086	1472006918230	a	65
6789	73107	We are about to leave Heaven!	we are about to leave Heaven!	3477317	1472006918374	1472006918614	c	67
6789	73107	We are about to leave Heaven!	we are about to leave Heaven!	3477320	1472006918614	1472006918726	e	69
6789	73107	We are about to leave Heaven!	we are about to leave Heaven!	3477323	1472006918757	1472006918790	 	32
6789	73107	We are about to leave Heaven!	we are about to leave Heaven!	3477326	1472006919078	1472006919126	BKSP	8
6789	73107	We are about to leave Heaven!	we are about to leave Heaven!	3477328	1472006919221	1472006919238	BKSP	8
6789	73107	We are about to leave Heaven!	we are about to leave Heaven!	3477330	1472006919319	1472006919367	BKSP	8
6789	73107	We are about to leave Heaven!	we are about to leave Heaven!	3477332	1472006919575	1472006919703	v	86
6789	73107	We are about to leave Heaven!	we are about to leave Heaven!	3477333	1472006919703	1472006919830	e	69
6789	73107	We are about to leave Heaven!	we are about to leave Heaven!	3477363	1472006919862	1472006920006	 	32
6789	73107	We are about to leave Heaven!	we are about to leave Heaven!	3477364	1472006920646	1472006920982	SHIFT	16
6789	73107	We are about to leave Heaven!	we are about to leave Heaven!	3477365	1472006920950	1472006921014	H	72
6789	73107	We are about to leave Heaven!	we are about to leave Heaven!	3477366	1472006921078	1472006921190	e	69
6789	73107	We are about to leave Heaven!	we are about to leave Heaven!	3477367	1472006921254	1472006921414	a	65
6789	73107	We are about to leave Heaven!	we are about to leave Heaven!	3477368	1472006921894	1472006922038	v	86
6789	73107	We are about to leave Heaven!	we are about to leave Heaven!	3477399	1472006922102	1472006922198	e	69
6789	73107	We are about to leave Heaven!	we are about to leave Heaven!	3477401	1472006922294	1472006922374	n	78
6789	73107	We are about to leave Heaven!	we are about to leave Heaven!	3477404	1472006923494	1472006924150	SHIFT	16
6789	73107	We are about to leave Heaven!	we are about to leave Heaven!	3477403	1472006923958	1472006924102	!	49
6789	73117	I'll call you in the morning.	I'll call you in the morning.	3477490	1472006926838	1472006926949	a	65
6789	73117	I'll call you in the morning.	I'll call you in the morning.	3477491	1472006927607	1472006927686	BKSP	8
6789	73117	I'll call you in the morning.	I'll call you in the morning.	3477492	1472006927814	1472006928150	SHIFT	16
6789	73117	I'll call you in the morning.	I'll call you in the morning.	3477493	1472006928102	1472006928182	I	73
6789	73117	I'll call you in the morning.	I'll call you in the morning.	3477494	1472006928407	1472006928470	'	186
6789	73117	I'll call you in the morning.	I'll call you in the morning.	3477495	1472006928886	1472006928982	BKSP	8
6789	73117	I'll call you in the morning.	I'll call you in the morning.	3477496	1472006929062	1472006929142	BKSP	8
6789	73117	I'll call you in the morning.	I'll call you in the morning.	3477497	1472006929318	1472006929382	'	222
6789	73117	I'll call you in the morning.	I'll call you in the morning.	3477529	1472006930134	1472006930182	l	76
6789	73117	I'll call you in the morning.	I'll call you in the morning.	3477533	1472006930326	1472006930406	l	76
6789	73117	I'll call you in the morning.	I'll call you in the morning.	3477535	1472006930774	1472006930902	 	32
6789	73117	I'll call you in the morning.	I'll call you in the morning.	3477537	1472006931126	1472006931318	c	67
6789	73117	I'll call you in the morning.	I'll call you in the morning.	3477566	1472006931270	1472006931414	a	65
6789	73117	I'll call you in the morning.	I'll call you in the morning.	3477568	1472006931414	1472006931446	l	76
6789	73117	I'll call you in the morning.	I'll call you in the morning.	3477570	1472006931942	1472006932070	l	76
6789	73117	I'll call you in the morning.	I'll call you in the morning.	3477572	1472006932150	1472006932262	 	32
6789	73117	I'll call you in the morning.	I'll call you in the morning.	3477574	1472006932342	1472006932486	y	89
6789	73117	I'll call you in the morning.	I'll call you in the morning.	3477602	1472006932454	1472006932662	o	79
6789	73117	I'll call you in the morning.	I'll call you in the morning.	3477604	1472006932614	1472006932790	u	85
6789	73117	I'll call you in the morning.	I'll call you in the morning.	3477608	1472006933062	1472006933206	 	32
6789	73117	I'll call you in the morning.	I'll call you in the morning.	3477611	1472006933254	1472006933366	i	73
6789	73117	I'll call you in the morning.	I'll call you in the morning.	3477614	1472006933478	1472006933590	n	78
6789	73117	I'll call you in the morning.	I'll call you in the morning.	3477617	1472006933638	1472006933750	 	32
6789	73117	I'll call you in the morning.	I'll call you in the morning.	3477639	1472006933751	1472006933910	t	84
6789	73117	I'll call you in the morning.	I'll call you in the morning.	3477642	1472006933910	1472006934022	h	72
6789	73117	I'll call you in the morning.	I'll call you in the morning.	3477645	1472006934022	1472006934150	e	69
6789	73117	I'll call you in the morning.	I'll call you in the morning.	3477647	1472006934150	1472006934278	 	32
6789	73117	I'll call you in the morning.	I'll call you in the morning.	3477725	1472006934598	1472006934774	M	16
6789	73117	I'll call you in the morning.	I'll call you in the morning.	3477728	1472006935239	1472006935287	BKSP	8
6789	73117	I'll call you in the morning.	I'll call you in the morning.	3477731	1472006935414	1472006935542	SHIFT	16
6789	73117	I'll call you in the morning.	I'll call you in the morning.	3477733	1472006936006	1472006936102	,	188
6789	73117	I'll call you in the morning.	I'll call you in the morning.	3477734	1472006936278	1472006936326	p	80
6789	73117	I'll call you in the morning.	I'll call you in the morning.	3477736	1472006936534	1472006936582	BKSP	8
6789	73117	I'll call you in the morning.	I'll call you in the morning.	3477737	1472006936662	1472006936742	BKSP	8
6789	73117	I'll call you in the morning.	I'll call you in the morning.	3477740	1472006937382	1472006937478	m	77
6789	73117	I'll call you in the morning.	I'll call you in the morning.	3477745	1472006937558	1472006937702	o	79
6789	73117	I'll call you in the morning.	I'll call you in the morning.	3477749	1472006937830	1472006937974	t	84
6789	73117	I'll call you in the morning.	I'll call you in the morning.	3477794	1472006938118	1472006938246	n	78
6789	73117	I'll call you in the morning.	I'll call you in the morning.	3477797	1472006938502	1472006938566	BKSP	8
6789	73117	I'll call you in the morning.	I'll call you in the morning.	3477800	1472006938630	1472006938758	BKSP	8
6789	73117	I'll call you in the morning.	I'll call you in the morning.	3477801	1472006938918	1472006938998	r	82
6789	73117	I'll call you in the morning.	I'll call you in the morning.	3477804	1472006939302	1472006939382	n	78
6789	73117	I'll call you in the morning.	I'll call you in the morning.	3477805	1472006939462	1472006939574	i	73
6789	73117	I'll call you in the morning.	I'll call you in the morning.	3477808	1472006939670	1472006939734	n	78
6789	73117	I'll call you in the morning.	I'll call you in the morning.	3477833	1472006939798	1472006939926	g	71
6789	73117	I'll call you in the morning.	I'll call you in the morning.	3477834	1472006939974	1472006940086	 	32
6789	73117	I'll call you in the morning.	I'll call you in the morning.	3477835	1472006940518	1472006940582	BKSP	8
6789	73117	I'll call you in the morning.	I'll call you in the morning.	3477836	1472006940758	1472006940838	.	190
6789	73127	Parts of the city will be closed to private cars.	Parts of the city will be closed to private cars.	3477963	1472006943671	1472006943798	p	80
6789	73127	Parts of the city will be closed to private cars.	Parts of the city will be closed to private cars.	3477966	1472006943782	1472006943926	a	65
6789	73127	Parts of the city will be closed to private cars.	Parts of the city will be closed to private cars.	3477969	1472006943990	1472006944150	r	82
6789	73127	Parts of the city will be closed to private cars.	Parts of the city will be closed to private cars.	3477971	1472006944742	1472006944806	BKSP	8
6789	73127	Parts of the city will be closed to private cars.	Parts of the city will be closed to private cars.	3477977	1472006944886	1472006944966	BKSP	8
6789	73127	Parts of the city will be closed to private cars.	Parts of the city will be closed to private cars.	3477981	1472006945286	1472006945366	BKSP	8
6789	73127	Parts of the city will be closed to private cars.	Parts of the city will be closed to private cars.	3477986	1472006945446	1472006945686	SHIFT	16
6789	73127	Parts of the city will be closed to private cars.	Parts of the city will be closed to private cars.	3477990	1472006945606	1472006945702	P	80
6789	73127	Parts of the city will be closed to private cars.	Parts of the city will be closed to private cars.	3477993	1472006946230	1472006946358	a	65
6789	73127	Parts of the city will be closed to private cars.	Parts of the city will be closed to private cars.	3478034	1472006946471	1472006946550	t	82
6789	73127	Parts of the city will be closed to private cars.	Parts of the city will be closed to private cars.	3478038	1472006947030	1472006947142	BKSP	8
6789	73127	Parts of the city will be closed to private cars.	Parts of the city will be closed to private cars.	3478042	1472006947638	1472006947766	t	84
6789	73127	Parts of the city will be closed to private cars.	Parts of the city will be closed to private cars.	3478047	1472006947878	1472006948006	s	83
6789	73127	Parts of the city will be closed to private cars.	Parts of the city will be closed to private cars.	3478050	1472006948086	1472006948278	 	32
6789	73127	Parts of the city will be closed to private cars.	Parts of the city will be closed to private cars.	3478102	1472006948422	1472006948502	o	73
6789	73127	Parts of the city will be closed to private cars.	Parts of the city will be closed to private cars.	3478105	1472006948550	1472006948694	f	70
6789	73127	Parts of the city will be closed to private cars.	Parts of the city will be closed to private cars.	3478107	1472006948694	1472006948806	 	32
6789	73127	Parts of the city will be closed to private cars.	Parts of the city will be closed to private cars.	3478109	1472006949078	1472006949142	BKSP	8
6789	73127	Parts of the city will be closed to private cars.	Parts of the city will be closed to private cars.	3478111	1472006949174	1472006949334	BKSP	8
6789	73127	Parts of the city will be closed to private cars.	Parts of the city will be closed to private cars.	3478113	1472006949414	1472006949494	BKSP	8
6789	73127	Parts of the city will be closed to private cars.	Parts of the city will be closed to private cars.	3478114	1472006949766	1472006949878	BKSP	8
6789	73127	Parts of the city will be closed to private cars.	Parts of the city will be closed to private cars.	3478115	1472006950150	1472006950198	i	73
6789	73127	Parts of the city will be closed to private cars.	Parts of the city will be closed to private cars.	3478150	1472006950550	1472006950630	BKSP	8
6789	73127	Parts of the city will be closed to private cars.	Parts of the city will be closed to private cars.	3478152	1472006950774	1472006950869	o	79
6789	73127	Parts of the city will be closed to private cars.	Parts of the city will be closed to private cars.	3478156	1472006950933	1472006951046	f	70
6789	73127	Parts of the city will be closed to private cars.	Parts of the city will be closed to private cars.	3478159	1472006951077	1472006951222	 	32
6789	73127	Parts of the city will be closed to private cars.	Parts of the city will be closed to private cars.	3478162	1472006951302	1472006951414	t	84
6789	73127	Parts of the city will be closed to private cars.	Parts of the city will be closed to private cars.	3478244	1472006951366	1472006951494	h	72
6789	73127	Parts of the city will be closed to private cars.	Parts of the city will be closed to private cars.	3478246	1472006951510	1472006951638	e	69
6789	73127	Parts of the city will be closed to private cars.	Parts of the city will be closed to private cars.	3478248	1472006951639	1472006951734	 	32
6789	73127	Parts of the city will be closed to private cars.	Parts of the city will be closed to private cars.	3478253	1472006952086	1472006952230	c	67
6789	73127	Parts of the city will be closed to private cars.	Parts of the city will be closed to private cars.	3478260	1472006952231	1472006952326	i	73
6789	73127	Parts of the city will be closed to private cars.	Parts of the city will be closed to private cars.	3478265	1472006953750	1472006953846	t	84
6789	73127	Parts of the city will be closed to private cars.	Parts of the city will be closed to private cars.	3478316	1472006953878	1472006954022	y	89
6789	73127	Parts of the city will be closed to private cars.	Parts of the city will be closed to private cars.	3478318	1472006954023	1472006954166	 	32
6789	73127	Parts of the city will be closed to private cars.	Parts of the city will be closed to private cars.	3478322	1472006955030	1472006955206	w	87
6789	73127	Parts of the city will be closed to private cars.	Parts of the city will be closed to private cars.	3478326	1472006955206	1472006955366	i	73
6789	73127	Parts of the city will be closed to private cars.	Parts of the city will be closed to private cars.	3478330	1472006955510	1472006955590	l	76
6789	73127	Parts of the city will be closed to private cars.	Parts of the city will be closed to private cars.	3478340	1472006955654	1472006955766	l	76
6789	73127	Parts of the city will be closed to private cars.	Parts of the city will be closed to private cars.	3478341	1472006955910	1472006956006	 	32
6789	73127	Parts of the city will be closed to private cars.	Parts of the city will be closed to private cars.	3478342	1472006956150	1472006956278	b	66
6789	73127	Parts of the city will be closed to private cars.	Parts of the city will be closed to private cars.	3478344	1472006956246	1472006956406	e	69
6789	73127	Parts of the city will be closed to private cars.	Parts of the city will be closed to private cars.	3478346	1472006956422	1472006956518	 	32
6789	73127	Parts of the city will be closed to private cars.	Parts of the city will be closed to private cars.	3478387	1472006956726	1472006956838	c	67
6789	73127	Parts of the city will be closed to private cars.	Parts of the city will be closed to private cars.	3478389	1472006957030	1472006957142	l	76
6789	73127	Parts of the city will be closed to private cars.	Parts of the city will be closed to private cars.	3478391	1472006957254	1472006957366	o	79
6789	73127	Parts of the city will be closed to private cars.	Parts of the city will be closed to private cars.	3478393	1472006957782	1472006957926	s	83
6789	73127	Parts of the city will be closed to private cars.	Parts of the city will be closed to private cars.	3478396	1472006957958	1472006958118	e	69
6789	73127	Parts of the city will be closed to private cars.	Parts of the city will be closed to private cars.	3478432	1472006958262	1472006958374	d	68
6789	73127	Parts of the city will be closed to private cars.	Parts of the city will be closed to private cars.	3478434	1472006958405	1472006958518	 	32
6789	73127	Parts of the city will be closed to private cars.	Parts of the city will be closed to private cars.	3478435	1472006958966	1472006959093	r	82
6789	73127	Parts of the city will be closed to private cars.	Parts of the city will be closed to private cars.	3478436	1472006959110	1472006959255	o	79
6789	73127	Parts of the city will be closed to private cars.	Parts of the city will be closed to private cars.	3478538	1472006959239	1472006959398	 	32
6789	73127	Parts of the city will be closed to private cars.	Parts of the city will be closed to private cars.	3478540	1472006959702	1472006959734	BKSP	8
6789	73127	Parts of the city will be closed to private cars.	Parts of the city will be closed to private cars.	3478542	1472006959798	1472006959862	BKSP	8
6789	73127	Parts of the city will be closed to private cars.	Parts of the city will be closed to private cars.	3478544	1472006959926	1472006959990	BKSP	8
6789	73127	Parts of the city will be closed to private cars.	Parts of the city will be closed to private cars.	3478547	1472006960614	1472006960694	t	84
6789	73127	Parts of the city will be closed to private cars.	Parts of the city will be closed to private cars.	3478549	1472006960678	1472006960839	o	79
6789	73127	Parts of the city will be closed to private cars.	Parts of the city will be closed to private cars.	3478551	1472006960870	1472006961046	 	32
6789	73127	Parts of the city will be closed to private cars.	Parts of the city will be closed to private cars.	3478553	1472006961878	1472006962038	p	80
6789	73127	Parts of the city will be closed to private cars.	Parts of the city will be closed to private cars.	3478556	1472006962262	1472006962342	r	82
6789	73127	Parts of the city will be closed to private cars.	Parts of the city will be closed to private cars.	3478596	1472006962998	1472006963094	i	73
6789	73127	Parts of the city will be closed to private cars.	Parts of the city will be closed to private cars.	3478598	1472006963270	1472006963430	v	86
6789	73127	Parts of the city will be closed to private cars.	Parts of the city will be closed to private cars.	3478599	1472006963430	1472006963558	a	65
6789	73127	Parts of the city will be closed to private cars.	Parts of the city will be closed to private cars.	3478600	1472006963622	1472006963766	t	84
6789	73127	Parts of the city will be closed to private cars.	Parts of the city will be closed to private cars.	3478601	1472006963830	1472006963942	e	69
6789	73127	Parts of the city will be closed to private cars.	Parts of the city will be closed to private cars.	3478694	1472006964854	1472006964934	 	32
6789	73127	Parts of the city will be closed to private cars.	Parts of the city will be closed to private cars.	3478696	1472006965510	1472006965686	c	67
6789	73127	Parts of the city will be closed to private cars.	Parts of the city will be closed to private cars.	3478699	1472006965686	1472006965814	a	65
6789	73127	Parts of the city will be closed to private cars.	Parts of the city will be closed to private cars.	3478702	1472006966038	1472006966166	r	82
6789	73127	Parts of the city will be closed to private cars.	Parts of the city will be closed to private cars.	3478706	1472006966246	1472006966374	s	83
6789	73127	Parts of the city will be closed to private cars.	Parts of the city will be closed to private cars.	3478749	1472006966454	1472006966518	 	32
6789	73127	Parts of the city will be closed to private cars.	Parts of the city will be closed to private cars.	3478751	1472006966918	1472006967013	BKSP	8
6789	73127	Parts of the city will be closed to private cars.	Parts of the city will be closed to private cars.	3478753	1472006967462	1472006967591	.	190
6789	73146	We'd suggest playing Brady, who will start against.	we'd suggest playing Brady, who will start against.	3478983	1472006970453	1472006970581	w	87
6789	73146	We'd suggest playing Brady, who will start against.	we'd suggest playing Brady, who will start against.	3478988	1472006970597	1472006970725	e	69
6789	73146	We'd suggest playing Brady, who will start against.	we'd suggest playing Brady, who will start against.	3478995	1472006971109	1472006971189	l	76
6789	73146	We'd suggest playing Brady, who will start against.	we'd suggest playing Brady, who will start against.	3478998	1472006971605	1472006971701	BKSP	8
6789	73146	We'd suggest playing Brady, who will start against.	we'd suggest playing Brady, who will start against.	3479003	1472006972181	1472006972229	'	222
6789	73146	We'd suggest playing Brady, who will start against.	we'd suggest playing Brady, who will start against.	3479007	1472006972581	1472006972709	d	68
6789	73146	We'd suggest playing Brady, who will start against.	we'd suggest playing Brady, who will start against.	3479046	1472006972805	1472006972933	 	32
6789	73146	We'd suggest playing Brady, who will start against.	we'd suggest playing Brady, who will start against.	3479048	1472006973573	1472006973685	s	83
6789	73146	We'd suggest playing Brady, who will start against.	we'd suggest playing Brady, who will start against.	3479051	1472006973813	1472006973893	u	85
6789	73146	We'd suggest playing Brady, who will start against.	we'd suggest playing Brady, who will start against.	3479055	1472006974325	1472006974389	g	71
6789	73146	We'd suggest playing Brady, who will start against.	we'd suggest playing Brady, who will start against.	3479060	1472006974468	1472006974565	g	71
6789	73146	We'd suggest playing Brady, who will start against.	we'd suggest playing Brady, who will start against.	3479109	1472006974645	1472006974741	e	69
6789	73146	We'd suggest playing Brady, who will start against.	we'd suggest playing Brady, who will start against.	3479111	1472006974837	1472006974964	s	83
6789	73146	We'd suggest playing Brady, who will start against.	we'd suggest playing Brady, who will start against.	3479113	1472006975012	1472006975141	t	84
6789	73146	We'd suggest playing Brady, who will start against.	we'd suggest playing Brady, who will start against.	3479115	1472006975237	1472006975349	 	32
6789	73146	We'd suggest playing Brady, who will start against.	we'd suggest playing Brady, who will start against.	3479118	1472006975797	1472006975957	p	80
6789	73146	We'd suggest playing Brady, who will start against.	we'd suggest playing Brady, who will start against.	3479212	1472006976197	1472006976389	l	76
6789	73146	We'd suggest playing Brady, who will start against.	we'd suggest playing Brady, who will start against.	3479216	1472006976390	1472006976534	a	65
6789	73146	We'd suggest playing Brady, who will start against.	we'd suggest playing Brady, who will start against.	3479218	1472006976758	1472006976837	y	85
6789	73146	We'd suggest playing Brady, who will start against.	we'd suggest playing Brady, who will start against.	3479221	1472006977189	1472006977269	BKSP	8
6789	73146	We'd suggest playing Brady, who will start against.	we'd suggest playing Brady, who will start against.	3479225	1472006977317	1472006977429	BKSP	8
6789	73146	We'd suggest playing Brady, who will start against.	we'd suggest playing Brady, who will start against.	3479229	1472006977893	1472006978005	y	89
6789	73146	We'd suggest playing Brady, who will start against.	we'd suggest playing Brady, who will start against.	3479267	1472006978037	1472006978197	i	73
6789	73146	We'd suggest playing Brady, who will start against.	we'd suggest playing Brady, who will start against.	3479271	1472006978245	1472006978373	n	78
6789	73146	We'd suggest playing Brady, who will start against.	we'd suggest playing Brady, who will start against.	3479273	1472006978373	1472006978501	g	71
6789	73146	We'd suggest playing Brady, who will start against.	we'd suggest playing Brady, who will start against.	3479277	1472006978517	1472006978629	 	32
6789	73146	We'd suggest playing Brady, who will start against.	we'd suggest playing Brady, who will start against.	3479279	1472006979013	1472006979157	b	66
6789	73146	We'd suggest playing Brady, who will start against.	we'd suggest playing Brady, who will start against.	3479365	1472006979877	1472006979957	BKSP	8
6789	73146	We'd suggest playing Brady, who will start against.	we'd suggest playing Brady, who will start against.	3479367	1472006980021	1472006980245	SHIFT	16
6789	73146	We'd suggest playing Brady, who will start against.	we'd suggest playing Brady, who will start against.	3479370	1472006980181	1472006980293	B	66
6789	73146	We'd suggest playing Brady, who will start against.	we'd suggest playing Brady, who will start against.	3479373	1472006980501	1472006980677	r	84
6789	73146	We'd suggest playing Brady, who will start against.	we'd suggest playing Brady, who will start against.	3479374	1472006980677	1472006980821	e	69
6789	73146	We'd suggest playing Brady, who will start against.	we'd suggest playing Brady, who will start against.	3479375	1472006980997	1472006981061	BKSP	8
6789	73146	We'd suggest playing Brady, who will start against.	we'd suggest playing Brady, who will start against.	3479376	1472006981109	1472006981285	BKSP	8
6789	73146	We'd suggest playing Brady, who will start against.	we'd suggest playing Brady, who will start against.	3479377	1472006981509	1472006981573	BKSP	8
6789	73146	We'd suggest playing Brady, who will start against.	we'd suggest playing Brady, who will start against.	3479378	1472006982085	1472006982213	r	82
6789	73146	We'd suggest playing Brady, who will start against.	we'd suggest playing Brady, who will start against.	3479426	1472006982214	1472006982357	e	69
6789	73146	We'd suggest playing Brady, who will start against.	we'd suggest playing Brady, who will start against.	3479427	1472006982900	1472006983077	BKSP	8
6789	73146	We'd suggest playing Brady, who will start against.	we'd suggest playing Brady, who will start against.	3479428	1472006983205	1472006983350	a	65
6789	73146	We'd suggest playing Brady, who will start against.	we'd suggest playing Brady, who will start against.	3479430	1472006983509	1472006983653	d	68
6789	73146	We'd suggest playing Brady, who will start against.	we'd suggest playing Brady, who will start against.	3479432	1472006983701	1472006983877	y	89
6789	73146	We'd suggest playing Brady, who will start against.	we'd suggest playing Brady, who will start against.	3479434	1472006983878	1472006984053	 	32
6789	73146	We'd suggest playing Brady, who will start against.	we'd suggest playing Brady, who will start against.	3479483	1472006984661	1472006984726	BKSP	8
6789	73146	We'd suggest playing Brady, who will start against.	we'd suggest playing Brady, who will start against.	3479485	1472006984918	1472006985029	,	188
6789	73146	We'd suggest playing Brady, who will start against.	we'd suggest playing Brady, who will start against.	3479490	1472006985093	1472006985221	 	32
6789	73146	We'd suggest playing Brady, who will start against.	we'd suggest playing Brady, who will start against.	3479494	1472006985573	1472006985669	w	87
6789	73146	We'd suggest playing Brady, who will start against.	we'd suggest playing Brady, who will start against.	3479497	1472006985749	1472006985894	h	72
6789	73146	We'd suggest playing Brady, who will start against.	we'd suggest playing Brady, who will start against.	3479500	1472006985894	1472006986069	o	79
6789	73146	We'd suggest playing Brady, who will start against.	we'd suggest playing Brady, who will start against.	3479540	1472006986071	1472006986213	 	32
6789	73146	We'd suggest playing Brady, who will start against.	we'd suggest playing Brady, who will start against.	3479545	1472006986645	1472006986725	w	87
6789	73146	We'd suggest playing Brady, who will start against.	we'd suggest playing Brady, who will start against.	3479549	1472006986741	1472006986837	o	79
6789	73146	We'd suggest playing Brady, who will start against.	we'd suggest playing Brady, who will start against.	3479551	1472006986965	1472006987045	l	76
6789	73146	We'd suggest playing Brady, who will start against.	we'd suggest playing Brady, who will start against.	3479554	1472006987285	1472006987349	BKSP	8
6789	73146	We'd suggest playing Brady, who will start against.	we'd suggest playing Brady, who will start against.	3479555	1472006987413	1472006987493	BKSP	8
6789	73146	We'd suggest playing Brady, who will start against.	we'd suggest playing Brady, who will start against.	3479556	1472006987861	1472006987925	i	73
6789	73146	We'd suggest playing Brady, who will start against.	we'd suggest playing Brady, who will start against.	3479586	1472006988037	1472006988133	l	76
6789	73146	We'd suggest playing Brady, who will start against.	we'd suggest playing Brady, who will start against.	3479588	1472006988213	1472006988277	l	76
6789	73146	We'd suggest playing Brady, who will start against.	we'd suggest playing Brady, who will start against.	3479592	1472006988501	1472006988629	 	32
6789	73146	We'd suggest playing Brady, who will start against.	we'd suggest playing Brady, who will start against.	3479595	1472006988869	1472006988981	s	83
6789	73146	We'd suggest playing Brady, who will start against.	we'd suggest playing Brady, who will start against.	3479597	1472006989061	1472006989205	t	84
6789	73146	We'd suggest playing Brady, who will start against.	we'd suggest playing Brady, who will start against.	3479628	1472006989253	1472006989381	a	65
6789	73146	We'd suggest playing Brady, who will start against.	we'd suggest playing Brady, who will start against.	3479630	1472006989429	1472006989573	t	84
6789	73146	We'd suggest playing Brady, who will start against.	we'd suggest playing Brady, who will start against.	3479632	1472006989653	1472006989813	 	32
6789	73146	We'd suggest playing Brady, who will start against.	we'd suggest playing Brady, who will start against.	3479635	1472006990085	1472006990133	BKSP	8
6789	73146	We'd suggest playing Brady, who will start against.	we'd suggest playing Brady, who will start against.	3479639	1472006990212	1472006990292	BKSP	8
6789	73146	We'd suggest playing Brady, who will start against.	we'd suggest playing Brady, who will start against.	3479643	1472006990708	1472006990804	s	83
6789	73146	We'd suggest playing Brady, who will start against.	we'd suggest playing Brady, who will start against.	3479646	1472006990868	1472006990964	t	84
6789	73146	We'd suggest playing Brady, who will start against.	we'd suggest playing Brady, who will start against.	3479714	1472006991013	1472006991125	 	32
6789	73146	We'd suggest playing Brady, who will start against.	we'd suggest playing Brady, who will start against.	3479717	1472006991685	1472006991718	BKSP	8
6789	73146	We'd suggest playing Brady, who will start against.	we'd suggest playing Brady, who will start against.	3479720	1472006991813	1472006991861	BKSP	8
6789	73146	We'd suggest playing Brady, who will start against.	we'd suggest playing Brady, who will start against.	3479722	1472006991877	1472006991941	BKSP	8
6789	73146	We'd suggest playing Brady, who will start against.	we'd suggest playing Brady, who will start against.	3479724	1472006992757	1472006992822	r	82
6789	73146	We'd suggest playing Brady, who will start against.	we'd suggest playing Brady, who will start against.	3479725	1472006992949	1472006993045	t	84
6789	73146	We'd suggest playing Brady, who will start against.	we'd suggest playing Brady, who will start against.	3479726	1472006993093	1472006993205	 	32
6789	73146	We'd suggest playing Brady, who will start against.	we'd suggest playing Brady, who will start against.	3479727	1472006993941	1472006994021	s	83
6789	73146	We'd suggest playing Brady, who will start against.	we'd suggest playing Brady, who will start against.	3479803	1472006994293	1472006994421	g	71
6789	73146	We'd suggest playing Brady, who will start against.	we'd suggest playing Brady, who will start against.	3479804	1472006994389	1472006994517	a	65
6789	73146	We'd suggest playing Brady, who will start against.	we'd suggest playing Brady, who will start against.	3479806	1472006994757	1472006994821	n	78
6789	73146	We'd suggest playing Brady, who will start against.	we'd suggest playing Brady, who will start against.	3479808	1472006995125	1472006995221	BKSP	8
6789	73146	We'd suggest playing Brady, who will start against.	we'd suggest playing Brady, who will start against.	3479812	1472006995685	1472006995733	BKSP	8
6789	73146	We'd suggest playing Brady, who will start against.	we'd suggest playing Brady, who will start against.	3479815	1472006995813	1472006995861	BKSP	8
6789	73146	We'd suggest playing Brady, who will start against.	we'd suggest playing Brady, who will start against.	3479817	1472006996245	1472006996309	BKSP	8
6789	73146	We'd suggest playing Brady, who will start against.	we'd suggest playing Brady, who will start against.	3479818	1472006996421	1472006996581	a	65
6789	73146	We'd suggest playing Brady, who will start against.	we'd suggest playing Brady, who will start against.	3479819	1472006997429	1472006997557	g	71
6789	73146	We'd suggest playing Brady, who will start against.	we'd suggest playing Brady, who will start against.	3479886	1472006997558	1472006997669	i	73
6789	73146	We'd suggest playing Brady, who will start against.	we'd suggest playing Brady, who will start against.	3479889	1472006997748	1472006997861	n	78
6789	73146	We'd suggest playing Brady, who will start against.	we'd suggest playing Brady, who will start against.	3479892	1472006998516	1472006998596	s	83
6789	73146	We'd suggest playing Brady, who will start against.	we'd suggest playing Brady, who will start against.	3479895	1472007000021	1472007000117	t	84
6789	73146	We'd suggest playing Brady, who will start against.	we'd suggest playing Brady, who will start against.	3479898	1472007000533	1472007000645	.	190
6789	73146	We'd suggest playing Brady, who will start against.	we'd suggest playing Brady, who will start against.	3480005	1472007001477	1472007001541	BKSP	8
6789	73146	We'd suggest playing Brady, who will start against.	we'd suggest playing Brady, who will start against.	3480006	1472007001637	1472007001701	BKSP	8
6789	73146	We'd suggest playing Brady, who will start against.	we'd suggest playing Brady, who will start against.	3480007	1472007001813	1472007001893	BKSP	8
6789	73146	We'd suggest playing Brady, who will start against.	we'd suggest playing Brady, who will start against.	3480008	1472007001973	1472007002037	BKSP	8
6789	73146	We'd suggest playing Brady, who will start against.	we'd suggest playing Brady, who will start against.	3480009	1472007002421	1472007002533	a	65
6789	73146	We'd suggest playing Brady, who will start against.	we'd suggest playing Brady, who will start against.	3480010	1472007003125	1472007003205	o	73
6789	73146	We'd suggest playing Brady, who will start against.	we'd suggest playing Brady, who will start against.	3480011	1472007003413	1472007003525	n	78
6789	73146	We'd suggest playing Brady, who will start against.	we'd suggest playing Brady, who will start against.	3480012	1472007003909	1472007003957	BKSP	8
6789	73146	We'd suggest playing Brady, who will start against.	we'd suggest playing Brady, who will start against.	3480015	1472007004021	1472007004149	BKSP	8
6789	73146	We'd suggest playing Brady, who will start against.	we'd suggest playing Brady, who will start against.	3480017	1472007004773	1472007004837	n	78
6789	73146	We'd suggest playing Brady, who will start against.	we'd suggest playing Brady, who will start against.	3480223	1472007005093	1472007005205	s	83
6789	73146	We'd suggest playing Brady, who will start against.	we'd suggest playing Brady, who will start against.	3480226	1472007005285	1472007005397	t	84
6789	73146	We'd suggest playing Brady, who will start against.	we'd suggest playing Brady, who will start against.	3480229	1472007006309	1472007006372	BKSP	8
6789	73146	We'd suggest playing Brady, who will start against.	we'd suggest playing Brady, who will start against.	3480231	1472007006549	1472007006612	BKSP	8
6789	73146	We'd suggest playing Brady, who will start against.	we'd suggest playing Brady, who will start against.	3480233	1472007006692	1472007006852	BKSP	8
6789	73146	We'd suggest playing Brady, who will start against.	we'd suggest playing Brady, who will start against.	3480235	1472007006933	1472007006965	BKSP	8
6789	73146	We'd suggest playing Brady, who will start against.	we'd suggest playing Brady, who will start against.	3480236	1472007007061	1472007007109	BKSP	8
6789	73146	We'd suggest playing Brady, who will start against.	we'd suggest playing Brady, who will start against.	3480237	1472007008629	1472007008693	BKSP	8
6789	73146	We'd suggest playing Brady, who will start against.	we'd suggest playing Brady, who will start against.	3480238	1472007008773	1472007008885	a	65
6789	73146	We'd suggest playing Brady, who will start against.	we'd suggest playing Brady, who will start against.	3480239	1472007008981	1472007009077	s	83
6789	73146	We'd suggest playing Brady, who will start against.	we'd suggest playing Brady, who will start against.	3480240	1472007009445	1472007009589	BKSP	8
6789	73146	We'd suggest playing Brady, who will start against.	we'd suggest playing Brady, who will start against.	3480241	1472007010165	1472007010245	i	73
6789	73146	We'd suggest playing Brady, who will start against.	we'd suggest playing Brady, who will start against.	3480200	1472007011061	1472007011173	n	78
6789	73146	We'd suggest playing Brady, who will start against.	we'd suggest playing Brady, who will start against.	3480201	1472007011477	1472007011589	s	83
6789	73146	We'd suggest playing Brady, who will start against.	we'd suggest playing Brady, who will start against.	3480202	1472007012117	1472007012197	t	84
6789	73146	We'd suggest playing Brady, who will start against.	we'd suggest playing Brady, who will start against.	3480203	1472007012357	1472007012485	.	190
6789	73172	What do you think about Tracy and Jim?	what do you think about Tracy and Jim?	3480271	1472007015589	1472007015685	w	87
6789	73172	What do you think about Tracy and Jim?	what do you think about Tracy and Jim?	3480272	1472007015733	1472007015877	h	72
6789	73172	What do you think about Tracy and Jim?	what do you think about Tracy and Jim?	3480273	1472007016389	1472007016517	a	65
6789	73172	What do you think about Tracy and Jim?	what do you think about Tracy and Jim?	3480274	1472007016565	1472007016693	t	84
6789	73172	What do you think about Tracy and Jim?	what do you think about Tracy and Jim?	3480275	1472007016694	1472007016837	 	32
6789	73172	What do you think about Tracy and Jim?	what do you think about Tracy and Jim?	3480315	1472007017077	1472007017141	s	83
6789	73172	What do you think about Tracy and Jim?	what do you think about Tracy and Jim?	3480317	1472007017429	1472007017509	BKSP	8
6789	73172	What do you think about Tracy and Jim?	what do you think about Tracy and Jim?	3480319	1472007017573	1472007017653	d	68
6789	73172	What do you think about Tracy and Jim?	what do you think about Tracy and Jim?	3480321	1472007017701	1472007017845	o	79
6789	73172	What do you think about Tracy and Jim?	what do you think about Tracy and Jim?	3480323	1472007018069	1472007018213	 	32
6789	73172	What do you think about Tracy and Jim?	what do you think about Tracy and Jim?	3480325	1472007018277	1472007018421	y	89
6789	73172	What do you think about Tracy and Jim?	what do you think about Tracy and Jim?	3480390	1472007018389	1472007018613	o	79
6789	73172	What do you think about Tracy and Jim?	what do you think about Tracy and Jim?	3480391	1472007018549	1472007018661	u	85
6789	73172	What do you think about Tracy and Jim?	what do you think about Tracy and Jim?	3480392	1472007018581	1472007018757	 	32
6789	73172	What do you think about Tracy and Jim?	what do you think about Tracy and Jim?	3480393	1472007019589	1472007019685	t	84
6789	73172	What do you think about Tracy and Jim?	what do you think about Tracy and Jim?	3480394	1472007019685	1472007019797	h	72
6789	73172	What do you think about Tracy and Jim?	what do you think about Tracy and Jim?	3480395	1472007019829	1472007019973	i	73
6789	73172	What do you think about Tracy and Jim?	what do you think about Tracy and Jim?	3480385	1472007020037	1472007020133	n	78
6789	73172	What do you think about Tracy and Jim?	what do you think about Tracy and Jim?	3480386	1472007020725	1472007020821	k	75
6789	73172	What do you think about Tracy and Jim?	what do you think about Tracy and Jim?	3480387	1472007020901	1472007021029	 	32
6789	73172	What do you think about Tracy and Jim?	what do you think about Tracy and Jim?	3480388	1472007021301	1472007021413	a	65
6789	73172	What do you think about Tracy and Jim?	what do you think about Tracy and Jim?	3480389	1472007021429	1472007021557	n	66
6789	73172	What do you think about Tracy and Jim?	what do you think about Tracy and Jim?	3480448	1472007021909	1472007021972	BKSP	8
6789	73172	What do you think about Tracy and Jim?	what do you think about Tracy and Jim?	3480449	1472007022484	1472007022548	o	79
6789	73172	What do you think about Tracy and Jim?	what do you think about Tracy and Jim?	3480451	1472007022949	1472007023029	u	85
6789	73172	What do you think about Tracy and Jim?	what do you think about Tracy and Jim?	3480453	1472007023189	1472007023333	y	89
6789	73172	What do you think about Tracy and Jim?	what do you think about Tracy and Jim?	3480454	1472007023349	1472007023493	 	32
6789	73172	What do you think about Tracy and Jim?	what do you think about Tracy and Jim?	3480455	1472007023845	1472007023893	BKSP	8
6789	73172	What do you think about Tracy and Jim?	what do you think about Tracy and Jim?	3480456	1472007023957	1472007024021	BKSP	8
6789	73172	What do you think about Tracy and Jim?	what do you think about Tracy and Jim?	3480457	1472007024085	1472007024213	t	84
6789	73172	What do you think about Tracy and Jim?	what do you think about Tracy and Jim?	3480493	1472007024277	1472007024389	 	32
6789	73172	What do you think about Tracy and Jim?	what do you think about Tracy and Jim?	3480495	1472007025333	1472007025397	t	84
6789	73172	What do you think about Tracy and Jim?	what do you think about Tracy and Jim?	3480497	1472007025861	1472007025925	BKSP	8
6789	73172	What do you think about Tracy and Jim?	what do you think about Tracy and Jim?	3480499	1472007025989	1472007026293	SHIFT	16
6789	73172	What do you think about Tracy and Jim?	what do you think about Tracy and Jim?	3480502	1472007026165	1472007026341	T	84
6789	73172	What do you think about Tracy and Jim?	what do you think about Tracy and Jim?	3480504	1472007026645	1472007026789	r	82
6789	73172	What do you think about Tracy and Jim?	what do you think about Tracy and Jim?	3480506	1472007026805	1472007026965	a	65
6789	73172	What do you think about Tracy and Jim?	what do you think about Tracy and Jim?	3480563	1472007027077	1472007027173	s	83
6789	73172	What do you think about Tracy and Jim?	what do you think about Tracy and Jim?	3480564	1472007027509	1472007027605	BKSP	8
6789	73172	What do you think about Tracy and Jim?	what do you think about Tracy and Jim?	3480565	1472007027653	1472007027797	c	67
6789	73172	What do you think about Tracy and Jim?	what do you think about Tracy and Jim?	3480568	1472007027909	1472007028053	t	84
6789	73172	What do you think about Tracy and Jim?	what do you think about Tracy and Jim?	3480571	1472007028085	1472007028213	 	32
6789	73172	What do you think about Tracy and Jim?	what do you think about Tracy and Jim?	3480574	1472007028565	1472007028613	BKSP	8
6789	73172	What do you think about Tracy and Jim?	what do you think about Tracy and Jim?	3480577	1472007028693	1472007028789	BKSP	8
6789	73172	What do you think about Tracy and Jim?	what do you think about Tracy and Jim?	3480581	1472007029381	1472007029525	y	89
6789	73172	What do you think about Tracy and Jim?	what do you think about Tracy and Jim?	3480597	1472007029541	1472007029700	 	32
6789	73172	What do you think about Tracy and Jim?	what do you think about Tracy and Jim?	3480599	1472007029908	1472007030052	a	65
6789	73172	What do you think about Tracy and Jim?	what do you think about Tracy and Jim?	3480601	1472007030036	1472007030148	n	78
6789	73172	What do you think about Tracy and Jim?	what do you think about Tracy and Jim?	3480604	1472007030693	1472007030805	d	68
6789	73172	What do you think about Tracy and Jim?	what do you think about Tracy and Jim?	3480607	1472007030838	1472007030982	 	32
6789	73172	What do you think about Tracy and Jim?	what do you think about Tracy and Jim?	3480668	1472007031286	1472007031558	SHIFT	16
6789	73172	What do you think about Tracy and Jim?	what do you think about Tracy and Jim?	3480669	1472007031527	1472007031654	J	74
6789	73172	What do you think about Tracy and Jim?	what do you think about Tracy and Jim?	3480671	1472007031766	1472007031862	i	73
6789	73172	What do you think about Tracy and Jim?	what do you think about Tracy and Jim?	3480673	1472007031990	1472007032054	m	77
6789	73172	What do you think about Tracy and Jim?	what do you think about Tracy and Jim?	3480675	1472007033126	1472007033190	.	190
6789	73172	What do you think about Tracy and Jim?	what do you think about Tracy and Jim?	3480678	1472007033590	1472007033702	BKSP	8
6789	73172	What do you think about Tracy and Jim?	what do you think about Tracy and Jim?	3480681	1472007033846	1472007034198	SHIFT	16
6789	73172	What do you think about Tracy and Jim?	what do you think about Tracy and Jim?	3480701	1472007034102	1472007034214	?	191
6789	73172	What do you think about Tracy and Jim?	what do you think about Tracy and Jim?	3480703	1472007034486	1472007034566	\	220
6789	73172	What do you think about Tracy and Jim?	what do you think about Tracy and Jim?	3480704	1472007035030	1472007035142	BKSP	8
6789	73186	Will let you know how call goes in morning.	Will let you know how call goes in the morning.	3480786	1472007038293	1472007038405	w	87
6789	73186	Will let you know how call goes in morning.	Will let you know how call goes in the morning.	3480787	1472007038421	1472007038549	i	73
6789	73186	Will let you know how call goes in morning.	Will let you know how call goes in the morning.	3480788	1472007038757	1472007038838	l	76
6789	73186	Will let you know how call goes in morning.	Will let you know how call goes in the morning.	3480789	1472007038902	1472007038998	l	76
6789	73186	Will let you know how call goes in morning.	Will let you know how call goes in the morning.	3480790	1472007039094	1472007039238	 	32
6789	73186	Will let you know how call goes in morning.	Will let you know how call goes in the morning.	3480870	1472007039542	1472007039574	l	75
6789	73186	Will let you know how call goes in morning.	Will let you know how call goes in the morning.	3480871	1472007040006	1472007040054	BKSP	8
6789	73186	Will let you know how call goes in morning.	Will let you know how call goes in the morning.	3480872	1472007040102	1472007040294	BKSP	8
6789	73186	Will let you know how call goes in morning.	Will let you know how call goes in the morning.	3480873	1472007040358	1472007040486	BKSP	8
6789	73186	Will let you know how call goes in morning.	Will let you know how call goes in the morning.	3480874	1472007040566	1472007040614	BKSP	8
6789	73186	Will let you know how call goes in morning.	Will let you know how call goes in the morning.	3480875	1472007040694	1472007040710	BKSP	8
6789	73186	Will let you know how call goes in morning.	Will let you know how call goes in the morning.	3480876	1472007040806	1472007040934	BKSP	8
6789	73186	Will let you know how call goes in morning.	Will let you know how call goes in the morning.	3480877	1472007041030	1472007041078	BKSP	8
6789	73186	Will let you know how call goes in morning.	Will let you know how call goes in the morning.	3480879	1472007041350	1472007041782	SHIFT	16
6789	73186	Will let you know how call goes in morning.	Will let you know how call goes in the morning.	3480882	1472007041622	1472007041782	W	87
6789	73186	Will let you know how call goes in morning.	Will let you know how call goes in the morning.	3480885	1472007041910	1472007041990	i	73
6789	73186	Will let you know how call goes in morning.	Will let you know how call goes in the morning.	3480890	1472007042118	1472007042198	l	76
6789	73186	Will let you know how call goes in morning.	Will let you know how call goes in the morning.	3480925	1472007042246	1472007042342	l	76
6789	73186	Will let you know how call goes in morning.	Will let you know how call goes in the morning.	3480926	1472007042630	1472007042763	 	32
6789	73186	Will let you know how call goes in morning.	Will let you know how call goes in the morning.	3480927	1472007043158	1472007043238	;	76
6789	73186	Will let you know how call goes in morning.	Will let you know how call goes in the morning.	3480928	1472007043462	1472007043526	e	69
6789	73186	Will let you know how call goes in morning.	Will let you know how call goes in the morning.	3480971	1472007043670	1472007043718	BKSP	8
6789	73186	Will let you know how call goes in morning.	Will let you know how call goes in the morning.	3480973	1472007043782	1472007043846	BKSP	8
6789	73186	Will let you know how call goes in morning.	Will let you know how call goes in the morning.	3480977	1472007044118	1472007044246	e	69
6789	73186	Will let you know how call goes in morning.	Will let you know how call goes in the morning.	3480982	1472007044374	1472007044550	t	84
6789	73186	Will let you know how call goes in morning.	Will let you know how call goes in the morning.	3480979	1472007044438	1472007044470	y	89
6789	73186	Will let you know how call goes in morning.	Will let you know how call goes in the morning.	3480985	1472007044550	1472007044646	 	32
6789	73186	Will let you know how call goes in morning.	Will let you know how call goes in the morning.	3480988	1472007045014	1472007045078	BKSP	8
6789	73186	Will let you know how call goes in morning.	Will let you know how call goes in the morning.	3480990	1472007045142	1472007045254	BKSP	8
6789	73186	Will let you know how call goes in morning.	Will let you know how call goes in the morning.	3480991	1472007045605	1472007045781	 	32
6789	73186	Will let you know how call goes in morning.	Will let you know how call goes in the morning.	3480992	1472007045878	1472007046021	y	85
6789	73186	Will let you know how call goes in morning.	Will let you know how call goes in the morning.	3480993	1472007046006	1472007046197	o	79
6789	73186	Will let you know how call goes in morning.	Will let you know how call goes in the morning.	3481078	1472007046166	1472007046277	i	85
6789	73186	Will let you know how call goes in morning.	Will let you know how call goes in the morning.	3481081	1472007046517	1472007046581	BKSP	8
6789	73186	Will let you know how call goes in morning.	Will let you know how call goes in the morning.	3481083	1472007046615	1472007046693	BKSP	8
6789	73186	Will let you know how call goes in morning.	Will let you know how call goes in the morning.	3481087	1472007046790	1472007046870	BKSP	8
6789	73186	Will let you know how call goes in morning.	Will let you know how call goes in the morning.	3481089	1472007046950	1472007047030	BKSP	8
6789	73186	Will let you know how call goes in morning.	Will let you know how call goes in the morning.	3481090	1472007047366	1472007047510	BKSP	8
6789	73186	Will let you know how call goes in morning.	Will let you know how call goes in the morning.	3481091	1472007047814	1472007047958	y	89
6789	73186	Will let you know how call goes in morning.	Will let you know how call goes in the morning.	3481092	1472007047910	1472007048118	o	79
6789	73186	Will let you know how call goes in morning.	Will let you know how call goes in the morning.	3481093	1472007048054	1472007048214	u	85
6789	73186	Will let you know how call goes in morning.	Will let you know how call goes in the morning.	3481094	1472007048215	1472007048342	 	32
6789	73186	Will let you know how call goes in morning.	Will let you know how call goes in the morning.	3481095	1472007048438	1472007048550	k	75
6789	73186	Will let you know how call goes in morning.	Will let you know how call goes in the morning.	3481128	1472007048662	1472007048806	n	78
6789	73186	Will let you know how call goes in morning.	Will let you know how call goes in the morning.	3481131	1472007048854	1472007048966	o	79
6789	73186	Will let you know how call goes in morning.	Will let you know how call goes in the morning.	3481133	1472007048998	1472007049110	w	87
6789	73186	Will let you know how call goes in morning.	Will let you know how call goes in the morning.	3481137	1472007049142	1472007049286	 	32
6789	73186	Will let you know how call goes in morning.	Will let you know how call goes in the morning.	3481142	1472007050182	1472007050278	h	74
6789	73186	Will let you know how call goes in morning.	Will let you know how call goes in the morning.	3481219	1472007050390	1472007050502	o	79
6789	73186	Will let you know how call goes in morning.	Will let you know how call goes in the morning.	3481221	1472007050726	1472007050790	BKSP	8
6789	73186	Will let you know how call goes in morning.	Will let you know how call goes in the morning.	3481224	1472007050870	1472007050902	BKSP	8
6789	73186	Will let you know how call goes in morning.	Will let you know how call goes in the morning.	3481227	1472007050982	1472007051078	BKSP	8
6789	73186	Will let you know how call goes in morning.	Will let you know how call goes in the morning.	3481229	1472007051782	1472007051910	h	72
6789	73186	Will let you know how call goes in morning.	Will let you know how call goes in the morning.	3481231	1472007051910	1472007052070	o	79
6789	73186	Will let you know how call goes in morning.	Will let you know how call goes in the morning.	3481233	1472007052134	1472007052198	e	69
6789	73186	Will let you know how call goes in morning.	Will let you know how call goes in the morning.	3481236	1472007052614	1472007052694	BKSP	8
6789	73186	Will let you know how call goes in morning.	Will let you know how call goes in the morning.	3481239	1472007052773	1472007052886	w	87
6789	73186	Will let you know how call goes in morning.	Will let you know how call goes in the morning.	3481282	1472007052934	1472007053078	 	32
6789	73186	Will let you know how call goes in morning.	Will let you know how call goes in the morning.	3481286	1472007053350	1472007053493	e	69
6789	73186	Will let you know how call goes in morning.	Will let you know how call goes in the morning.	3481289	1472007053685	1472007053749	BKSP	8
6789	73186	Will let you know how call goes in morning.	Will let you know how call goes in the morning.	3481292	1472007054021	1472007054197	c	67
6789	73186	Will let you know how call goes in morning.	Will let you know how call goes in the morning.	3481294	1472007054149	1472007054293	a	65
6789	73186	Will let you know how call goes in morning.	Will let you know how call goes in the morning.	3481295	1472007054645	1472007054774	l	76
6789	73186	Will let you know how call goes in morning.	Will let you know how call goes in the morning.	3481344	1472007054822	1472007054918	l	76
6789	73186	Will let you know how call goes in morning.	Will let you know how call goes in the morning.	3481347	1472007055094	1472007055238	 	32
6789	73186	Will let you know how call goes in morning.	Will let you know how call goes in the morning.	3481350	1472007056230	1472007056326	g	71
6789	73186	Will let you know how call goes in morning.	Will let you know how call goes in the morning.	3481353	1472007056374	1472007056422	o	79
6789	73186	Will let you know how call goes in morning.	Will let you know how call goes in the morning.	3481356	1472007056566	1472007056678	r	82
6789	73186	Will let you know how call goes in morning.	Will let you know how call goes in the morning.	3481395	1472007056774	1472007056902	s	83
6789	73186	Will let you know how call goes in morning.	Will let you know how call goes in the morning.	3481397	1472007057222	1472007057254	BKSP	8
6789	73186	Will let you know how call goes in morning.	Will let you know how call goes in the morning.	3481401	1472007057366	1472007057414	BKSP	8
6789	73186	Will let you know how call goes in morning.	Will let you know how call goes in the morning.	3481404	1472007057446	1472007057590	e	69
6789	73186	Will let you know how call goes in morning.	Will let you know how call goes in the morning.	3481408	1472007057590	1472007057718	s	83
6789	73186	Will let you know how call goes in morning.	Will let you know how call goes in the morning.	3481412	1472007057750	1472007057846	 	32
6789	73186	Will let you know how call goes in morning.	Will let you know how call goes in the morning.	3481417	1472007058246	1472007058358	i	73
6789	73186	Will let you know how call goes in morning.	Will let you know how call goes in the morning.	3481430	1472007058454	1472007058566	n	78
6789	73186	Will let you know how call goes in morning.	Will let you know how call goes in the morning.	3481432	1472007058614	1472007058742	 	32
6789	73186	Will let you know how call goes in morning.	Will let you know how call goes in the morning.	3481433	1472007058742	1472007058854	t	84
6789	73186	Will let you know how call goes in morning.	Will let you know how call goes in the morning.	3481434	1472007058870	1472007058998	h	72
6789	73186	Will let you know how call goes in morning.	Will let you know how call goes in the morning.	3481436	1472007058998	1472007059110	e	69
6789	73186	Will let you know how call goes in morning.	Will let you know how call goes in the morning.	3481475	1472007059111	1472007059238	 	32
6789	73186	Will let you know how call goes in morning.	Will let you know how call goes in the morning.	3481476	1472007059430	1472007059542	m	77
6789	73186	Will let you know how call goes in morning.	Will let you know how call goes in the morning.	3481478	1472007059622	1472007059750	o	79
6789	73186	Will let you know how call goes in morning.	Will let you know how call goes in the morning.	3481480	1472007060230	1472007060310	r	82
6789	73186	Will let you know how call goes in morning.	Will let you know how call goes in the morning.	3481483	1472007060390	1472007060550	i	73
6789	73186	Will let you know how call goes in morning.	Will let you know how call goes in the morning.	3481548	1472007060646	1472007060790	n	78
6789	73186	Will let you know how call goes in morning.	Will let you know how call goes in the morning.	3481551	1472007061030	1472007061046	BKSP	8
6789	73186	Will let you know how call goes in morning.	Will let you know how call goes in the morning.	3481553	1472007061925	1472007062037	BKSP	8
6789	73186	Will let you know how call goes in morning.	Will let you know how call goes in the morning.	3481556	1472007062405	1472007062533	n	78
6789	73186	Will let you know how call goes in morning.	Will let you know how call goes in the morning.	3481559	1472007062581	1472007062726	i	73
6789	73186	Will let you know how call goes in morning.	Will let you know how call goes in the morning.	3481562	1472007062790	1472007062902	n	78
6789	73186	Will let you know how call goes in morning.	Will let you know how call goes in the morning.	3481564	1472007062950	1472007063078	g	71
6789	73186	Will let you know how call goes in morning.	Will let you know how call goes in the morning.	3481625	1472007063126	1472007063286	 	32
6789	73186	Will let you know how call goes in morning.	Will let you know how call goes in the morning.	3481627	1472007063574	1472007063654	BKSP	8
6789	73186	Will let you know how call goes in morning.	Will let you know how call goes in the morning.	3481629	1472007063878	1472007063958	.	190
6789	73203	Once you do, you can never go back.	once you do, you can  never go back.	3481773	1472007067430	1472007067590	o	79
6789	73203	Once you do, you can never go back.	once you do, you can  never go back.	3481778	1472007067638	1472007067766	n	78
6789	73203	Once you do, you can never go back.	once you do, you can  never go back.	3481781	1472007067846	1472007067974	e	69
6789	73203	Once you do, you can never go back.	once you do, you can  never go back.	3481784	1472007068326	1472007068390	BKSP	8
6789	73203	Once you do, you can never go back.	once you do, you can  never go back.	3481788	1472007068454	1472007068630	c	67
6789	73203	Once you do, you can never go back.	once you do, you can  never go back.	3481806	1472007068598	1472007068742	e	69
6789	73203	Once you do, you can never go back.	once you do, you can  never go back.	3481808	1472007068710	1472007068853	 	32
6789	73203	Once you do, you can never go back.	once you do, you can  never go back.	3481809	1472007068933	1472007069062	y	89
6789	73203	Once you do, you can never go back.	once you do, you can  never go back.	3481812	1472007069046	1472007069253	o	79
6789	73203	Once you do, you can never go back.	once you do, you can  never go back.	3481816	1472007069158	1472007069333	u	85
6789	73203	Once you do, you can never go back.	once you do, you can  never go back.	3481881	1472007069285	1472007069461	 	32
6789	73203	Once you do, you can never go back.	once you do, you can  never go back.	3481884	1472007069733	1472007069829	d	68
6789	73203	Once you do, you can never go back.	once you do, you can  never go back.	3481888	1472007069846	1472007069958	o	79
6789	73203	Once you do, you can never go back.	once you do, you can  never go back.	3481893	1472007070053	1472007070181	 	32
6789	73203	Once you do, you can never go back.	once you do, you can  never go back.	3481899	1472007070710	1472007070774	BKSP	8
6789	73203	Once you do, you can never go back.	once you do, you can  never go back.	3481901	1472007070918	1472007071062	,	188
6789	73203	Once you do, you can never go back.	once you do, you can  never go back.	3481904	1472007071094	1472007071238	 	32
6789	73203	Once you do, you can never go back.	once you do, you can  never go back.	3481910	1472007071350	1472007071478	y	85
6789	73203	Once you do, you can never go back.	once you do, you can  never go back.	3481912	1472007071479	1472007071670	p	79
6789	73203	Once you do, you can never go back.	once you do, you can  never go back.	3482013	1472007071622	1472007071718	i	85
6789	73203	Once you do, you can never go back.	once you do, you can  never go back.	3482014	1472007071974	1472007072038	BKSP	8
6789	73203	Once you do, you can never go back.	once you do, you can  never go back.	3482015	1472007072070	1472007072166	BKSP	8
6789	73203	Once you do, you can never go back.	once you do, you can  never go back.	3482017	1472007072246	1472007072326	BKSP	8
6789	73203	Once you do, you can never go back.	once you do, you can  never go back.	3482018	1472007072390	1472007072454	BKSP	8
6789	73203	Once you do, you can never go back.	once you do, you can  never go back.	3482020	1472007072486	1472007072550	BKSP	8
6789	73203	Once you do, you can never go back.	once you do, you can  never go back.	3482021	1472007072646	1472007072710	BKSP	8
6789	73203	Once you do, you can never go back.	once you do, you can  never go back.	3482023	1472007073222	1472007073286	u	85
6789	73203	Once you do, you can never go back.	once you do, you can  never go back.	3482024	1472007073542	1472007073654	\	8
6789	73203	Once you do, you can never go back.	once you do, you can  never go back.	3482026	1472007074182	1472007074278	BKSP	8
6789	73203	Once you do, you can never go back.	once you do, you can  never go back.	3482027	1472007074502	1472007074630	y	89
6789	73203	Once you do, you can never go back.	once you do, you can  never go back.	3482029	1472007074614	1472007074822	o	79
6789	73203	Once you do, you can never go back.	once you do, you can  never go back.	3482058	1472007074774	1472007074966	u	85
6789	73203	Once you do, you can never go back.	once you do, you can  never go back.	3482060	1472007074934	1472007075094	 	32
6789	73203	Once you do, you can never go back.	once you do, you can  never go back.	3482063	1472007075430	1472007075590	c	67
6789	73203	Once you do, you can never go back.	once you do, you can  never go back.	3482068	1472007075558	1472007075702	a	65
6789	73203	Once you do, you can never go back.	once you do, you can  never go back.	3482073	1472007075702	1472007075830	n	78
6789	73203	Once you do, you can never go back.	once you do, you can  never go back.	3482079	1472007075958	1472007076086	 	32
6789	73203	Once you do, you can never go back.	once you do, you can  never go back.	3482107	1472007076310	1472007076390	 	32
6789	73203	Once you do, you can never go back.	once you do, you can  never go back.	3482113	1472007076630	1472007076758	n	78
6789	73203	Once you do, you can never go back.	once you do, you can  never go back.	3482117	1472007076758	1472007076870	e	69
6789	73203	Once you do, you can never go back.	once you do, you can  never go back.	3482121	1472007077046	1472007077141	v	67
6789	73203	Once you do, you can never go back.	once you do, you can  never go back.	3482197	1472007077173	1472007077285	e	69
6789	73203	Once you do, you can never go back.	once you do, you can  never go back.	3482200	1472007077509	1472007077557	BKSP	8
6789	73203	Once you do, you can never go back.	once you do, you can  never go back.	3482203	1472007077653	1472007077797	BKSP	8
6789	73203	Once you do, you can never go back.	once you do, you can  never go back.	3482206	1472007078021	1472007078149	v	86
6789	73203	Once you do, you can never go back.	once you do, you can  never go back.	3482209	1472007078277	1472007078325	BKSP	8
6789	73203	Once you do, you can never go back.	once you do, you can  never go back.	3482212	1472007078389	1472007078453	BKSP	8
6789	73203	Once you do, you can never go back.	once you do, you can  never go back.	3482214	1472007078485	1472007078629	v	86
6789	73203	Once you do, you can never go back.	once you do, you can  never go back.	3482217	1472007078631	1472007078807	e	69
6789	73203	Once you do, you can never go back.	once you do, you can  never go back.	3482285	1472007078790	1472007078934	r	82
6789	73203	Once you do, you can never go back.	once you do, you can  never go back.	3482288	1472007079382	1472007079510	 	32
6789	73203	Once you do, you can never go back.	once you do, you can  never go back.	3482292	1472007079766	1472007079878	g	71
6789	73203	Once you do, you can never go back.	once you do, you can  never go back.	3482296	1472007079798	1472007079878	f	70
6789	73203	Once you do, you can never go back.	once you do, you can  never go back.	3482298	1472007079879	1472007080022	o	79
6789	73203	Once you do, you can never go back.	once you do, you can  never go back.	3482301	1472007080326	1472007080358	BKSP	8
6789	73203	Once you do, you can never go back.	once you do, you can  never go back.	3482304	1472007080454	1472007080534	BKSP	8
6789	73203	Once you do, you can never go back.	once you do, you can  never go back.	3482307	1472007081206	1472007081286	o	79
6789	73203	Once you do, you can never go back.	once you do, you can  never go back.	3482341	1472007081366	1472007081494	 	32
6789	73203	Once you do, you can never go back.	once you do, you can  never go back.	3482344	1472007081638	1472007081750	b	66
6789	73203	Once you do, you can never go back.	once you do, you can  never go back.	3482348	1472007081782	1472007081926	a	65
6789	73203	Once you do, you can never go back.	once you do, you can  never go back.	3482354	1472007082086	1472007082214	c	67
6789	73203	Once you do, you can never go back.	once you do, you can  never go back.	3482359	1472007082806	1472007082886	k	75
6789	73203	Once you do, you can never go back.	once you do, you can  never go back.	3482368	1472007083110	1472007083238	.	190
6789	73216	Every Enron employee has an internet email address.	Every Enron emoployee has an internet email adress.	3482571	1472007086565	1472007086694	e	69
6789	73216	Every Enron employee has an internet email address.	Every Enron emoployee has an internet email adress.	3482572	1472007086726	1472007086870	n	78
6789	73216	Every Enron employee has an internet email address.	Every Enron emoployee has an internet email adress.	3482573	1472007087238	1472007087318	BKSP	8
6789	73216	Every Enron employee has an internet email address.	Every Enron emoployee has an internet email adress.	3482575	1472007087878	1472007087974	BKSP	8
6789	73216	Every Enron employee has an internet email address.	Every Enron emoployee has an internet email adress.	3482577	1472007088022	1472007088646	SHIFT	16
6789	73216	Every Enron employee has an internet email address.	Every Enron emoployee has an internet email adress.	3482579	1472007088550	1472007088646	E	69
6789	73216	Every Enron employee has an internet email address.	Every Enron emoployee has an internet email adress.	3482581	1472007088886	1472007088998	v	86
6789	73216	Every Enron employee has an internet email address.	Every Enron emoployee has an internet email adress.	3482583	1472007089078	1472007089254	e	69
6789	73216	Every Enron employee has an internet email address.	Every Enron emoployee has an internet email adress.	3482686	1472007089256	1472007089350	r	82
6789	73216	Every Enron employee has an internet email address.	Every Enron emoployee has an internet email adress.	3482688	1472007089494	1472007089654	y	89
6789	73216	Every Enron employee has an internet email address.	Every Enron emoployee has an internet email adress.	3482690	1472007089686	1472007089814	 	32
6789	73216	Every Enron employee has an internet email address.	Every Enron emoployee has an internet email adress.	3482692	1472007090965	1472007091301	SHIFT	16
6789	73216	Every Enron employee has an internet email address.	Every Enron emoployee has an internet email adress.	3482695	1472007091157	1472007091301	E	69
6789	73216	Every Enron employee has an internet email address.	Every Enron emoployee has an internet email adress.	3482698	1472007091461	1472007091557	n	78
6789	73216	Every Enron employee has an internet email address.	Every Enron emoployee has an internet email adress.	3482839	1472007091861	1472007091973	r	82
6789	73216	Every Enron employee has an internet email address.	Every Enron emoployee has an internet email adress.	3482840	1472007092037	1472007092148	o	79
6789	73216	Every Enron employee has an internet email address.	Every Enron emoployee has an internet email adress.	3482841	1472007092245	1472007092373	n	78
6789	73216	Every Enron employee has an internet email address.	Every Enron emoployee has an internet email adress.	3482842	1472007092421	1472007092549	 	32
6789	73216	Every Enron employee has an internet email address.	Every Enron emoployee has an internet email adress.	3482843	1472007095781	1472007095845	e	69
6789	73216	Every Enron employee has an internet email address.	Every Enron emoployee has an internet email adress.	3482866	1472007095925	1472007096085	m	77
6789	73216	Every Enron employee has an internet email address.	Every Enron emoployee has an internet email adress.	3482867	1472007096261	1472007096389	p	79
6789	73216	Every Enron employee has an internet email address.	Every Enron emoployee has an internet email adress.	3482868	1472007096501	1472007096613	l	76
6789	73216	Every Enron employee has an internet email address.	Every Enron emoployee has an internet email adress.	3482869	1472007096709	1472007096837	o	79
6789	73216	Every Enron employee has an internet email address.	Every Enron emoployee has an internet email adress.	3482938	1472007097829	1472007097909	y	89
6789	73216	Every Enron employee has an internet email address.	Every Enron emoployee has an internet email adress.	3482942	1472007097989	1472007098037	e	69
6789	73216	Every Enron employee has an internet email address.	Every Enron emoployee has an internet email adress.	3482945	1472007098133	1472007098197	e	69
6789	73216	Every Enron employee has an internet email address.	Every Enron emoployee has an internet email adress.	3482948	1472007098325	1472007098469	 	32
6789	73216	Every Enron employee has an internet email address.	Every Enron emoployee has an internet email adress.	3482951	1472007098597	1472007098661	h	72
6789	73216	Every Enron employee has an internet email address.	Every Enron emoployee has an internet email adress.	3483044	1472007100917	1472007101028	a	65
6789	73216	Every Enron employee has an internet email address.	Every Enron emoployee has an internet email adress.	3483046	1472007101076	1472007101204	s	83
6789	73216	Every Enron employee has an internet email address.	Every Enron emoployee has an internet email adress.	3483049	1472007101205	1472007101332	 	32
6789	73216	Every Enron employee has an internet email address.	Every Enron emoployee has an internet email adress.	3483050	1472007101380	1472007101508	a	65
6789	73216	Every Enron employee has an internet email address.	Every Enron emoployee has an internet email adress.	3483053	1472007101572	1472007101604	n	66
6789	73216	Every Enron employee has an internet email address.	Every Enron emoployee has an internet email adress.	3483156	1472007102116	1472007102164	BKSP	8
6789	73216	Every Enron employee has an internet email address.	Every Enron emoployee has an internet email adress.	3483159	1472007102244	1472007102308	BKSP	8
6789	73216	Every Enron employee has an internet email address.	Every Enron emoployee has an internet email adress.	3483161	1472007102468	1472007102597	n	78
6789	73216	Every Enron employee has an internet email address.	Every Enron emoployee has an internet email adress.	3483163	1472007102629	1472007102773	 	32
6789	73216	Every Enron employee has an internet email address.	Every Enron emoployee has an internet email adress.	3483169	1472007103765	1472007103893	a	65
6789	73216	Every Enron employee has an internet email address.	Every Enron emoployee has an internet email adress.	3483174	1472007103894	1472007104005	n	78
6789	73216	Every Enron employee has an internet email address.	Every Enron emoployee has an internet email adress.	3483178	1472007104085	1472007104197	i	73
6789	73216	Every Enron employee has an internet email address.	Every Enron emoployee has an internet email adress.	3483261	1472007104453	1472007104533	BKSP	8
6789	73216	Every Enron employee has an internet email address.	Every Enron emoployee has an internet email adress.	3483264	1472007104597	1472007104661	BKSP	8
6789	73216	Every Enron employee has an internet email address.	Every Enron emoployee has an internet email adress.	3483267	1472007104725	1472007104757	BKSP	8
6789	73216	Every Enron employee has an internet email address.	Every Enron emoployee has an internet email adress.	3483269	1472007105333	1472007105461	i	73
6789	73216	Every Enron employee has an internet email address.	Every Enron emoployee has an internet email adress.	3483271	1472007105525	1472007105637	n	78
6789	73216	Every Enron employee has an internet email address.	Every Enron emoployee has an internet email adress.	3483272	1472007105813	1472007105973	t	84
6789	73216	Every Enron employee has an internet email address.	Every Enron emoployee has an internet email adress.	3483273	1472007106005	1472007106165	e	69
6789	73216	Every Enron employee has an internet email address.	Every Enron emoployee has an internet email adress.	3483333	1472007106149	1472007106245	r	82
6789	73216	Every Enron employee has an internet email address.	Every Enron emoployee has an internet email adress.	3483336	1472007106869	1472007106949	n	78
6789	73216	Every Enron employee has an internet email address.	Every Enron emoployee has an internet email adress.	3483338	1472007107013	1472007107125	e	69
6789	73216	Every Enron employee has an internet email address.	Every Enron emoployee has an internet email adress.	3483339	1472007107157	1472007107269	t	84
6789	73216	Every Enron employee has an internet email address.	Every Enron emoployee has an internet email adress.	3483341	1472007107685	1472007107797	 	32
6789	73216	Every Enron employee has an internet email address.	Every Enron emoployee has an internet email adress.	3483345	1472007107989	1472007108117	e	69
6789	73216	Every Enron employee has an internet email address.	Every Enron emoployee has an internet email adress.	3483586	1472007108788	1472007108884	m	77
6789	73216	Every Enron employee has an internet email address.	Every Enron emoployee has an internet email adress.	3483589	1472007108916	1472007109060	a	65
6789	73216	Every Enron employee has an internet email address.	Every Enron emoployee has an internet email adress.	3483593	1472007111493	1472007111605	a	65
6789	73216	Every Enron employee has an internet email address.	Every Enron emoployee has an internet email adress.	3483597	1472007111637	1472007111733	i	73
6789	73216	Every Enron employee has an internet email address.	Every Enron emoployee has an internet email adress.	3483601	1472007112053	1472007112101	BKSP	8
6789	73216	Every Enron employee has an internet email address.	Every Enron emoployee has an internet email adress.	3483606	1472007112197	1472007112293	BKSP	8
6789	73216	Every Enron employee has an internet email address.	Every Enron emoployee has an internet email adress.	3483611	1472007112709	1472007112821	i	73
6789	73216	Every Enron employee has an internet email address.	Every Enron emoployee has an internet email adress.	3483685	1472007112869	1472007113045	l	76
6789	73216	Every Enron employee has an internet email address.	Every Enron emoployee has an internet email adress.	3483689	1472007113093	1472007113221	 	32
6789	73216	Every Enron employee has an internet email address.	Every Enron emoployee has an internet email adress.	3483695	1472007113749	1472007113909	a	65
6789	73216	Every Enron employee has an internet email address.	Every Enron emoployee has an internet email adress.	3483702	1472007114133	1472007114229	d	68
6789	73216	Every Enron employee has an internet email address.	Every Enron emoployee has an internet email adress.	3483708	1472007114389	1472007114485	r	82
6789	73216	Every Enron employee has an internet email address.	Every Enron emoployee has an internet email adress.	3483750	1472007114581	1472007114677	e	69
6789	73216	Every Enron employee has an internet email address.	Every Enron emoployee has an internet email adress.	3483755	1472007114821	1472007114901	s	83
6789	73216	Every Enron employee has an internet email address.	Every Enron emoployee has an internet email adress.	3483760	1472007114965	1472007115077	s	83
6789	73216	Every Enron employee has an internet email address.	Every Enron emoployee has an internet email adress.	3483766	1472007115989	1472007116053	.	190
6789	73245	He agrees that they are not showing the correct equation.	he agrees that they are not showing the correct equation.	3483988	1472007119301	1472007119381	h	72
6789	73245	He agrees that they are not showing the correct equation.	he agrees that they are not showing the correct equation.	3483992	1472007119685	1472007119861	e	69
6789	73245	He agrees that they are not showing the correct equation.	he agrees that they are not showing the correct equation.	3483994	1472007119862	1472007119989	 	32
6789	73245	He agrees that they are not showing the correct equation.	he agrees that they are not showing the correct equation.	3483998	1472007120101	1472007120229	a	65
6789	73245	He agrees that they are not showing the correct equation.	he agrees that they are not showing the correct equation.	3484002	1472007121157	1472007121269	g	71
6789	73245	He agrees that they are not showing the correct equation.	he agrees that they are not showing the correct equation.	3484056	1472007121477	1472007121557	r	82
6789	73245	He agrees that they are not showing the correct equation.	he agrees that they are not showing the correct equation.	3484058	1472007121701	1472007121749	e	69
6789	73245	He agrees that they are not showing the correct equation.	he agrees that they are not showing the correct equation.	3484061	1472007121829	1472007121925	e	69
6789	73245	He agrees that they are not showing the correct equation.	he agrees that they are not showing the correct equation.	3484064	1472007122005	1472007122117	s	83
6789	73245	He agrees that they are not showing the correct equation.	he agrees that they are not showing the correct equation.	3484066	1472007122229	1472007122373	 	32
6789	73245	He agrees that they are not showing the correct equation.	he agrees that they are not showing the correct equation.	3484126	1472007122838	1472007122965	t	84
6789	73245	He agrees that they are not showing the correct equation.	he agrees that they are not showing the correct equation.	3484131	1472007122965	1472007123013	h	72
6789	73245	He agrees that they are not showing the correct equation.	he agrees that they are not showing the correct equation.	3484137	1472007123061	1472007123189	a	65
6789	73245	He agrees that they are not showing the correct equation.	he agrees that they are not showing the correct equation.	3484146	1472007123221	1472007123317	t	84
6789	73245	He agrees that they are not showing the correct equation.	he agrees that they are not showing the correct equation.	3484153	1472007123653	1472007123797	 	32
6789	73245	He agrees that they are not showing the correct equation.	he agrees that they are not showing the correct equation.	3484229	1472007124309	1472007124404	t	84
6789	73245	He agrees that they are not showing the correct equation.	he agrees that they are not showing the correct equation.	3484232	1472007124405	1472007124468	h	72
6789	73245	He agrees that they are not showing the correct equation.	he agrees that they are not showing the correct equation.	3484237	1472007124532	1472007124660	e	69
6789	73245	He agrees that they are not showing the correct equation.	he agrees that they are not showing the correct equation.	3484245	1472007125172	1472007125300	y	89
6789	73245	He agrees that they are not showing the correct equation.	he agrees that they are not showing the correct equation.	3484251	1472007125332	1472007125460	 	32
6789	73245	He agrees that they are not showing the correct equation.	he agrees that they are not showing the correct equation.	3484311	1472007125956	1472007126084	a	65
6789	73245	He agrees that they are not showing the correct equation.	he agrees that they are not showing the correct equation.	3484313	1472007126132	1472007126276	r	82
6789	73245	He agrees that they are not showing the correct equation.	he agrees that they are not showing the correct equation.	3484315	1472007126292	1472007126436	e	69
6789	73245	He agrees that they are not showing the correct equation.	he agrees that they are not showing the correct equation.	3484317	1472007126437	1472007126533	 	32
6789	73245	He agrees that they are not showing the correct equation.	he agrees that they are not showing the correct equation.	3484318	1472007126613	1472007126725	n	78
6789	73245	He agrees that they are not showing the correct equation.	he agrees that they are not showing the correct equation.	3484333	1472007126789	1472007126933	o	79
6789	73245	He agrees that they are not showing the correct equation.	he agrees that they are not showing the correct equation.	3484334	1472007127093	1472007127221	t	84
6789	73245	He agrees that they are not showing the correct equation.	he agrees that they are not showing the correct equation.	3484335	1472007127253	1472007127397	 	32
6789	73245	He agrees that they are not showing the correct equation.	he agrees that they are not showing the correct equation.	3484336	1472007127877	1472007127957	a	65
6789	73245	He agrees that they are not showing the correct equation.	he agrees that they are not showing the correct equation.	3484337	1472007128021	1472007128149	s	83
6789	73245	He agrees that they are not showing the correct equation.	he agrees that they are not showing the correct equation.	3484425	1472007128341	1472007128389	BKSP	8
6789	73245	He agrees that they are not showing the correct equation.	he agrees that they are not showing the correct equation.	3484427	1472007128453	1472007128549	BKSP	8
6789	73245	He agrees that they are not showing the correct equation.	he agrees that they are not showing the correct equation.	3484428	1472007128597	1472007128709	s	83
6789	73245	He agrees that they are not showing the correct equation.	he agrees that they are not showing the correct equation.	3484429	1472007128741	1472007128869	h	74
6789	73245	He agrees that they are not showing the correct equation.	he agrees that they are not showing the correct equation.	3484430	1472007128917	1472007128981	o	79
6789	73245	He agrees that they are not showing the correct equation.	he agrees that they are not showing the correct equation.	3484433	1472007129269	1472007129317	BKSP	8
6789	73245	He agrees that they are not showing the correct equation.	he agrees that they are not showing the correct equation.	3484436	1472007129349	1472007129541	BKSP	8
6789	73245	He agrees that they are not showing the correct equation.	he agrees that they are not showing the correct equation.	3484439	1472007129797	1472007129877	BKSP	8
6789	73245	He agrees that they are not showing the correct equation.	he agrees that they are not showing the correct equation.	3484442	1472007130213	1472007130341	h	72
6789	73245	He agrees that they are not showing the correct equation.	he agrees that they are not showing the correct equation.	3484484	1472007130343	1472007130501	o	79
6789	73245	He agrees that they are not showing the correct equation.	he agrees that they are not showing the correct equation.	3484487	1472007130565	1472007130709	w	87
6789	73245	He agrees that they are not showing the correct equation.	he agrees that they are not showing the correct equation.	3484489	1472007130741	1472007130837	n	78
6789	73245	He agrees that they are not showing the correct equation.	he agrees that they are not showing the correct equation.	3484490	1472007131109	1472007131237	BKSP	8
6789	73245	He agrees that they are not showing the correct equation.	he agrees that they are not showing the correct equation.	3484491	1472007131445	1472007131541	i	73
6789	73245	He agrees that they are not showing the correct equation.	he agrees that they are not showing the correct equation.	3484494	1472007131621	1472007131701	n	78
6789	73245	He agrees that they are not showing the correct equation.	he agrees that they are not showing the correct equation.	3484525	1472007131733	1472007131877	g	71
6789	73245	He agrees that they are not showing the correct equation.	he agrees that they are not showing the correct equation.	3484529	1472007131892	1472007132005	 	32
6789	73245	He agrees that they are not showing the correct equation.	he agrees that they are not showing the correct equation.	3484533	1472007132340	1472007132468	t	84
6789	73245	He agrees that they are not showing the correct equation.	he agrees that they are not showing the correct equation.	3484538	1472007132453	1472007132565	h	72
6789	73245	He agrees that they are not showing the correct equation.	he agrees that they are not showing the correct equation.	3484541	1472007132565	1472007132677	e	69
6789	73245	He agrees that they are not showing the correct equation.	he agrees that they are not showing the correct equation.	3484579	1472007132679	1472007132804	 	32
6789	73245	He agrees that they are not showing the correct equation.	he agrees that they are not showing the correct equation.	3484580	1472007132948	1472007133044	c	67
6789	73245	He agrees that they are not showing the correct equation.	he agrees that they are not showing the correct equation.	3484582	1472007133076	1472007133204	o	79
6789	73245	He agrees that they are not showing the correct equation.	he agrees that they are not showing the correct equation.	3484584	1472007133540	1472007133604	r	82
6789	73245	He agrees that they are not showing the correct equation.	he agrees that they are not showing the correct equation.	3484586	1472007133700	1472007133780	r	82
6789	73245	He agrees that they are not showing the correct equation.	he agrees that they are not showing the correct equation.	3484662	1472007133860	1472007133988	e	69
6789	73245	He agrees that they are not showing the correct equation.	he agrees that they are not showing the correct equation.	3484666	1472007134292	1472007134404	c	67
6789	73245	He agrees that they are not showing the correct equation.	he agrees that they are not showing the correct equation.	3484669	1472007134533	1472007134661	t	84
6789	73245	He agrees that they are not showing the correct equation.	he agrees that they are not showing the correct equation.	3484672	1472007134677	1472007134885	 	32
6789	73245	He agrees that they are not showing the correct equation.	he agrees that they are not showing the correct equation.	3484674	1472007135301	1472007135397	e	69
6789	73245	He agrees that they are not showing the correct equation.	he agrees that they are not showing the correct equation.	3484826	1472007135861	1472007135989	w	87
6789	73245	He agrees that they are not showing the correct equation.	he agrees that they are not showing the correct equation.	3484831	1472007136341	1472007136421	BKSP	8
6789	73245	He agrees that they are not showing the correct equation.	he agrees that they are not showing the correct equation.	3484834	1472007136453	1472007136597	q	81
6789	73245	He agrees that they are not showing the correct equation.	he agrees that they are not showing the correct equation.	3484838	1472007137301	1472007137397	u	85
6789	73245	He agrees that they are not showing the correct equation.	he agrees that they are not showing the correct equation.	3484841	1472007137493	1472007137669	a	65
6789	73245	He agrees that they are not showing the correct equation.	he agrees that they are not showing the correct equation.	3484843	1472007138325	1472007138389	t	84
6789	73245	He agrees that they are not showing the correct equation.	he agrees that they are not showing the correct equation.	3484887	1472007138437	1472007138565	i	73
6789	73245	He agrees that they are not showing the correct equation.	he agrees that they are not showing the correct equation.	3484890	1472007138565	1472007138693	o	79
6789	73245	He agrees that they are not showing the correct equation.	he agrees that they are not showing the correct equation.	3484894	1472007138773	1472007138901	n	78
6789	73245	He agrees that they are not showing the correct equation.	he agrees that they are not showing the correct equation.	3484899	1472007138917	1472007138981	 	32
6789	73245	He agrees that they are not showing the correct equation.	he agrees that they are not showing the correct equation.	3484904	1472007139285	1472007139349	BKSP	8
6789	73245	He agrees that they are not showing the correct equation.	he agrees that they are not showing the correct equation.	3484909	1472007139525	1472007139557	.	190
6789	73270	Geez, I sound pathetic.	Geez, I sound pathetci/	3485136	1472007142773	1472007143061	SHIFT	16
6789	73270	Geez, I sound pathetic.	Geez, I sound pathetci/	3485139	1472007142965	1472007143093	G	71
6789	73270	Geez, I sound pathetic.	Geez, I sound pathetci/	3485141	1472007143205	1472007143285	e	69
6789	73270	Geez, I sound pathetic.	Geez, I sound pathetci/	3485143	1472007143365	1472007143429	e	69
6789	73270	Geez, I sound pathetic.	Geez, I sound pathetci/	3485146	1472007143541	1472007143653	x	90
6789	73270	Geez, I sound pathetic.	Geez, I sound pathetci/	3485399	1472007144085	1472007144133	BKSP	8
6789	73270	Geez, I sound pathetic.	Geez, I sound pathetci/	3485400	1472007144885	1472007144997	,	188
6789	73270	Geez, I sound pathetic.	Geez, I sound pathetci/	3485402	1472007145093	1472007145205	 	32
6789	73270	Geez, I sound pathetic.	Geez, I sound pathetci/	3485404	1472007145573	1472007145669	i	73
6789	73270	Geez, I sound pathetic.	Geez, I sound pathetci/	3485406	1472007146517	1472007146581	BKSP	8
6789	73270	Geez, I sound pathetic.	Geez, I sound pathetci/	3485412	1472007146677	1472007146996	SHIFT	16
6789	73270	Geez, I sound pathetic.	Geez, I sound pathetci/	3485408	1472007146853	1472007146965	I	73
6789	73270	Geez, I sound pathetic.	Geez, I sound pathetci/	3485419	1472007149044	1472007149140	 	32
6789	73270	Geez, I sound pathetic.	Geez, I sound pathetci/	3485502	1472007149348	1472007149620	SHIFT	16
6789	73270	Geez, I sound pathetic.	Geez, I sound pathetci/	3485506	1472007150164	1472007150244	s	83
6789	73270	Geez, I sound pathetic.	Geez, I sound pathetci/	3485510	1472007150324	1472007150469	o	79
6789	73270	Geez, I sound pathetic.	Geez, I sound pathetci/	3485513	1472007150597	1472007150677	y	85
6789	73270	Geez, I sound pathetic.	Geez, I sound pathetci/	3485517	1472007151077	1472007151173	BKSP	8
6789	73270	Geez, I sound pathetic.	Geez, I sound pathetci/	3485521	1472007151429	1472007151525	n	78
6789	73270	Geez, I sound pathetic.	Geez, I sound pathetci/	3485594	1472007151605	1472007151669	g	71
6789	73270	Geez, I sound pathetic.	Geez, I sound pathetci/	3485599	1472007151973	1472007152037	BKSP	8
6789	73270	Geez, I sound pathetic.	Geez, I sound pathetci/	3485602	1472007152133	1472007152245	d	68
6789	73270	Geez, I sound pathetic.	Geez, I sound pathetci/	3485605	1472007152325	1472007152437	 	32
6789	73270	Geez, I sound pathetic.	Geez, I sound pathetci/	3485608	1472007153173	1472007153221	p	79
6789	73270	Geez, I sound pathetic.	Geez, I sound pathetci/	3485745	1472007153733	1472007153797	BKSP	8
6789	73270	Geez, I sound pathetic.	Geez, I sound pathetci/	3485749	1472007153861	1472007153957	BKSP	8
6789	73270	Geez, I sound pathetic.	Geez, I sound pathetci/	3485761	1472007154341	1472007154405	p	80
6789	73270	Geez, I sound pathetic.	Geez, I sound pathetci/	3485769	1472007154485	1472007154597	a	65
6789	73270	Geez, I sound pathetic.	Geez, I sound pathetci/	3485776	1472007155493	1472007155589	t	84
6789	73270	Geez, I sound pathetic.	Geez, I sound pathetci/	3485783	1472007155620	1472007155685	h	72
6789	73270	Geez, I sound pathetic.	Geez, I sound pathetci/	3485788	1472007155828	1472007155924	e	69
6789	73270	Geez, I sound pathetic.	Geez, I sound pathetci/	3485961	1472007157412	1472007157508	t	84
6789	73270	Geez, I sound pathetic.	Geez, I sound pathetci/	3485964	1472007157652	1472007157812	c	67
6789	73270	Geez, I sound pathetic.	Geez, I sound pathetci/	3485968	1472007157844	1472007157940	i	73
6789	73270	Geez, I sound pathetic.	Geez, I sound pathetci/	3485971	1472007158373	1472007158469	/	191
6789	73289	He is out indefinitely and could miss the remainder of the season.	He is out indefinitely and could miss the reminder of the season.	3486244	1472007161413	1472007161685	SHIFT	16
6789	73289	He is out indefinitely and could miss the remainder of the season.	He is out indefinitely and could miss the reminder of the season.	3486247	1472007161669	1472007161749	H	72
6789	73289	He is out indefinitely and could miss the remainder of the season.	He is out indefinitely and could miss the reminder of the season.	3486250	1472007161845	1472007161957	o	79
6789	73289	He is out indefinitely and could miss the remainder of the season.	He is out indefinitely and could miss the reminder of the season.	3486251	1472007162197	1472007162261	e	69
6789	73289	He is out indefinitely and could miss the remainder of the season.	He is out indefinitely and could miss the reminder of the season.	3486253	1472007162357	1472007162421	BKSP	8
6789	73289	He is out indefinitely and could miss the remainder of the season.	He is out indefinitely and could miss the reminder of the season.	3486254	1472007163029	1472007163173	e	69
6789	73289	He is out indefinitely and could miss the remainder of the season.	He is out indefinitely and could miss the reminder of the season.	3486258	1472007163348	1472007163397	BKSP	8
6789	73289	He is out indefinitely and could miss the remainder of the season.	He is out indefinitely and could miss the reminder of the season.	3486259	1472007163476	1472007163541	BKSP	8
6789	73289	He is out indefinitely and could miss the remainder of the season.	He is out indefinitely and could miss the reminder of the season.	3486263	1472007163604	1472007163700	e	69
6789	73289	He is out indefinitely and could miss the remainder of the season.	He is out indefinitely and could miss the reminder of the season.	3486313	1472007163764	1472007163908	 	32
6789	73289	He is out indefinitely and could miss the remainder of the season.	He is out indefinitely and could miss the reminder of the season.	3486316	1472007164004	1472007164100	i	73
6789	73289	He is out indefinitely and could miss the remainder of the season.	He is out indefinitely and could miss the reminder of the season.	3486319	1472007164148	1472007164260	s	83
6789	73289	He is out indefinitely and could miss the remainder of the season.	He is out indefinitely and could miss the reminder of the season.	3486323	1472007164292	1472007164404	 	32
6789	73289	He is out indefinitely and could miss the remainder of the season.	He is out indefinitely and could miss the reminder of the season.	3486325	1472007165076	1472007165188	o	79
6789	73289	He is out indefinitely and could miss the remainder of the season.	He is out indefinitely and could miss the reminder of the season.	3486384	1472007165380	1472007165460	u	85
6789	73289	He is out indefinitely and could miss the remainder of the season.	He is out indefinitely and could miss the reminder of the season.	3486387	1472007165540	1472007165652	t	84
6789	73289	He is out indefinitely and could miss the remainder of the season.	He is out indefinitely and could miss the reminder of the season.	3486391	1472007165668	1472007165828	 	32
6789	73289	He is out indefinitely and could miss the remainder of the season.	He is out indefinitely and could miss the reminder of the season.	3486394	1472007166597	1472007166709	i	73
6789	73289	He is out indefinitely and could miss the remainder of the season.	He is out indefinitely and could miss the reminder of the season.	3486400	1472007166805	1472007166917	n	78
6789	73289	He is out indefinitely and could miss the remainder of the season.	He is out indefinitely and could miss the reminder of the season.	3486526	1472007167445	1472007167509	d	68
6789	73289	He is out indefinitely and could miss the remainder of the season.	He is out indefinitely and could miss the reminder of the season.	3486530	1472007167605	1472007167733	e	69
6789	73289	He is out indefinitely and could miss the remainder of the season.	He is out indefinitely and could miss the reminder of the season.	3486534	1472007167989	1472007168101	f	70
6789	73289	He is out indefinitely and could miss the remainder of the season.	He is out indefinitely and could miss the reminder of the season.	3486539	1472007168149	1472007168277	i	73
6789	73289	He is out indefinitely and could miss the remainder of the season.	He is out indefinitely and could miss the reminder of the season.	3486543	1472007169621	1472007169717	n	78
6789	73289	He is out indefinitely and could miss the remainder of the season.	He is out indefinitely and could miss the reminder of the season.	3486643	1472007169781	1472007169893	i	73
6789	73289	He is out indefinitely and could miss the remainder of the season.	He is out indefinitely and could miss the reminder of the season.	3486645	1472007170565	1472007170661	t	84
6789	73289	He is out indefinitely and could miss the remainder of the season.	He is out indefinitely and could miss the reminder of the season.	3486647	1472007171237	1472007171317	e	69
6789	73289	He is out indefinitely and could miss the remainder of the season.	He is out indefinitely and could miss the reminder of the season.	3486649	1472007171317	1472007171445	l	76
6789	73289	He is out indefinitely and could miss the remainder of the season.	He is out indefinitely and could miss the reminder of the season.	3486651	1472007171893	1472007171956	y	85
6789	73289	He is out indefinitely and could miss the remainder of the season.	He is out indefinitely and could miss the reminder of the season.	3486750	1472007172372	1472007172452	BKSP	8
6789	73289	He is out indefinitely and could miss the remainder of the season.	He is out indefinitely and could miss the reminder of the season.	3486751	1472007172500	1472007172580	BKSP	8
6789	73289	He is out indefinitely and could miss the remainder of the season.	He is out indefinitely and could miss the reminder of the season.	3486752	1472007173044	1472007173172	y	89
6789	73289	He is out indefinitely and could miss the remainder of the season.	He is out indefinitely and could miss the reminder of the season.	3486753	1472007173188	1472007173300	 	32
6789	73289	He is out indefinitely and could miss the remainder of the season.	He is out indefinitely and could miss the reminder of the season.	3486754	1472007173828	1472007173956	a	65
6789	73289	He is out indefinitely and could miss the remainder of the season.	He is out indefinitely and could miss the reminder of the season.	3486755	1472007173957	1472007174036	n	78
6789	73289	He is out indefinitely and could miss the remainder of the season.	He is out indefinitely and could miss the reminder of the season.	3486756	1472007174116	1472007174244	d	68
6789	73289	He is out indefinitely and could miss the remainder of the season.	He is out indefinitely and could miss the reminder of the season.	3486822	1472007174293	1472007174453	 	32
6789	73289	He is out indefinitely and could miss the remainder of the season.	He is out indefinitely and could miss the reminder of the season.	3486825	1472007175301	1472007175397	c	67
6789	73289	He is out indefinitely and could miss the remainder of the season.	He is out indefinitely and could miss the reminder of the season.	3486829	1472007175477	1472007175621	o	79
6789	73289	He is out indefinitely and could miss the remainder of the season.	He is out indefinitely and could miss the reminder of the season.	3486833	1472007175653	1472007175781	u	85
6789	73289	He is out indefinitely and could miss the remainder of the season.	He is out indefinitely and could miss the reminder of the season.	3486835	1472007175909	1472007176021	l	76
6789	73289	He is out indefinitely and could miss the remainder of the season.	He is out indefinitely and could miss the reminder of the season.	3486896	1472007176214	1472007176341	d	68
6789	73289	He is out indefinitely and could miss the remainder of the season.	He is out indefinitely and could miss the reminder of the season.	3486900	1472007176389	1472007176501	 	32
6789	73289	He is out indefinitely and could miss the remainder of the season.	He is out indefinitely and could miss the reminder of the season.	3486903	1472007177189	1472007177301	m	77
6789	73289	He is out indefinitely and could miss the remainder of the season.	He is out indefinitely and could miss the reminder of the season.	3486906	1472007177413	1472007177493	i	73
6789	73289	He is out indefinitely and could miss the remainder of the season.	He is out indefinitely and could miss the reminder of the season.	3486908	1472007177621	1472007177685	s	83
6789	73289	He is out indefinitely and could miss the remainder of the season.	He is out indefinitely and could miss the reminder of the season.	3486948	1472007177765	1472007177861	s	83
6789	73289	He is out indefinitely and could miss the remainder of the season.	He is out indefinitely and could miss the reminder of the season.	3486950	1472007178181	1472007178293	 	32
6789	73289	He is out indefinitely and could miss the remainder of the season.	He is out indefinitely and could miss the reminder of the season.	3486951	1472007178357	1472007178469	t	84
6789	73289	He is out indefinitely and could miss the remainder of the season.	He is out indefinitely and could miss the reminder of the season.	3486954	1472007178469	1472007178565	h	72
6789	73289	He is out indefinitely and could miss the remainder of the season.	He is out indefinitely and could miss the reminder of the season.	3486955	1472007178596	1472007178709	e	69
6789	73289	He is out indefinitely and could miss the remainder of the season.	He is out indefinitely and could miss the reminder of the season.	3487044	1472007178773	1472007178885	 	32
6789	73289	He is out indefinitely and could miss the remainder of the season.	He is out indefinitely and could miss the reminder of the season.	3487045	1472007179301	1472007179397	m	77
6789	73289	He is out indefinitely and could miss the remainder of the season.	He is out indefinitely and could miss the reminder of the season.	3487046	1472007180868	1472007180948	BKSP	8
6789	73289	He is out indefinitely and could miss the remainder of the season.	He is out indefinitely and could miss the reminder of the season.	3487047	1472007181172	1472007181348	r	82
6789	73289	He is out indefinitely and could miss the remainder of the season.	He is out indefinitely and could miss the reminder of the season.	3487048	1472007181349	1472007181476	e	69
6789	73289	He is out indefinitely and could miss the remainder of the season.	He is out indefinitely and could miss the reminder of the season.	3487050	1472007181556	1472007181668	m	77
6789	73289	He is out indefinitely and could miss the remainder of the season.	He is out indefinitely and could miss the reminder of the season.	3487126	1472007181860	1472007181956	i	73
6789	73289	He is out indefinitely and could miss the remainder of the season.	He is out indefinitely and could miss the reminder of the season.	3487130	1472007182068	1472007182164	n	78
6789	73289	He is out indefinitely and could miss the remainder of the season.	He is out indefinitely and could miss the reminder of the season.	3487132	1472007182613	1472007182709	d	68
6789	73289	He is out indefinitely and could miss the remainder of the season.	He is out indefinitely and could miss the reminder of the season.	3487135	1472007182789	1472007182917	e	69
6789	73289	He is out indefinitely and could miss the remainder of the season.	He is out indefinitely and could miss the reminder of the season.	3487137	1472007182997	1472007183125	s	83
6789	73289	He is out indefinitely and could miss the remainder of the season.	He is out indefinitely and could miss the reminder of the season.	3487227	1472007183333	1472007183397	BKSP	8
6789	73289	He is out indefinitely and could miss the remainder of the season.	He is out indefinitely and could miss the reminder of the season.	3487232	1472007183493	1472007183621	t	82
6789	73289	He is out indefinitely and could miss the remainder of the season.	He is out indefinitely and could miss the reminder of the season.	3487236	1472007184485	1472007184613	BKSP	8
6789	73289	He is out indefinitely and could miss the remainder of the season.	He is out indefinitely and could miss the reminder of the season.	3487240	1472007185237	1472007185381	 	32
6789	73289	He is out indefinitely and could miss the remainder of the season.	He is out indefinitely and could miss the reminder of the season.	3487243	1472007185509	1472007185637	o	79
6789	73289	He is out indefinitely and could miss the remainder of the season.	He is out indefinitely and could miss the reminder of the season.	3487246	1472007185701	1472007185813	f	70
6789	73289	He is out indefinitely and could miss the remainder of the season.	He is out indefinitely and could miss the reminder of the season.	3487255	1472007185814	1472007185941	 	32
6789	73289	He is out indefinitely and could miss the remainder of the season.	He is out indefinitely and could miss the reminder of the season.	3487259	1472007186037	1472007186165	t	84
6789	73289	He is out indefinitely and could miss the remainder of the season.	He is out indefinitely and could miss the reminder of the season.	3487263	1472007186101	1472007186212	h	72
6789	73289	He is out indefinitely and could miss the remainder of the season.	He is out indefinitely and could miss the reminder of the season.	3487268	1472007186293	1472007186421	e	69
6789	73289	He is out indefinitely and could miss the remainder of the season.	He is out indefinitely and could miss the reminder of the season.	3487272	1472007186421	1472007186533	 	32
6789	73289	He is out indefinitely and could miss the remainder of the season.	He is out indefinitely and could miss the reminder of the season.	3487388	1472007187221	1472007187317	s	83
6789	73289	He is out indefinitely and could miss the remainder of the season.	He is out indefinitely and could miss the reminder of the season.	3487391	1472007187396	1472007187540	e	69
6789	73289	He is out indefinitely and could miss the remainder of the season.	He is out indefinitely and could miss the reminder of the season.	3487397	1472007187604	1472007187796	a	65
6789	73289	He is out indefinitely and could miss the remainder of the season.	He is out indefinitely and could miss the reminder of the season.	3487400	1472007188388	1472007188532	s	83
6789	73289	He is out indefinitely and could miss the remainder of the season.	He is out indefinitely and could miss the reminder of the season.	3487403	1472007188596	1472007188772	o	79
6789	73289	He is out indefinitely and could miss the remainder of the season.	He is out indefinitely and could miss the reminder of the season.	3487479	1472007188836	1472007188964	n	78
6789	73289	He is out indefinitely and could miss the remainder of the season.	He is out indefinitely and could miss the reminder of the season.	3487482	1472007189652	1472007189764	/	190
6789	73289	He is out indefinitely and could miss the remainder of the season.	He is out indefinitely and could miss the reminder of the season.	3487484	1472007190100	1472007190180	BKSP	8
6789	73321	No employment claims for gas or power.	No employment claims for gas or power.	3487663	1472007193349	1472007193493	n	78
6789	73321	No employment claims for gas or power.	No employment claims for gas or power.	3487669	1472007193525	1472007193669	o	79
6789	73321	No employment claims for gas or power.	No employment claims for gas or power.	3487675	1472007193749	1472007193893	 	32
6789	73321	No employment claims for gas or power.	No employment claims for gas or power.	3487681	1472007194581	1472007194629	BKSP	8
6789	73321	No employment claims for gas or power.	No employment claims for gas or power.	3487686	1472007194709	1472007194821	BKSP	8
6789	73321	No employment claims for gas or power.	No employment claims for gas or power.	3487690	1472007194900	1472007194997	BKSP	8
6789	73321	No employment claims for gas or power.	No employment claims for gas or power.	3487691	1472007195108	1472007195540	SHIFT	16
6789	73321	No employment claims for gas or power.	No employment claims for gas or power.	3487695	1472007195493	1472007195604	N	78
6789	73321	No employment claims for gas or power.	No employment claims for gas or power.	3487701	1472007195636	1472007195796	o	79
6789	73321	No employment claims for gas or power.	No employment claims for gas or power.	3487770	1472007195844	1472007195956	 	32
6789	73321	No employment claims for gas or power.	No employment claims for gas or power.	3487772	1472007196452	1472007196564	e	69
6789	73321	No employment claims for gas or power.	No employment claims for gas or power.	3487774	1472007196596	1472007196740	m	77
6789	73321	No employment claims for gas or power.	No employment claims for gas or power.	3487775	1472007196868	1472007197012	o	79
6789	73321	No employment claims for gas or power.	No employment claims for gas or power.	3487777	1472007197588	1472007197652	BKSP	8
6789	73321	No employment claims for gas or power.	No employment claims for gas or power.	3487778	1472007198148	1472007198213	p	80
6789	73321	No employment claims for gas or power.	No employment claims for gas or power.	3487871	1472007198325	1472007198405	l	76
6789	73321	No employment claims for gas or power.	No employment claims for gas or power.	3487876	1472007198533	1472007198645	o	79
6789	73321	No employment claims for gas or power.	No employment claims for gas or power.	3487881	1472007199541	1472007199621	y	89
6789	73321	No employment claims for gas or power.	No employment claims for gas or power.	3487887	1472007200197	1472007200357	,	188
6789	73321	No employment claims for gas or power.	No employment claims for gas or power.	3487890	1472007200357	1472007200501	e	69
6789	73321	No employment claims for gas or power.	No employment claims for gas or power.	3488015	1472007200773	1472007200837	BKSP	8
6789	73321	No employment claims for gas or power.	No employment claims for gas or power.	3488018	1472007200869	1472007200949	BKSP	8
6789	73321	No employment claims for gas or power.	No employment claims for gas or power.	3488022	1472007201109	1472007201157	BKSP	8
6789	73321	No employment claims for gas or power.	No employment claims for gas or power.	3488027	1472007201989	1472007202069	y	89
6789	73321	No employment claims for gas or power.	No employment claims for gas or power.	3488033	1472007202213	1472007202293	m	77
6789	73321	No employment claims for gas or power.	No employment claims for gas or power.	3488037	1472007202341	1472007202437	e	69
6789	73321	No employment claims for gas or power.	No employment claims for gas or power.	3488041	1472007202517	1472007202613	n	78
6789	73321	No employment claims for gas or power.	No employment claims for gas or power.	3488043	1472007202692	1472007202853	t	84
6789	73321	No employment claims for gas or power.	No employment claims for gas or power.	3488078	1472007202885	1472007202996	 	32
6789	73321	No employment claims for gas or power.	No employment claims for gas or power.	3488080	1472007203684	1472007203812	c	67
6789	73321	No employment claims for gas or power.	No employment claims for gas or power.	3488083	1472007203844	1472007203988	l	76
6789	73321	No employment claims for gas or power.	No employment claims for gas or power.	3488086	1472007204020	1472007204148	a	65
6789	73321	No employment claims for gas or power.	No employment claims for gas or power.	3488089	1472007204404	1472007204548	i	73
6789	73321	No employment claims for gas or power.	No employment claims for gas or power.	3488159	1472007204644	1472007204740	n	78
6789	73321	No employment claims for gas or power.	No employment claims for gas or power.	3488161	1472007205332	1472007205412	BKSP	8
6789	73321	No employment claims for gas or power.	No employment claims for gas or power.	3488165	1472007205604	1472007205732	m	77
6789	73321	No employment claims for gas or power.	No employment claims for gas or power.	3488173	1472007205733	1472007205812	s	83
6789	73321	No employment claims for gas or power.	No employment claims for gas or power.	3488185	1472007206181	1472007206277	 	32
6789	73321	No employment claims for gas or power.	No employment claims for gas or power.	3488194	1472007206517	1472007206661	f	70
6789	73321	No employment claims for gas or power.	No employment claims for gas or power.	3488255	1472007206629	1472007206757	o	79
6789	73321	No employment claims for gas or power.	No employment claims for gas or power.	3488256	1472007207269	1472007207365	r	82
6789	73321	No employment claims for gas or power.	No employment claims for gas or power.	3488265	1472007207461	1472007207605	 	32
6789	73321	No employment claims for gas or power.	No employment claims for gas or power.	3488270	1472007207861	1472007207989	t	84
6789	73321	No employment claims for gas or power.	No employment claims for gas or power.	3488273	1472007207893	1472007208005	h	72
6789	73321	No employment claims for gas or power.	No employment claims for gas or power.	3488276	1472007208085	1472007208213	e	69
6789	73321	No employment claims for gas or power.	No employment claims for gas or power.	3488355	1472007208581	1472007208661	 	32
6789	73321	No employment claims for gas or power.	No employment claims for gas or power.	3488358	1472007209173	1472007209237	BKSP	8
6789	73321	No employment claims for gas or power.	No employment claims for gas or power.	3488361	1472007209301	1472007209365	BKSP	8
6789	73321	No employment claims for gas or power.	No employment claims for gas or power.	3488367	1472007209461	1472007209509	BKSP	8
6789	73321	No employment claims for gas or power.	No employment claims for gas or power.	3488372	1472007209861	1472007209909	BKSP	8
6789	73321	No employment claims for gas or power.	No employment claims for gas or power.	3488378	1472007210517	1472007210629	g	71
6789	73321	No employment claims for gas or power.	No employment claims for gas or power.	3488386	1472007210629	1472007210757	a	65
6789	73321	No employment claims for gas or power.	No employment claims for gas or power.	3488389	1472007210820	1472007210948	s	83
6789	73321	No employment claims for gas or power.	No employment claims for gas or power.	3488392	1472007210964	1472007211092	 	32
6789	73321	No employment claims for gas or power.	No employment claims for gas or power.	3488433	1472007211444	1472007211684	o	79
6789	73321	No employment claims for gas or power.	No employment claims for gas or power.	3488435	1472007211685	1472007211828	r	82
6789	73321	No employment claims for gas or power.	No employment claims for gas or power.	3488437	1472007211860	1472007211972	 	32
6789	73321	No employment claims for gas or power.	No employment claims for gas or power.	3488441	1472007212628	1472007212788	p	80
6789	73321	No employment claims for gas or power.	No employment claims for gas or power.	3488443	1472007212789	1472007212948	w	87
6789	73321	No employment claims for gas or power.	No employment claims for gas or power.	3488486	1472007213524	1472007213668	BKSP	8
6789	73321	No employment claims for gas or power.	No employment claims for gas or power.	3488488	1472007213700	1472007213764	BKSP	8
6789	73321	No employment claims for gas or power.	No employment claims for gas or power.	3488490	1472007213940	1472007214020	p	80
6789	73321	No employment claims for gas or power.	No employment claims for gas or power.	3488494	1472007214181	1472007214325	o	79
6789	73321	No employment claims for gas or power.	No employment claims for gas or power.	3488498	1472007214565	1472007214709	w	87
6789	73321	No employment claims for gas or power.	No employment claims for gas or power.	3488503	1472007215093	1472007215221	e	69
6789	73321	No employment claims for gas or power.	No employment claims for gas or power.	3488506	1472007215222	1472007215365	r	82
6789	73321	No employment claims for gas or power.	No employment claims for gas or power.	3488591	1472007215445	1472007215557	 	32
6789	73321	No employment claims for gas or power.	No employment claims for gas or power.	3488593	1472007215797	1472007215845	BKSP	8
6789	73321	No employment claims for gas or power.	No employment claims for gas or power.	3488597	1472007216085	1472007216149	/	191
6789	73321	No employment claims for gas or power.	No employment claims for gas or power.	3488599	1472007216533	1472007216597	BKSP	8
6789	73321	No employment claims for gas or power.	No employment claims for gas or power.	3488602	1472007216837	1472007216917	.	190
