PARTICIPANT_ID	TEST_SECTION_ID	SENTENCE	USER_INPUT	KEYSTROKE_ID	PRESS_TIME	RELEASE_TIME	LETTER	KEYCODE
6850	73618	I worked on the grade level promotion.	I worked on the grade level promotion.	3500750	1472007623939	1472007624056	SHIFT	16
6850	73618	I worked on the grade level promotion.	I worked on the grade level promotion.	3500751	1472007624002	1472007624163	I	73
6850	73618	I worked on the grade level promotion.	I worked on the grade level promotion.	3500752	1472007624110	1472007624325	 	32
6850	73618	I worked on the grade level promotion.	I worked on the grade level promotion.	3500753	1472007624232	1472007624327	w	87
6850	73618	I worked on the grade level promotion.	I worked on the grade level promotion.	3500754	1472007624331	1472007624479	o	79
6850	73618	I worked on the grade level promotion.	I worked on the grade level promotion.	3500775	1472007624455	1472007624548	r	82
6850	73618	I worked on the grade level promotion.	I worked on the grade level promotion.	3500780	1472007624657	1472007624765	k	75
6850	73618	I worked on the grade level promotion.	I worked on the grade level promotion.	3500784	1472007624765	1472007624863	e	69
6850	73618	I worked on the grade level promotion.	I worked on the grade level promotion.	3500786	1472007625004	1472007625097	d	68
6850	73618	I worked on the grade level promotion.	I worked on the grade level promotion.	3500789	1472007625129	1472007625237	 	32
6850	73618	I worked on the grade level promotion.	I worked on the grade level promotion.	3500796	1472007625198	1472007625365	o	79
6850	73618	I worked on the grade level promotion.	I worked on the grade level promotion.	3500800	1472007625327	1472007625481	n	78
6850	73618	I worked on the grade level promotion.	I worked on the grade level promotion.	3500806	1472007625416	1472007625587	 	32
6850	73618	I worked on the grade level promotion.	I worked on the grade level promotion.	3500803	1472007625496	1472007625556	t	84
6850	73618	I worked on the grade level promotion.	I worked on the grade level promotion.	3500810	1472007625649	1472007625779	h	72
6850	73618	I worked on the grade level promotion.	I worked on the grade level promotion.	3500833	1472007625737	1472007625848	e	69
6850	73618	I worked on the grade level promotion.	I worked on the grade level promotion.	3500836	1472007625832	1472007625946	 	32
6850	73618	I worked on the grade level promotion.	I worked on the grade level promotion.	3500838	1472007625962	1472007626064	g	71
6850	73618	I worked on the grade level promotion.	I worked on the grade level promotion.	3500842	1472007626015	1472007626143	r	82
6850	73618	I worked on the grade level promotion.	I worked on the grade level promotion.	3500846	1472007626236	1472007626380	a	65
6850	73618	I worked on the grade level promotion.	I worked on the grade level promotion.	3500865	1472007626368	1472007626498	d	68
6850	73618	I worked on the grade level promotion.	I worked on the grade level promotion.	3500867	1472007626470	1472007626587	e	69
6850	73618	I worked on the grade level promotion.	I worked on the grade level promotion.	3500868	1472007626531	1472007626663	 	32
6850	73618	I worked on the grade level promotion.	I worked on the grade level promotion.	3500871	1472007626604	1472007626754	l	76
6850	73618	I worked on the grade level promotion.	I worked on the grade level promotion.	3500874	1472007626710	1472007626788	e	69
6850	73618	I worked on the grade level promotion.	I worked on the grade level promotion.	3500877	1472007626897	1472007626970	v	86
6850	73618	I worked on the grade level promotion.	I worked on the grade level promotion.	3500901	1472007627009	1472007627122	e	69
6850	73618	I worked on the grade level promotion.	I worked on the grade level promotion.	3500904	1472007627111	1472007627235	l	76
6850	73618	I worked on the grade level promotion.	I worked on the grade level promotion.	3500908	1472007627235	1472007627350	 	32
6850	73618	I worked on the grade level promotion.	I worked on the grade level promotion.	3500911	1472007627382	1472007627478	p	80
6850	73618	I worked on the grade level promotion.	I worked on the grade level promotion.	3500916	1472007627510	1472007627588	r	82
6850	73618	I worked on the grade level promotion.	I worked on the grade level promotion.	3500954	1472007627614	1472007627719	o	79
6850	73618	I worked on the grade level promotion.	I worked on the grade level promotion.	3500957	1472007627734	1472007627870	m	77
6850	73618	I worked on the grade level promotion.	I worked on the grade level promotion.	3500958	1472007627865	1472007628000	o	79
6850	73618	I worked on the grade level promotion.	I worked on the grade level promotion.	3500959	1472007628016	1472007628075	t	84
6850	73618	I worked on the grade level promotion.	I worked on the grade level promotion.	3500995	1472007628165	1472007628386	i	73
6850	73618	I worked on the grade level promotion.	I worked on the grade level promotion.	3500964	1472007628258	1472007628386	o	79
6850	73618	I worked on the grade level promotion.	I worked on the grade level promotion.	3500997	1472007628343	1472007628449	n	78
6850	73618	I worked on the grade level promotion.	I worked on the grade level promotion.	3500999	1472007628558	1472007628652	.	190
6850	73631	The move was a further twist in the long-running dispute.	The move was a further twist in the long-running dispute.	3501398	1472007637589	1472007637727	SHIFT	16
6850	73631	The move was a further twist in the long-running dispute.	The move was a further twist in the long-running dispute.	3501400	1472007637699	1472007637747	T	84
6850	73631	The move was a further twist in the long-running dispute.	The move was a further twist in the long-running dispute.	3501401	1472007637850	1472007637953	h	72
6850	73631	The move was a further twist in the long-running dispute.	The move was a further twist in the long-running dispute.	3501402	1472007637953	1472007638065	e	69
6850	73631	The move was a further twist in the long-running dispute.	The move was a further twist in the long-running dispute.	3501404	1472007638047	1472007638200	 	32
6850	73631	The move was a further twist in the long-running dispute.	The move was a further twist in the long-running dispute.	3501421	1472007638159	1472007638348	m	77
6850	73631	The move was a further twist in the long-running dispute.	The move was a further twist in the long-running dispute.	3501422	1472007638268	1472007638406	o	79
6850	73631	The move was a further twist in the long-running dispute.	The move was a further twist in the long-running dispute.	3501423	1472007638363	1472007638476	v	86
6850	73631	The move was a further twist in the long-running dispute.	The move was a further twist in the long-running dispute.	3501425	1472007638454	1472007638578	e	69
6850	73631	The move was a further twist in the long-running dispute.	The move was a further twist in the long-running dispute.	3501427	1472007638642	1472007638751	 	32
6850	73631	The move was a further twist in the long-running dispute.	The move was a further twist in the long-running dispute.	3501450	1472007638722	1472007638812	w	87
6850	73631	The move was a further twist in the long-running dispute.	The move was a further twist in the long-running dispute.	3501452	1472007638906	1472007639047	a	65
6850	73631	The move was a further twist in the long-running dispute.	The move was a further twist in the long-running dispute.	3501455	1472007639017	1472007639117	s	83
6850	73631	The move was a further twist in the long-running dispute.	The move was a further twist in the long-running dispute.	3501457	1472007639101	1472007639208	 	32
6850	73631	The move was a further twist in the long-running dispute.	The move was a further twist in the long-running dispute.	3501459	1472007639427	1472007639519	a	65
6850	73631	The move was a further twist in the long-running dispute.	The move was a further twist in the long-running dispute.	3501462	1472007639629	1472007639747	 	32
6850	73631	The move was a further twist in the long-running dispute.	The move was a further twist in the long-running dispute.	3501484	1472007639756	1472007639841	f	70
6850	73631	The move was a further twist in the long-running dispute.	The move was a further twist in the long-running dispute.	3501486	1472007639873	1472007639982	u	85
6850	73631	The move was a further twist in the long-running dispute.	The move was a further twist in the long-running dispute.	3501489	1472007639982	1472007640045	r	82
6850	73631	The move was a further twist in the long-running dispute.	The move was a further twist in the long-running dispute.	3501491	1472007640154	1472007640218	t	84
6850	73631	The move was a further twist in the long-running dispute.	The move was a further twist in the long-running dispute.	3501494	1472007640249	1472007640340	h	72
6850	73631	The move was a further twist in the long-running dispute.	The move was a further twist in the long-running dispute.	3501524	1472007640375	1472007640524	e	69
6850	73631	The move was a further twist in the long-running dispute.	The move was a further twist in the long-running dispute.	3501526	1472007640451	1472007640574	r	82
6850	73631	The move was a further twist in the long-running dispute.	The move was a further twist in the long-running dispute.	3501527	1472007640668	1472007640792	 	32
6850	73631	The move was a further twist in the long-running dispute.	The move was a further twist in the long-running dispute.	3501528	1472007641151	1472007641223	t	84
6850	73631	The move was a further twist in the long-running dispute.	The move was a further twist in the long-running dispute.	3501529	1472007641332	1472007641407	w	87
6850	73631	The move was a further twist in the long-running dispute.	The move was a further twist in the long-running dispute.	3501535	1472007641448	1472007641554	i	73
6850	73631	The move was a further twist in the long-running dispute.	The move was a further twist in the long-running dispute.	3501538	1472007641554	1472007641628	s	83
6850	73631	The move was a further twist in the long-running dispute.	The move was a further twist in the long-running dispute.	3501541	1472007641782	1472007641857	t	84
6850	73631	The move was a further twist in the long-running dispute.	The move was a further twist in the long-running dispute.	3501544	1472007641842	1472007641992	 	32
6850	73631	The move was a further twist in the long-running dispute.	The move was a further twist in the long-running dispute.	3501558	1472007641947	1472007642107	i	73
6850	73631	The move was a further twist in the long-running dispute.	The move was a further twist in the long-running dispute.	3501559	1472007642014	1472007642166	n	78
6850	73631	The move was a further twist in the long-running dispute.	The move was a further twist in the long-running dispute.	3501561	1472007642107	1472007642249	 	32
6850	73631	The move was a further twist in the long-running dispute.	The move was a further twist in the long-running dispute.	3501563	1472007642197	1472007642258	t	84
6850	73631	The move was a further twist in the long-running dispute.	The move was a further twist in the long-running dispute.	3501564	1472007642312	1472007642427	h	72
6850	73631	The move was a further twist in the long-running dispute.	The move was a further twist in the long-running dispute.	3501590	1472007642406	1472007642498	e	69
6850	73631	The move was a further twist in the long-running dispute.	The move was a further twist in the long-running dispute.	3501593	1472007642481	1472007642643	 	32
6850	73631	The move was a further twist in the long-running dispute.	The move was a further twist in the long-running dispute.	3501599	1472007642619	1472007642696	l	76
6850	73631	The move was a further twist in the long-running dispute.	The move was a further twist in the long-running dispute.	3501603	1472007642790	1472007642958	o	79
6850	73631	The move was a further twist in the long-running dispute.	The move was a further twist in the long-running dispute.	3501607	1472007642919	1472007643060	n	78
6850	73631	The move was a further twist in the long-running dispute.	The move was a further twist in the long-running dispute.	3501612	1472007643107	1472007643155	g	71
6850	73631	The move was a further twist in the long-running dispute.	The move was a further twist in the long-running dispute.	3501656	1472007643292	1472007643386	-	189
6850	73631	The move was a further twist in the long-running dispute.	The move was a further twist in the long-running dispute.	3501659	1472007643480	1472007643585	r	82
6850	73631	The move was a further twist in the long-running dispute.	The move was a further twist in the long-running dispute.	3501661	1472007643617	1472007643704	u	85
6850	73631	The move was a further twist in the long-running dispute.	The move was a further twist in the long-running dispute.	3501664	1472007643782	1472007643838	n	78
6850	73631	The move was a further twist in the long-running dispute.	The move was a further twist in the long-running dispute.	3501668	1472007643932	1472007644012	n	78
6850	73631	The move was a further twist in the long-running dispute.	The move was a further twist in the long-running dispute.	3501693	1472007644022	1472007644179	i	73
6850	73631	The move was a further twist in the long-running dispute.	The move was a further twist in the long-running dispute.	3501698	1472007644111	1472007644259	n	78
6850	73631	The move was a further twist in the long-running dispute.	The move was a further twist in the long-running dispute.	3501703	1472007644210	1472007644262	g	71
6850	73631	The move was a further twist in the long-running dispute.	The move was a further twist in the long-running dispute.	3501708	1472007644294	1472007644426	 	32
6850	73631	The move was a further twist in the long-running dispute.	The move was a further twist in the long-running dispute.	3501714	1472007644488	1472007644569	d	68
6850	73631	The move was a further twist in the long-running dispute.	The move was a further twist in the long-running dispute.	3501740	1472007644611	1472007644721	i	73
6850	73631	The move was a further twist in the long-running dispute.	The move was a further twist in the long-running dispute.	3501743	1472007644694	1472007644800	s	83
6850	73631	The move was a further twist in the long-running dispute.	The move was a further twist in the long-running dispute.	3501749	1472007644971	1472007645052	p	80
6850	73631	The move was a further twist in the long-running dispute.	The move was a further twist in the long-running dispute.	3501756	1472007645333	1472007645402	u	85
6850	73631	The move was a further twist in the long-running dispute.	The move was a further twist in the long-running dispute.	3501764	1472007645426	1472007645588	t	84
6850	73631	The move was a further twist in the long-running dispute.	The move was a further twist in the long-running dispute.	3501802	1472007645542	1472007645642	e	69
6850	73631	The move was a further twist in the long-running dispute.	The move was a further twist in the long-running dispute.	3501804	1472007645674	1472007645788	.	190
6850	73646	What a nice note.	What a nice note.	3502006	1472007649758	1472007649913	SHIFT	16
6850	73646	What a nice note.	What a nice note.	3502009	1472007649852	1472007649961	W	87
6850	73646	What a nice note.	What a nice note.	3502016	1472007649992	1472007650110	h	72
6850	73646	What a nice note.	What a nice note.	3502021	1472007650095	1472007650194	a	65
6850	73646	What a nice note.	What a nice note.	3502027	1472007650194	1472007650307	t	84
6850	73646	What a nice note.	What a nice note.	3502032	1472007650294	1472007650405	 	32
6850	73646	What a nice note.	What a nice note.	3502033	1472007650384	1472007650496	a	65
6850	73646	What a nice note.	What a nice note.	3502034	1472007650484	1472007650651	 	32
6850	73646	What a nice note.	What a nice note.	3502035	1472007650584	1472007650740	n	78
6850	73646	What a nice note.	What a nice note.	3502078	1472007650668	1472007650799	i	73
6850	73646	What a nice note.	What a nice note.	3502081	1472007650728	1472007650839	c	67
6850	73646	What a nice note.	What a nice note.	3502083	1472007650804	1472007650942	e	69
6850	73646	What a nice note.	What a nice note.	3502087	1472007650893	1472007651035	 	32
6850	73646	What a nice note.	What a nice note.	3502089	1472007650993	1472007651134	n	78
6850	73646	What a nice note.	What a nice note.	3502091	1472007651085	1472007651199	o	79
6850	73646	What a nice note.	What a nice note.	3502093	1472007651214	1472007651301	t	84
6850	73646	What a nice note.	What a nice note.	3502096	1472007651391	1472007651452	e	69
6850	73646	What a nice note.	What a nice note.	3502097	1472007651452	1472007651549	.	190
6850	73653	Jordan is taking her last job, corporate development.	Jordan is taking her last job, corporate development	3502582	1472007651618	1472007661512	SHIFT	16
6850	73653	Jordan is taking her last job, corporate development.	Jordan is taking her last job, corporate development	3502586	1472007661467	1472007661612	J	74
6850	73653	Jordan is taking her last job, corporate development.	Jordan is taking her last job, corporate development	3502589	1472007661574	1472007661674	o	79
6850	73653	Jordan is taking her last job, corporate development.	Jordan is taking her last job, corporate development	3502594	1472007661721	1472007661791	r	82
6850	73653	Jordan is taking her last job, corporate development.	Jordan is taking her last job, corporate development	3502597	1472007661906	1472007661977	d	68
6850	73653	Jordan is taking her last job, corporate development.	Jordan is taking her last job, corporate development	3502601	1472007662242	1472007662342	a	65
6850	73653	Jordan is taking her last job, corporate development.	Jordan is taking her last job, corporate development	3502618	1472007662369	1472007662536	n	78
6850	73653	Jordan is taking her last job, corporate development.	Jordan is taking her last job, corporate development	3502621	1472007662583	1472007662746	 	32
6850	73653	Jordan is taking her last job, corporate development.	Jordan is taking her last job, corporate development	3502624	1472007662692	1472007662845	i	73
6850	73653	Jordan is taking her last job, corporate development.	Jordan is taking her last job, corporate development	3502626	1472007662824	1472007662885	s	83
6850	73653	Jordan is taking her last job, corporate development.	Jordan is taking her last job, corporate development	3502628	1472007662932	1472007663048	 	32
6850	73653	Jordan is taking her last job, corporate development.	Jordan is taking her last job, corporate development	3502654	1472007663061	1472007663126	t	84
6850	73653	Jordan is taking her last job, corporate development.	Jordan is taking her last job, corporate development	3502656	1472007663235	1472007663347	a	65
6850	73653	Jordan is taking her last job, corporate development.	Jordan is taking her last job, corporate development	3502659	1472007663426	1472007663532	k	75
6850	73653	Jordan is taking her last job, corporate development.	Jordan is taking her last job, corporate development	3502661	1472007663610	1472007663774	i	73
6850	73653	Jordan is taking her last job, corporate development.	Jordan is taking her last job, corporate development	3502679	1472007663700	1472007663855	n	78
6850	73653	Jordan is taking her last job, corporate development.	Jordan is taking her last job, corporate development	3502681	1472007663855	1472007663941	g	71
6850	73653	Jordan is taking her last job, corporate development.	Jordan is taking her last job, corporate development	3502683	1472007663935	1472007664047	 	32
6850	73653	Jordan is taking her last job, corporate development.	Jordan is taking her last job, corporate development	3502684	1472007664031	1472007664125	h	72
6850	73653	Jordan is taking her last job, corporate development.	Jordan is taking her last job, corporate development	3502685	1472007664083	1472007664204	e	69
6850	73653	Jordan is taking her last job, corporate development.	Jordan is taking her last job, corporate development	3502689	1472007664158	1472007664253	r	82
6850	73653	Jordan is taking her last job, corporate development.	Jordan is taking her last job, corporate development	3502691	1472007664233	1472007664353	 	32
6850	73653	Jordan is taking her last job, corporate development.	Jordan is taking her last job, corporate development	3502693	1472007664330	1472007664431	l	76
6850	73653	Jordan is taking her last job, corporate development.	Jordan is taking her last job, corporate development	3502695	1472007664431	1472007664548	a	65
6850	73653	Jordan is taking her last job, corporate development.	Jordan is taking her last job, corporate development	3502697	1472007664461	1472007664595	s	83
6850	73653	Jordan is taking her last job, corporate development.	Jordan is taking her last job, corporate development	3502699	1472007664610	1472007664689	t	84
6850	73653	Jordan is taking her last job, corporate development.	Jordan is taking her last job, corporate development	3502740	1472007664707	1472007664798	 	32
6850	73653	Jordan is taking her last job, corporate development.	Jordan is taking her last job, corporate development	3502742	1472007664907	1472007665041	j	74
6850	73653	Jordan is taking her last job, corporate development.	Jordan is taking her last job, corporate development	3502744	1472007665020	1472007665144	o	79
6850	73653	Jordan is taking her last job, corporate development.	Jordan is taking her last job, corporate development	3502746	1472007665443	1472007665520	b	66
6850	73653	Jordan is taking her last job, corporate development.	Jordan is taking her last job, corporate development	3502750	1472007665630	1472007665771	,	188
6850	73653	Jordan is taking her last job, corporate development.	Jordan is taking her last job, corporate development	3502816	1472007665753	1472007665878	 	32
6850	73653	Jordan is taking her last job, corporate development.	Jordan is taking her last job, corporate development	3502818	1472007665925	1472007666006	c	67
6850	73653	Jordan is taking her last job, corporate development.	Jordan is taking her last job, corporate development	3502822	1472007666037	1472007666137	o	79
6850	73653	Jordan is taking her last job, corporate development.	Jordan is taking her last job, corporate development	3502825	1472007666153	1472007666224	r	82
6850	73653	Jordan is taking her last job, corporate development.	Jordan is taking her last job, corporate development	3502828	1472007666848	1472007666960	p	80
6850	73653	Jordan is taking her last job, corporate development.	Jordan is taking her last job, corporate development	3502829	1472007667069	1472007667160	o	79
6850	73653	Jordan is taking her last job, corporate development.	Jordan is taking her last job, corporate development	3502865	1472007667196	1472007667285	r	82
6850	73653	Jordan is taking her last job, corporate development.	Jordan is taking her last job, corporate development	3502871	1472007667394	1472007667494	a	65
6850	73653	Jordan is taking her last job, corporate development.	Jordan is taking her last job, corporate development	3502876	1472007667572	1472007667654	t	84
6850	73653	Jordan is taking her last job, corporate development.	Jordan is taking her last job, corporate development	3502878	1472007667685	1472007667771	e	69
6850	73653	Jordan is taking her last job, corporate development.	Jordan is taking her last job, corporate development	3502880	1472007667778	1472007667885	 	32
6850	73653	Jordan is taking her last job, corporate development.	Jordan is taking her last job, corporate development	3502908	1472007667925	1472007668046	d	68
6850	73653	Jordan is taking her last job, corporate development.	Jordan is taking her last job, corporate development	3502910	1472007668003	1472007668109	e	69
6850	73653	Jordan is taking her last job, corporate development.	Jordan is taking her last job, corporate development	3502917	1472007668203	1472007668278	v	86
6850	73653	Jordan is taking her last job, corporate development.	Jordan is taking her last job, corporate development	3502923	1472007668310	1472007668393	e	69
6850	73653	Jordan is taking her last job, corporate development.	Jordan is taking her last job, corporate development	3502926	1472007668409	1472007668478	l	76
6850	73653	Jordan is taking her last job, corporate development.	Jordan is taking her last job, corporate development	3502939	1472007668589	1472007668692	o	79
6850	73653	Jordan is taking her last job, corporate development.	Jordan is taking her last job, corporate development	3502942	1472007668708	1472007668807	p	80
6850	73653	Jordan is taking her last job, corporate development.	Jordan is taking her last job, corporate development	3502943	1472007668901	1472007669014	m	77
6850	73653	Jordan is taking her last job, corporate development.	Jordan is taking her last job, corporate development	3502945	1472007669045	1472007669120	e	69
6850	73653	Jordan is taking her last job, corporate development.	Jordan is taking her last job, corporate development	3502947	1472007669157	1472007669226	n	78
6850	73653	Jordan is taking her last job, corporate development.	Jordan is taking her last job, corporate development	3502948	1472007669255	1472007669307	t	84
6850	73672	Baku's forces had for more than 24 hours been engaged in clashes.	Baku's forces had for more that 24 hours been engaged in clashes.	3503225	1472007674771	1472007674882	SHIFT	16
6850	73672	Baku's forces had for more than 24 hours been engaged in clashes.	Baku's forces had for more that 24 hours been engaged in clashes.	3503228	1472007674849	1472007674931	B	66
6850	73672	Baku's forces had for more than 24 hours been engaged in clashes.	Baku's forces had for more that 24 hours been engaged in clashes.	3503230	1472007675004	1472007675108	a	65
6850	73672	Baku's forces had for more than 24 hours been engaged in clashes.	Baku's forces had for more that 24 hours been engaged in clashes.	3503232	1472007675108	1472007675266	k	75
6850	73672	Baku's forces had for more than 24 hours been engaged in clashes.	Baku's forces had for more that 24 hours been engaged in clashes.	3503234	1472007675229	1472007675306	u	85
6850	73672	Baku's forces had for more than 24 hours been engaged in clashes.	Baku's forces had for more that 24 hours been engaged in clashes.	3503237	1472007675489	1472007675589	'	222
6850	73672	Baku's forces had for more than 24 hours been engaged in clashes.	Baku's forces had for more that 24 hours been engaged in clashes.	3503266	1472007675612	1472007675691	s	83
6850	73672	Baku's forces had for more than 24 hours been engaged in clashes.	Baku's forces had for more that 24 hours been engaged in clashes.	3503273	1472007675754	1472007675879	 	32
6850	73672	Baku's forces had for more than 24 hours been engaged in clashes.	Baku's forces had for more that 24 hours been engaged in clashes.	3503288	1472007675926	1472007676084	f	70
6850	73672	Baku's forces had for more than 24 hours been engaged in clashes.	Baku's forces had for more that 24 hours been engaged in clashes.	3503281	1472007676007	1472007676044	o	79
6850	73672	Baku's forces had for more than 24 hours been engaged in clashes.	Baku's forces had for more that 24 hours been engaged in clashes.	3503293	1472007676293	1472007676366	r	82
6850	73672	Baku's forces had for more than 24 hours been engaged in clashes.	Baku's forces had for more that 24 hours been engaged in clashes.	3503303	1472007676506	1472007676606	c	67
6850	73672	Baku's forces had for more than 24 hours been engaged in clashes.	Baku's forces had for more that 24 hours been engaged in clashes.	3503307	1472007676637	1472007676714	e	69
6850	73672	Baku's forces had for more than 24 hours been engaged in clashes.	Baku's forces had for more that 24 hours been engaged in clashes.	3503314	1472007676824	1472007676905	s	83
6850	73672	Baku's forces had for more than 24 hours been engaged in clashes.	Baku's forces had for more that 24 hours been engaged in clashes.	3503322	1472007676920	1472007677059	 	32
6850	73672	Baku's forces had for more than 24 hours been engaged in clashes.	Baku's forces had for more that 24 hours been engaged in clashes.	3503348	1472007677020	1472007677158	h	72
6850	73672	Baku's forces had for more than 24 hours been engaged in clashes.	Baku's forces had for more that 24 hours been engaged in clashes.	3503351	1472007677105	1472007677236	a	65
6850	73672	Baku's forces had for more than 24 hours been engaged in clashes.	Baku's forces had for more that 24 hours been engaged in clashes.	3503355	1472007677221	1472007677352	d	68
6850	73672	Baku's forces had for more than 24 hours been engaged in clashes.	Baku's forces had for more that 24 hours been engaged in clashes.	3503359	1472007677383	1472007677501	 	32
6850	73672	Baku's forces had for more than 24 hours been engaged in clashes.	Baku's forces had for more that 24 hours been engaged in clashes.	3503362	1472007677532	1472007677670	f	70
6850	73672	Baku's forces had for more than 24 hours been engaged in clashes.	Baku's forces had for more that 24 hours been engaged in clashes.	3503392	1472007677629	1472007677736	r	82
6850	73672	Baku's forces had for more than 24 hours been engaged in clashes.	Baku's forces had for more that 24 hours been engaged in clashes.	3503396	1472007677767	1472007677901	o	79
6850	73672	Baku's forces had for more than 24 hours been engaged in clashes.	Baku's forces had for more that 24 hours been engaged in clashes.	3503399	1472007678151	1472007678211	BKSP	8
6850	73672	Baku's forces had for more than 24 hours been engaged in clashes.	Baku's forces had for more that 24 hours been engaged in clashes.	3503402	1472007678269	1472007678379	BKSP	8
6850	73672	Baku's forces had for more than 24 hours been engaged in clashes.	Baku's forces had for more that 24 hours been engaged in clashes.	3503407	1472007678441	1472007678565	o	79
6850	73672	Baku's forces had for more than 24 hours been engaged in clashes.	Baku's forces had for more that 24 hours been engaged in clashes.	3503411	1472007678545	1472007678613	r	82
6850	73672	Baku's forces had for more than 24 hours been engaged in clashes.	Baku's forces had for more that 24 hours been engaged in clashes.	3503416	1472007678628	1472007678783	 	32
6850	73672	Baku's forces had for more than 24 hours been engaged in clashes.	Baku's forces had for more that 24 hours been engaged in clashes.	3503420	1472007678743	1472007678901	m	77
6850	73672	Baku's forces had for more than 24 hours been engaged in clashes.	Baku's forces had for more that 24 hours been engaged in clashes.	3503425	1472007678858	1472007678960	o	79
6850	73672	Baku's forces had for more than 24 hours been engaged in clashes.	Baku's forces had for more that 24 hours been engaged in clashes.	3503430	1472007678882	1472007678987	r	82
6850	73672	Baku's forces had for more than 24 hours been engaged in clashes.	Baku's forces had for more that 24 hours been engaged in clashes.	3503437	1472007678950	1472007679018	e	69
6850	73672	Baku's forces had for more than 24 hours been engaged in clashes.	Baku's forces had for more that 24 hours been engaged in clashes.	3503441	1472007679034	1472007679148	 	32
6850	73672	Baku's forces had for more than 24 hours been engaged in clashes.	Baku's forces had for more that 24 hours been engaged in clashes.	3503466	1472007679118	1472007679216	t	84
6850	73672	Baku's forces had for more than 24 hours been engaged in clashes.	Baku's forces had for more that 24 hours been engaged in clashes.	3503468	1472007679237	1472007679333	h	72
6850	73672	Baku's forces had for more than 24 hours been engaged in clashes.	Baku's forces had for more that 24 hours been engaged in clashes.	3503472	1472007679365	1472007679482	a	65
6850	73672	Baku's forces had for more than 24 hours been engaged in clashes.	Baku's forces had for more that 24 hours been engaged in clashes.	3503474	1472007679498	1472007679591	t	84
6850	73672	Baku's forces had for more than 24 hours been engaged in clashes.	Baku's forces had for more that 24 hours been engaged in clashes.	3503476	1472007679567	1472007679667	 	32
6850	73672	Baku's forces had for more than 24 hours been engaged in clashes.	Baku's forces had for more that 24 hours been engaged in clashes.	3503479	1472007679886	1472007679956	2	50
6850	73672	Baku's forces had for more than 24 hours been engaged in clashes.	Baku's forces had for more that 24 hours been engaged in clashes.	3503510	1472007680123	1472007680217	4	52
6850	73672	Baku's forces had for more than 24 hours been engaged in clashes.	Baku's forces had for more that 24 hours been engaged in clashes.	3503511	1472007680326	1472007680401	 	32
6850	73672	Baku's forces had for more than 24 hours been engaged in clashes.	Baku's forces had for more that 24 hours been engaged in clashes.	3503512	1472007680510	1472007680622	h	72
6850	73672	Baku's forces had for more than 24 hours been engaged in clashes.	Baku's forces had for more that 24 hours been engaged in clashes.	3503556	1472007680653	1472007680858	o	79
6850	73672	Baku's forces had for more than 24 hours been engaged in clashes.	Baku's forces had for more that 24 hours been engaged in clashes.	3503560	1472007680750	1472007680872	u	85
6850	73672	Baku's forces had for more than 24 hours been engaged in clashes.	Baku's forces had for more that 24 hours been engaged in clashes.	3503514	1472007680773	1472007680858	r	82
6850	73672	Baku's forces had for more than 24 hours been engaged in clashes.	Baku's forces had for more that 24 hours been engaged in clashes.	3503563	1472007680951	1472007681072	s	83
6850	73672	Baku's forces had for more than 24 hours been engaged in clashes.	Baku's forces had for more that 24 hours been engaged in clashes.	3503567	1472007681103	1472007681173	 	32
6850	73672	Baku's forces had for more than 24 hours been engaged in clashes.	Baku's forces had for more that 24 hours been engaged in clashes.	3503570	1472007681283	1472007681380	b	66
6850	73672	Baku's forces had for more than 24 hours been engaged in clashes.	Baku's forces had for more that 24 hours been engaged in clashes.	3503573	1472007681380	1472007681453	e	69
6850	73672	Baku's forces had for more than 24 hours been engaged in clashes.	Baku's forces had for more that 24 hours been engaged in clashes.	3503574	1472007681535	1472007681649	e	69
6850	73672	Baku's forces had for more than 24 hours been engaged in clashes.	Baku's forces had for more that 24 hours been engaged in clashes.	3503653	1472007681615	1472007681740	n	78
6850	73672	Baku's forces had for more than 24 hours been engaged in clashes.	Baku's forces had for more that 24 hours been engaged in clashes.	3503656	1472007681708	1472007681804	 	32
6850	73672	Baku's forces had for more than 24 hours been engaged in clashes.	Baku's forces had for more that 24 hours been engaged in clashes.	3503658	1472007681819	1472007681906	e	69
6850	73672	Baku's forces had for more than 24 hours been engaged in clashes.	Baku's forces had for more that 24 hours been engaged in clashes.	3503663	1472007681964	1472007682074	h	72
6850	73672	Baku's forces had for more than 24 hours been engaged in clashes.	Baku's forces had for more that 24 hours been engaged in clashes.	3503660	1472007682032	1472007682044	g	71
6850	73672	Baku's forces had for more than 24 hours been engaged in clashes.	Baku's forces had for more that 24 hours been engaged in clashes.	3503665	1472007682295	1472007682381	BKSP	8
6850	73672	Baku's forces had for more than 24 hours been engaged in clashes.	Baku's forces had for more that 24 hours been engaged in clashes.	3503669	1472007683087	1472007683147	BKSP	8
6850	73672	Baku's forces had for more than 24 hours been engaged in clashes.	Baku's forces had for more that 24 hours been engaged in clashes.	3503673	1472007683421	1472007683480	n	78
6850	73672	Baku's forces had for more than 24 hours been engaged in clashes.	Baku's forces had for more that 24 hours been engaged in clashes.	3503701	1472007683578	1472007683676	g	71
6850	73672	Baku's forces had for more than 24 hours been engaged in clashes.	Baku's forces had for more that 24 hours been engaged in clashes.	3503705	1472007683707	1472007683797	a	65
6850	73672	Baku's forces had for more than 24 hours been engaged in clashes.	Baku's forces had for more that 24 hours been engaged in clashes.	3503707	1472007683786	1472007683876	g	71
6850	73672	Baku's forces had for more than 24 hours been engaged in clashes.	Baku's forces had for more that 24 hours been engaged in clashes.	3503710	1472007683923	1472007683994	e	69
6850	73672	Baku's forces had for more than 24 hours been engaged in clashes.	Baku's forces had for more that 24 hours been engaged in clashes.	3503714	1472007684082	1472007684182	d	68
6850	73672	Baku's forces had for more than 24 hours been engaged in clashes.	Baku's forces had for more that 24 hours been engaged in clashes.	3503774	1472007684161	1472007684349	 	32
6850	73672	Baku's forces had for more than 24 hours been engaged in clashes.	Baku's forces had for more that 24 hours been engaged in clashes.	3503775	1472007684282	1472007684429	i	73
6850	73672	Baku's forces had for more than 24 hours been engaged in clashes.	Baku's forces had for more that 24 hours been engaged in clashes.	3503776	1472007684354	1472007684519	n	78
6850	73672	Baku's forces had for more than 24 hours been engaged in clashes.	Baku's forces had for more that 24 hours been engaged in clashes.	3503778	1472007684460	1472007684576	 	32
6850	73672	Baku's forces had for more than 24 hours been engaged in clashes.	Baku's forces had for more that 24 hours been engaged in clashes.	3503780	1472007684535	1472007684619	c	67
6850	73672	Baku's forces had for more than 24 hours been engaged in clashes.	Baku's forces had for more that 24 hours been engaged in clashes.	3503784	1472007685605	1472007685658	l	76
6850	73672	Baku's forces had for more than 24 hours been engaged in clashes.	Baku's forces had for more that 24 hours been engaged in clashes.	3503815	1472007685865	1472007685975	a	65
6850	73672	Baku's forces had for more than 24 hours been engaged in clashes.	Baku's forces had for more that 24 hours been engaged in clashes.	3503818	1472007685902	1472007686024	s	83
6850	73672	Baku's forces had for more than 24 hours been engaged in clashes.	Baku's forces had for more that 24 hours been engaged in clashes.	3503823	1472007686070	1472007686142	h	72
6850	73672	Baku's forces had for more than 24 hours been engaged in clashes.	Baku's forces had for more that 24 hours been engaged in clashes.	3503825	1472007686168	1472007686226	e	69
6850	73672	Baku's forces had for more than 24 hours been engaged in clashes.	Baku's forces had for more that 24 hours been engaged in clashes.	3503828	1472007686336	1472007686400	s	83
6850	73672	Baku's forces had for more than 24 hours been engaged in clashes.	Baku's forces had for more that 24 hours been engaged in clashes.	3503835	1472007686596	1472007686681	.	190
6850	73687	The Portal User IDs and Passwords are created by you.	The Portal Users IDs and Passwords are created by you.	3504009	1472007689615	1472007689776	SHIFT	16
6850	73687	The Portal User IDs and Passwords are created by you.	The Portal Users IDs and Passwords are created by you.	3504004	1472007689716	1472007689766	T	84
6850	73687	The Portal User IDs and Passwords are created by you.	The Portal Users IDs and Passwords are created by you.	3504014	1472007689858	1472007689952	h	72
6850	73687	The Portal User IDs and Passwords are created by you.	The Portal Users IDs and Passwords are created by you.	3504019	1472007690343	1472007690425	e	69
6850	73687	The Portal User IDs and Passwords are created by you.	The Portal Users IDs and Passwords are created by you.	3504024	1472007690488	1472007690621	 	32
6850	73687	The Portal User IDs and Passwords are created by you.	The Portal Users IDs and Passwords are created by you.	3504029	1472007690592	1472007690784	SHIFT	16
6850	73687	The Portal User IDs and Passwords are created by you.	The Portal Users IDs and Passwords are created by you.	3504072	1472007690683	1472007690801	P	80
6850	73687	The Portal User IDs and Passwords are created by you.	The Portal Users IDs and Passwords are created by you.	3504075	1472007690927	1472007691026	o	79
6850	73687	The Portal User IDs and Passwords are created by you.	The Portal Users IDs and Passwords are created by you.	3504079	1472007691121	1472007691155	r	82
6850	73687	The Portal User IDs and Passwords are created by you.	The Portal Users IDs and Passwords are created by you.	3504087	1472007691397	1472007691493	t	84
6850	73687	The Portal User IDs and Passwords are created by you.	The Portal Users IDs and Passwords are created by you.	3504092	1472007691539	1472007691649	a	65
6850	73687	The Portal User IDs and Passwords are created by you.	The Portal Users IDs and Passwords are created by you.	3504099	1472007691711	1472007691854	l	76
6850	73687	The Portal User IDs and Passwords are created by you.	The Portal Users IDs and Passwords are created by you.	3504133	1472007691815	1472007691946	 	32
6850	73687	The Portal User IDs and Passwords are created by you.	The Portal Users IDs and Passwords are created by you.	3504137	1472007691883	1472007692121	SHIFT	16
6850	73687	The Portal User IDs and Passwords are created by you.	The Portal Users IDs and Passwords are created by you.	3504143	1472007692071	1472007692157	U	85
6850	73687	The Portal User IDs and Passwords are created by you.	The Portal Users IDs and Passwords are created by you.	3504149	1472007692235	1472007692317	s	83
6850	73687	The Portal User IDs and Passwords are created by you.	The Portal Users IDs and Passwords are created by you.	3504155	1472007692426	1472007692492	e	69
6850	73687	The Portal User IDs and Passwords are created by you.	The Portal Users IDs and Passwords are created by you.	3504161	1472007692649	1472007692712	r	82
6850	73687	The Portal User IDs and Passwords are created by you.	The Portal Users IDs and Passwords are created by you.	3504164	1472007692850	1472007692938	s	83
6850	73687	The Portal User IDs and Passwords are created by you.	The Portal Users IDs and Passwords are created by you.	3504220	1472007692996	1472007693112	 	32
6850	73687	The Portal User IDs and Passwords are created by you.	The Portal Users IDs and Passwords are created by you.	3504230	1472007693112	1472007693703	SHIFT	16
6850	73687	The Portal User IDs and Passwords are created by you.	The Portal Users IDs and Passwords are created by you.	3504223	1472007693221	1472007693296	I	73
6850	73687	The Portal User IDs and Passwords are created by you.	The Portal Users IDs and Passwords are created by you.	3504227	1472007693470	1472007693593	D	68
6850	73687	The Portal User IDs and Passwords are created by you.	The Portal Users IDs and Passwords are created by you.	3504235	1472007693953	1472007694068	s	83
6850	73687	The Portal User IDs and Passwords are created by you.	The Portal Users IDs and Passwords are created by you.	3504241	1472007694162	1472007694292	 	32
6850	73687	The Portal User IDs and Passwords are created by you.	The Portal Users IDs and Passwords are created by you.	3504262	1472007694292	1472007694379	a	65
6850	73687	The Portal User IDs and Passwords are created by you.	The Portal Users IDs and Passwords are created by you.	3504264	1472007694411	1472007694504	n	78
6850	73687	The Portal User IDs and Passwords are created by you.	The Portal Users IDs and Passwords are created by you.	3504268	1472007694504	1472007694583	d	68
6850	73687	The Portal User IDs and Passwords are created by you.	The Portal Users IDs and Passwords are created by you.	3504271	1472007694604	1472007694705	 	32
6850	73687	The Portal User IDs and Passwords are created by you.	The Portal Users IDs and Passwords are created by you.	3504274	1472007694720	1472007694888	SHIFT	16
6850	73687	The Portal User IDs and Passwords are created by you.	The Portal Users IDs and Passwords are created by you.	3504316	1472007694798	1472007694915	P	80
6850	73687	The Portal User IDs and Passwords are created by you.	The Portal Users IDs and Passwords are created by you.	3504319	1472007694995	1472007695065	a	65
6850	73687	The Portal User IDs and Passwords are created by you.	The Portal Users IDs and Passwords are created by you.	3504322	1472007695181	1472007695263	s	83
6850	73687	The Portal User IDs and Passwords are created by you.	The Portal Users IDs and Passwords are created by you.	3504326	1472007695342	1472007695412	s	83
6850	73687	The Portal User IDs and Passwords are created by you.	The Portal Users IDs and Passwords are created by you.	3504330	1472007695522	1472007695597	w	87
6850	73687	The Portal User IDs and Passwords are created by you.	The Portal Users IDs and Passwords are created by you.	3504334	1472007695627	1472007695733	o	79
6850	73687	The Portal User IDs and Passwords are created by you.	The Portal Users IDs and Passwords are created by you.	3504360	1472007695762	1472007695834	r	82
6850	73687	The Portal User IDs and Passwords are created by you.	The Portal Users IDs and Passwords are created by you.	3504363	1472007695962	1472007696031	d	68
6850	73687	The Portal User IDs and Passwords are created by you.	The Portal Users IDs and Passwords are created by you.	3504366	1472007696145	1472007696208	s	83
6850	73687	The Portal User IDs and Passwords are created by you.	The Portal Users IDs and Passwords are created by you.	3504370	1472007696226	1472007696355	 	32
6850	73687	The Portal User IDs and Passwords are created by you.	The Portal Users IDs and Passwords are created by you.	3504375	1472007696370	1472007696443	a	65
6850	73687	The Portal User IDs and Passwords are created by you.	The Portal Users IDs and Passwords are created by you.	3504419	1472007696513	1472007696632	r	82
6850	73687	The Portal User IDs and Passwords are created by you.	The Portal Users IDs and Passwords are created by you.	3504422	1472007696602	1472007696698	e	69
6850	73687	The Portal User IDs and Passwords are created by you.	The Portal Users IDs and Passwords are created by you.	3504426	1472007696698	1472007696829	 	32
6850	73687	The Portal User IDs and Passwords are created by you.	The Portal Users IDs and Passwords are created by you.	3504429	1472007697379	1472007697460	c	67
6850	73687	The Portal User IDs and Passwords are created by you.	The Portal Users IDs and Passwords are created by you.	3504431	1472007697522	1472007697587	r	82
6850	73687	The Portal User IDs and Passwords are created by you.	The Portal Users IDs and Passwords are created by you.	3504450	1472007697688	1472007697755	e	69
6850	73687	The Portal User IDs and Passwords are created by you.	The Portal Users IDs and Passwords are created by you.	3504454	1472007697836	1472007697909	a	65
6850	73687	The Portal User IDs and Passwords are created by you.	The Portal Users IDs and Passwords are created by you.	3504457	1472007697925	1472007697999	t	84
6850	73687	The Portal User IDs and Passwords are created by you.	The Portal Users IDs and Passwords are created by you.	3504460	1472007698031	1472007698090	e	69
6850	73687	The Portal User IDs and Passwords are created by you.	The Portal Users IDs and Passwords are created by you.	3504463	1472007698202	1472007698278	d	68
6850	73687	The Portal User IDs and Passwords are created by you.	The Portal Users IDs and Passwords are created by you.	3504483	1472007698280	1472007698417	 	32
6850	73687	The Portal User IDs and Passwords are created by you.	The Portal Users IDs and Passwords are created by you.	3504487	1472007698405	1472007698641	b	66
6850	73687	The Portal User IDs and Passwords are created by you.	The Portal Users IDs and Passwords are created by you.	3504489	1472007698499	1472007698661	y	89
6850	73687	The Portal User IDs and Passwords are created by you.	The Portal Users IDs and Passwords are created by you.	3504493	1472007698629	1472007698788	 	32
6850	73687	The Portal User IDs and Passwords are created by you.	The Portal Users IDs and Passwords are created by you.	3504495	1472007698944	1472007699046	y	89
6850	73687	The Portal User IDs and Passwords are created by you.	The Portal Users IDs and Passwords are created by you.	3504548	1472007699066	1472007699203	o	79
6850	73687	The Portal User IDs and Passwords are created by you.	The Portal Users IDs and Passwords are created by you.	3504550	1472007699138	1472007699206	u	85
6850	73687	The Portal User IDs and Passwords are created by you.	The Portal Users IDs and Passwords are created by you.	3504552	1472007699331	1472007699396	.	190
6850	73705	Mixed signals from Washington had convinced China.	Mixed signals from Washington had convinced China.	3504738	1472007703279	1472007703429	SHIFT	16
6850	73705	Mixed signals from Washington had convinced China.	Mixed signals from Washington had convinced China.	3504741	1472007703373	1472007703508	M	77
6850	73705	Mixed signals from Washington had convinced China.	Mixed signals from Washington had convinced China.	3504742	1472007703450	1472007703573	i	73
6850	73705	Mixed signals from Washington had convinced China.	Mixed signals from Washington had convinced China.	3504743	1472007703573	1472007703656	x	88
6850	73705	Mixed signals from Washington had convinced China.	Mixed signals from Washington had convinced China.	3504744	1472007703781	1472007703843	e	69
6850	73705	Mixed signals from Washington had convinced China.	Mixed signals from Washington had convinced China.	3504745	1472007703953	1472007704020	d	68
6850	73705	Mixed signals from Washington had convinced China.	Mixed signals from Washington had convinced China.	3504764	1472007704031	1472007704170	 	32
6850	73705	Mixed signals from Washington had convinced China.	Mixed signals from Washington had convinced China.	3504767	1472007704161	1472007704217	s	83
6850	73705	Mixed signals from Washington had convinced China.	Mixed signals from Washington had convinced China.	3504770	1472007704256	1472007704341	i	73
6850	73705	Mixed signals from Washington had convinced China.	Mixed signals from Washington had convinced China.	3504773	1472007704497	1472007704574	g	71
6850	73705	Mixed signals from Washington had convinced China.	Mixed signals from Washington had convinced China.	3504777	1472007704700	1472007704788	n	78
6850	73705	Mixed signals from Washington had convinced China.	Mixed signals from Washington had convinced China.	3504804	1472007704816	1472007704898	a	65
6850	73705	Mixed signals from Washington had convinced China.	Mixed signals from Washington had convinced China.	3504807	1472007705117	1472007705230	l	76
6850	73705	Mixed signals from Washington had convinced China.	Mixed signals from Washington had convinced China.	3504809	1472007705261	1472007705338	s	83
6850	73705	Mixed signals from Washington had convinced China.	Mixed signals from Washington had convinced China.	3504813	1472007705370	1472007705463	 	32
6850	73705	Mixed signals from Washington had convinced China.	Mixed signals from Washington had convinced China.	3504815	1472007705525	1472007705635	f	70
6850	73705	Mixed signals from Washington had convinced China.	Mixed signals from Washington had convinced China.	3504830	1472007705604	1472007705713	r	82
6850	73705	Mixed signals from Washington had convinced China.	Mixed signals from Washington had convinced China.	3504833	1472007705713	1472007705829	o	79
6850	73705	Mixed signals from Washington had convinced China.	Mixed signals from Washington had convinced China.	3504838	1472007705764	1472007705892	m	77
6850	73705	Mixed signals from Washington had convinced China.	Mixed signals from Washington had convinced China.	3504843	1472007705829	1472007705939	 	32
6850	73705	Mixed signals from Washington had convinced China.	Mixed signals from Washington had convinced China.	3504850	1472007705893	1472007706069	SHIFT	16
6850	73705	Mixed signals from Washington had convinced China.	Mixed signals from Washington had convinced China.	3504855	1472007706017	1472007706128	W	87
6850	73705	Mixed signals from Washington had convinced China.	Mixed signals from Washington had convinced China.	3504858	1472007706221	1472007706344	a	65
6850	73705	Mixed signals from Washington had convinced China.	Mixed signals from Washington had convinced China.	3504945	1472007706286	1472007706409	s	83
6850	73705	Mixed signals from Washington had convinced China.	Mixed signals from Washington had convinced China.	3504947	1472007706425	1472007706512	h	72
6850	73705	Mixed signals from Washington had convinced China.	Mixed signals from Washington had convinced China.	3504948	1472007706668	1472007706793	i	73
6850	73705	Mixed signals from Washington had convinced China.	Mixed signals from Washington had convinced China.	3504949	1472007706872	1472007707014	n	78
6850	73705	Mixed signals from Washington had convinced China.	Mixed signals from Washington had convinced China.	3504951	1472007707014	1472007707110	g	71
6850	73705	Mixed signals from Washington had convinced China.	Mixed signals from Washington had convinced China.	3504953	1472007708559	1472007708643	t	84
6850	73705	Mixed signals from Washington had convinced China.	Mixed signals from Washington had convinced China.	3504984	1472007708832	1472007708948	o	79
6850	73705	Mixed signals from Washington had convinced China.	Mixed signals from Washington had convinced China.	3504988	1472007709011	1472007709122	n	78
6850	73705	Mixed signals from Washington had convinced China.	Mixed signals from Washington had convinced China.	3504994	1472007709093	1472007709270	 	32
6850	73705	Mixed signals from Washington had convinced China.	Mixed signals from Washington had convinced China.	3504998	1472007709261	1472007709380	h	72
6850	73705	Mixed signals from Washington had convinced China.	Mixed signals from Washington had convinced China.	3505041	1472007709363	1472007709526	a	65
6850	73705	Mixed signals from Washington had convinced China.	Mixed signals from Washington had convinced China.	3505044	1472007709640	1472007709722	d	68
6850	73705	Mixed signals from Washington had convinced China.	Mixed signals from Washington had convinced China.	3505049	1472007709785	1472007709897	 	32
6850	73705	Mixed signals from Washington had convinced China.	Mixed signals from Washington had convinced China.	3505053	1472007709928	1472007710054	c	67
6850	73705	Mixed signals from Washington had convinced China.	Mixed signals from Washington had convinced China.	3505055	1472007710009	1472007710136	o	79
6850	73705	Mixed signals from Washington had convinced China.	Mixed signals from Washington had convinced China.	3505083	1472007710106	1472007710214	n	78
6850	73705	Mixed signals from Washington had convinced China.	Mixed signals from Washington had convinced China.	3505086	1472007710245	1472007710305	c	67
6850	73705	Mixed signals from Washington had convinced China.	Mixed signals from Washington had convinced China.	3505092	1472007710566	1472007710640	BKSP	8
6850	73705	Mixed signals from Washington had convinced China.	Mixed signals from Washington had convinced China.	3505101	1472007710687	1472007710756	v	86
6850	73705	Mixed signals from Washington had convinced China.	Mixed signals from Washington had convinced China.	3505105	1472007710834	1472007710921	i	73
6850	73705	Mixed signals from Washington had convinced China.	Mixed signals from Washington had convinced China.	3505115	1472007710968	1472007711073	n	78
6850	73705	Mixed signals from Washington had convinced China.	Mixed signals from Washington had convinced China.	3505142	1472007711055	1472007711112	c	67
6850	73705	Mixed signals from Washington had convinced China.	Mixed signals from Washington had convinced China.	3505146	1472007711224	1472007711288	e	69
6850	73705	Mixed signals from Washington had convinced China.	Mixed signals from Washington had convinced China.	3505148	1472007711397	1472007711479	d	68
6850	73705	Mixed signals from Washington had convinced China.	Mixed signals from Washington had convinced China.	3505150	1472007711510	1472007711610	 	32
6850	73705	Mixed signals from Washington had convinced China.	Mixed signals from Washington had convinced China.	3505154	1472007711610	1472007711778	SHIFT	16
6850	73705	Mixed signals from Washington had convinced China.	Mixed signals from Washington had convinced China.	3505157	1472007711704	1472007711822	C	67
6850	73705	Mixed signals from Washington had convinced China.	Mixed signals from Washington had convinced China.	3505172	1472007711810	1472007711890	h	72
6850	73705	Mixed signals from Washington had convinced China.	Mixed signals from Washington had convinced China.	3505174	1472007711879	1472007712038	i	73
6850	73705	Mixed signals from Washington had convinced China.	Mixed signals from Washington had convinced China.	3505176	1472007712000	1472007712079	n	78
6850	73705	Mixed signals from Washington had convinced China.	Mixed signals from Washington had convinced China.	3505177	1472007712125	1472007712193	a	65
6850	73705	Mixed signals from Washington had convinced China.	Mixed signals from Washington had convinced China.	3505180	1472007712240	1472007712312	.	190
6850	73718	I will review them on Monday.	I will review them on MOnday.	3505404	1472007716554	1472007716686	SHIFT	16
6850	73718	I will review them on Monday.	I will review them on MOnday.	3505407	1472007716664	1472007716795	I	73
6850	73718	I will review them on Monday.	I will review them on MOnday.	3505410	1472007716746	1472007716856	 	32
6850	73718	I will review them on Monday.	I will review them on MOnday.	3505413	1472007716815	1472007716934	w	87
6850	73718	I will review them on Monday.	I will review them on MOnday.	3505416	1472007716934	1472007716992	i	73
6850	73718	I will review them on Monday.	I will review them on MOnday.	3505419	1472007717100	1472007717160	l	76
6850	73718	I will review them on Monday.	I will review them on MOnday.	3505439	1472007717244	1472007717415	l	76
6850	73718	I will review them on Monday.	I will review them on MOnday.	3505442	1472007717383	1472007717494	 	32
6850	73718	I will review them on Monday.	I will review them on MOnday.	3505444	1472007717461	1472007717554	r	82
6850	73718	I will review them on Monday.	I will review them on MOnday.	3505447	1472007717520	1472007717603	e	69
6850	73718	I will review them on Monday.	I will review them on MOnday.	3505450	1472007717697	1472007717769	v	86
6850	73718	I will review them on Monday.	I will review them on MOnday.	3505471	1472007717792	1472007717879	i	73
6850	73718	I will review them on Monday.	I will review them on MOnday.	3505475	1472007717894	1472007717955	e	69
6850	73718	I will review them on Monday.	I will review them on MOnday.	3505479	1472007718080	1472007718145	w	87
6850	73718	I will review them on Monday.	I will review them on MOnday.	3505483	1472007718200	1472007718294	 	32
6850	73718	I will review them on Monday.	I will review them on MOnday.	3505487	1472007718310	1472007718369	t	84
6850	73718	I will review them on Monday.	I will review them on MOnday.	3505494	1472007718391	1472007718469	h	72
6850	73718	I will review them on Monday.	I will review them on MOnday.	3505497	1472007718501	1472007718578	e	69
6850	73718	I will review them on Monday.	I will review them on MOnday.	3505501	1472007718594	1472007718755	m	77
6850	73718	I will review them on Monday.	I will review them on MOnday.	3505506	1472007718726	1472007718903	 	32
6850	73718	I will review them on Monday.	I will review them on MOnday.	3505546	1472007718850	1472007719041	o	79
6850	73718	I will review them on Monday.	I will review them on MOnday.	3505550	1472007718989	1472007719130	n	78
6850	73718	I will review them on Monday.	I will review them on MOnday.	3505555	1472007719145	1472007719274	 	32
6850	73718	I will review them on Monday.	I will review them on MOnday.	3505559	1472007719258	1472007719416	SHIFT	16
6850	73718	I will review them on Monday.	I will review them on MOnday.	3505562	1472007719336	1472007719435	M	77
6850	73718	I will review them on Monday.	I will review them on MOnday.	3505567	1472007719387	1472007719533	O	79
6850	73718	I will review them on Monday.	I will review them on MOnday.	3505586	1472007719514	1472007719642	n	78
6850	73718	I will review them on Monday.	I will review them on MOnday.	3505589	1472007719617	1472007719731	d	68
6850	73718	I will review them on Monday.	I will review them on MOnday.	3505593	1472007719708	1472007719799	a	65
6850	73718	I will review them on Monday.	I will review them on MOnday.	3505597	1472007719784	1472007719826	y	89
6850	73718	I will review them on Monday.	I will review them on MOnday.	3505600	1472007719982	1472007720046	.	190
6850	73730	Ed Terry is in there twice.	Ed Terry is in there twice.	3505941	1472007724902	1472007725079	SHIFT	16
6850	73730	Ed Terry is in there twice.	Ed Terry is in there twice.	3505946	1472007725022	1472007725126	E	69
6850	73730	Ed Terry is in there twice.	Ed Terry is in there twice.	3505954	1472007725251	1472007725334	d	68
6850	73730	Ed Terry is in there twice.	Ed Terry is in there twice.	3505960	1472007725350	1472007725425	 	32
6850	73730	Ed Terry is in there twice.	Ed Terry is in there twice.	3505967	1472007725488	1472007725649	SHIFT	16
6850	73730	Ed Terry is in there twice.	Ed Terry is in there twice.	3505974	1472007725628	1472007725699	T	84
6850	73730	Ed Terry is in there twice.	Ed Terry is in there twice.	3505983	1472007725777	1472007725873	e	69
6850	73730	Ed Terry is in there twice.	Ed Terry is in there twice.	3506003	1472007725897	1472007725974	r	82
6850	73730	Ed Terry is in there twice.	Ed Terry is in there twice.	3506006	1472007726052	1472007726148	r	82
6850	73730	Ed Terry is in there twice.	Ed Terry is in there twice.	3506009	1472007726179	1472007726265	y	89
6850	73730	Ed Terry is in there twice.	Ed Terry is in there twice.	3506013	1472007726280	1472007726429	 	32
6850	73730	Ed Terry is in there twice.	Ed Terry is in there twice.	3506028	1472007726364	1472007726497	i	73
6850	73730	Ed Terry is in there twice.	Ed Terry is in there twice.	3506033	1472007726457	1472007726557	s	83
6850	73730	Ed Terry is in there twice.	Ed Terry is in there twice.	3506036	1472007726573	1472007726675	 	32
6850	73730	Ed Terry is in there twice.	Ed Terry is in there twice.	3506041	1472007726632	1472007726791	i	73
6850	73730	Ed Terry is in there twice.	Ed Terry is in there twice.	3506045	1472007726716	1472007726881	n	78
6850	73730	Ed Terry is in there twice.	Ed Terry is in there twice.	3506069	1472007726822	1472007726963	 	32
6850	73730	Ed Terry is in there twice.	Ed Terry is in there twice.	3506072	1472007726956	1472007727030	t	84
6850	73730	Ed Terry is in there twice.	Ed Terry is in there twice.	3506075	1472007727057	1472007727156	h	72
6850	73730	Ed Terry is in there twice.	Ed Terry is in there twice.	3506079	1472007727156	1472007727266	e	69
6850	73730	Ed Terry is in there twice.	Ed Terry is in there twice.	3506084	1472007727237	1472007727331	r	82
6850	73730	Ed Terry is in there twice.	Ed Terry is in there twice.	3506089	1472007727393	1472007727480	e	69
6850	73730	Ed Terry is in there twice.	Ed Terry is in there twice.	3506124	1472007727520	1472007727620	 	32
6850	73730	Ed Terry is in there twice.	Ed Terry is in there twice.	3506129	1472007727745	1472007727814	t	84
6850	73730	Ed Terry is in there twice.	Ed Terry is in there twice.	3506134	1472007727908	1472007728004	w	87
6850	73730	Ed Terry is in there twice.	Ed Terry is in there twice.	3506141	1472007728020	1472007728089	i	73
6850	73730	Ed Terry is in there twice.	Ed Terry is in there twice.	3506144	1472007728120	1472007728271	c	67
6850	73730	Ed Terry is in there twice.	Ed Terry is in there twice.	3506166	1472007728251	1472007728339	e	69
6850	73730	Ed Terry is in there twice.	Ed Terry is in there twice.	3506168	1472007728355	1472007728438	.	190
6850	73738	I thought you needed him to carry two people.	I thought you needed him to carry two people/.	3506331	1472007731604	1472007731748	SHIFT	16
6850	73738	I thought you needed him to carry two people.	I thought you needed him to carry two people/.	3506332	1472007731675	1472007731797	I	73
6850	73738	I thought you needed him to carry two people.	I thought you needed him to carry two people/.	3506334	1472007731773	1472007731880	 	32
6850	73738	I thought you needed him to carry two people.	I thought you needed him to carry two people/.	3506338	1472007731896	1472007731984	t	82
6850	73738	I thought you needed him to carry two people.	I thought you needed him to carry two people/.	3506342	1472007732031	1472007732139	h	72
6850	73738	I thought you needed him to carry two people.	I thought you needed him to carry two people/.	3506481	1472007732139	1472007732286	i	79
6850	73738	I thought you needed him to carry two people.	I thought you needed him to carry two people/.	3506486	1472007732582	1472007732654	BKSP	8
6850	73738	I thought you needed him to carry two people.	I thought you needed him to carry two people/.	3506492	1472007732735	1472007732802	BKSP	8
6850	73738	I thought you needed him to carry two people.	I thought you needed him to carry two people/.	3506501	1472007732870	1472007732940	BKSP	8
6850	73738	I thought you needed him to carry two people.	I thought you needed him to carry two people/.	3506507	1472007733019	1472007733082	BKSP	8
6850	73738	I thought you needed him to carry two people.	I thought you needed him to carry two people/.	3506515	1472007733175	1472007733263	BKSP	8
6850	73738	I thought you needed him to carry two people.	I thought you needed him to carry two people/.	3506521	1472007733648	1472007733679	t	84
6850	73738	I thought you needed him to carry two people.	I thought you needed him to carry two people/.	3506527	1472007734003	1472007734101	h	72
6850	73738	I thought you needed him to carry two people.	I thought you needed him to carry two people/.	3506533	1472007734117	1472007734305	o	79
6850	73738	I thought you needed him to carry two people.	I thought you needed him to carry two people/.	3506547	1472007734226	1472007734360	u	85
6850	73738	I thought you needed him to carry two people.	I thought you needed him to carry two people/.	3506551	1472007734352	1472007734429	g	71
6850	73738	I thought you needed him to carry two people.	I thought you needed him to carry two people/.	3506554	1472007734461	1472007734562	h	72
6850	73738	I thought you needed him to carry two people.	I thought you needed him to carry two people/.	3506558	1472007734578	1472007734660	t	84
6850	73738	I thought you needed him to carry two people.	I thought you needed him to carry two people/.	3506564	1472007734691	1472007734785	 	32
6850	73738	I thought you needed him to carry two people.	I thought you needed him to carry two people/.	3506567	1472007734816	1472007734890	y	89
6850	73738	I thought you needed him to carry two people.	I thought you needed him to carry two people/.	3506577	1472007734900	1472007735048	o	79
6850	73738	I thought you needed him to carry two people.	I thought you needed him to carry two people/.	3506579	1472007734969	1472007735087	u	85
6850	73738	I thought you needed him to carry two people.	I thought you needed him to carry two people/.	3506582	1472007735054	1472007735135	 	32
6850	73738	I thought you needed him to carry two people.	I thought you needed him to carry two people/.	3506587	1472007735214	1472007735324	n	78
6850	73738	I thought you needed him to carry two people.	I thought you needed him to carry two people/.	3506655	1472007735284	1472007735343	e	69
6850	73738	I thought you needed him to carry two people.	I thought you needed him to carry two people/.	3506657	1472007735432	1472007735492	e	69
6850	73738	I thought you needed him to carry two people.	I thought you needed him to carry two people/.	3506661	1472007735596	1472007735693	d	68
6850	73738	I thought you needed him to carry two people.	I thought you needed him to carry two people/.	3506665	1472007735943	1472007736023	e	69
6850	73738	I thought you needed him to carry two people.	I thought you needed him to carry two people/.	3506669	1472007736121	1472007736218	d	68
6850	73738	I thought you needed him to carry two people.	I thought you needed him to carry two people/.	3506671	1472007736218	1472007736387	 	32
6850	73738	I thought you needed him to carry two people.	I thought you needed him to carry two people/.	3506686	1472007736364	1472007736466	h	72
6850	73738	I thought you needed him to carry two people.	I thought you needed him to carry two people/.	3506687	1472007736417	1472007736605	i	73
6850	73738	I thought you needed him to carry two people.	I thought you needed him to carry two people/.	3506688	1472007736585	1472007736776	m	77
6850	73738	I thought you needed him to carry two people.	I thought you needed him to carry two people/.	3506690	1472007736719	1472007736827	 	32
6850	73738	I thought you needed him to carry two people.	I thought you needed him to carry two people/.	3506692	1472007736791	1472007736874	t	84
6850	73738	I thought you needed him to carry two people.	I thought you needed him to carry two people/.	3506694	1472007736920	1472007737037	o	79
6850	73738	I thought you needed him to carry two people.	I thought you needed him to carry two people/.	3506738	1472007737008	1472007737136	 	32
6850	73738	I thought you needed him to carry two people.	I thought you needed him to carry two people/.	3506744	1472007737107	1472007737222	c	67
6850	73738	I thought you needed him to carry two people.	I thought you needed him to carry two people/.	3506749	1472007737302	1472007737397	a	65
6850	73738	I thought you needed him to carry two people.	I thought you needed him to carry two people/.	3506757	1472007737509	1472007737597	r	82
6850	73738	I thought you needed him to carry two people.	I thought you needed him to carry two people/.	3506762	1472007737675	1472007737750	r	82
6850	73738	I thought you needed him to carry two people.	I thought you needed him to carry two people/.	3506765	1472007737766	1472007737880	y	89
6850	73738	I thought you needed him to carry two people.	I thought you needed him to carry two people/.	3506787	1472007737896	1472007737993	 	32
6850	73738	I thought you needed him to carry two people.	I thought you needed him to carry two people/.	3506790	1472007737964	1472007738057	t	84
6850	73738	I thought you needed him to carry two people.	I thought you needed him to carry two people/.	3506793	1472007738150	1472007738271	w	87
6850	73738	I thought you needed him to carry two people.	I thought you needed him to carry two people/.	3506795	1472007738287	1472007738436	o	79
6850	73738	I thought you needed him to carry two people.	I thought you needed him to carry two people/.	3506831	1472007738421	1472007738545	 	32
6850	73738	I thought you needed him to carry two people.	I thought you needed him to carry two people/.	3506835	1472007738686	1472007738771	p	80
6850	73738	I thought you needed him to carry two people.	I thought you needed him to carry two people/.	3506838	1472007738742	1472007738821	e	69
6850	73738	I thought you needed him to carry two people.	I thought you needed him to carry two people/.	3506841	1472007738854	1472007738948	o	79
6850	73738	I thought you needed him to carry two people.	I thought you needed him to carry two people/.	3506842	1472007738929	1472007739097	p	80
6850	73738	I thought you needed him to carry two people.	I thought you needed him to carry two people/.	3506857	1472007739035	1472007739146	l	76
6850	73738	I thought you needed him to carry two people.	I thought you needed him to carry two people/.	3506862	1472007739135	1472007739197	e	69
6850	73738	I thought you needed him to carry two people.	I thought you needed him to carry two people/.	3506867	1472007739275	1472007739354	.	191
6850	73756	The film will be shown for the first time.	The film will be shown for the first time.	3507179	1472007743567	1472007743714	SHIFT	16
6850	73756	The film will be shown for the first time.	The film will be shown for the first time.	3507185	1472007743685	1472007743764	T	84
6850	73756	The film will be shown for the first time.	The film will be shown for the first time.	3507193	1472007743843	1472007743951	h	72
6850	73756	The film will be shown for the first time.	The film will be shown for the first time.	3507203	1472007743930	1472007744045	e	69
6850	73756	The film will be shown for the first time.	The film will be shown for the first time.	3507211	1472007744076	1472007744207	 	32
6850	73756	The film will be shown for the first time.	The film will be shown for the first time.	3507257	1472007744170	1472007744234	f	70
6850	73756	The film will be shown for the first time.	The film will be shown for the first time.	3507258	1472007744265	1472007744345	i	73
6850	73756	The film will be shown for the first time.	The film will be shown for the first time.	3507260	1472007744438	1472007744601	l	76
6850	73756	The film will be shown for the first time.	The film will be shown for the first time.	3507262	1472007744576	1472007744739	m	77
6850	73756	The film will be shown for the first time.	The film will be shown for the first time.	3507264	1472007744716	1472007744857	 	32
6850	73756	The film will be shown for the first time.	The film will be shown for the first time.	3507266	1472007744951	1472007745013	w	87
6850	73756	The film will be shown for the first time.	The film will be shown for the first time.	3507307	1472007745052	1472007745094	i	73
6850	73756	The film will be shown for the first time.	The film will be shown for the first time.	3507311	1472007745192	1472007745262	l	76
6850	73756	The film will be shown for the first time.	The film will be shown for the first time.	3507315	1472007745340	1472007745465	l	76
6850	73756	The film will be shown for the first time.	The film will be shown for the first time.	3507317	1472007745481	1472007745615	 	32
6850	73756	The film will be shown for the first time.	The film will be shown for the first time.	3507319	1472007745615	1472007745724	b	66
6850	73756	The film will be shown for the first time.	The film will be shown for the first time.	3507328	1472007745709	1472007745778	e	69
6850	73756	The film will be shown for the first time.	The film will be shown for the first time.	3507333	1472007745841	1472007745902	 	32
6850	73756	The film will be shown for the first time.	The film will be shown for the first time.	3507337	1472007745902	1472007745993	s	83
6850	73756	The film will be shown for the first time.	The film will be shown for the first time.	3507344	1472007745977	1472007746099	h	72
6850	73756	The film will be shown for the first time.	The film will be shown for the first time.	3507350	1472007746077	1472007746211	o	79
6850	73756	The film will be shown for the first time.	The film will be shown for the first time.	3507378	1472007746168	1472007746244	w	87
6850	73756	The film will be shown for the first time.	The film will be shown for the first time.	3507380	1472007746259	1472007746444	n	78
6850	73756	The film will be shown for the first time.	The film will be shown for the first time.	3507384	1472007746406	1472007746540	 	32
6850	73756	The film will be shown for the first time.	The film will be shown for the first time.	3507387	1472007746602	1472007746660	f	70
6850	73756	The film will be shown for the first time.	The film will be shown for the first time.	3507389	1472007746676	1472007746798	o	79
6850	73756	The film will be shown for the first time.	The film will be shown for the first time.	3507392	1472007746814	1472007746907	r	82
6850	73756	The film will be shown for the first time.	The film will be shown for the first time.	3507414	1472007747146	1472007747209	 	32
6850	73756	The film will be shown for the first time.	The film will be shown for the first time.	3507416	1472007747241	1472007747316	t	84
6850	73756	The film will be shown for the first time.	The film will be shown for the first time.	3507420	1472007747316	1472007747415	h	72
6850	73756	The film will be shown for the first time.	The film will be shown for the first time.	3507423	1472007747447	1472007747534	e	69
6850	73756	The film will be shown for the first time.	The film will be shown for the first time.	3507428	1472007747565	1472007747634	 	32
6850	73756	The film will be shown for the first time.	The film will be shown for the first time.	3507456	1472007747719	1472007747799	f	70
6850	73756	The film will be shown for the first time.	The film will be shown for the first time.	3507459	1472007747831	1472007747971	i	73
6850	73756	The film will be shown for the first time.	The film will be shown for the first time.	3507462	1472007747940	1472007748000	r	82
6850	73756	The film will be shown for the first time.	The film will be shown for the first time.	3507469	1472007748134	1472007748217	s	83
6850	73756	The film will be shown for the first time.	The film will be shown for the first time.	3507511	1472007748183	1472007748295	t	84
6850	73756	The film will be shown for the first time.	The film will be shown for the first time.	3507514	1472007748311	1472007748422	 	32
6850	73756	The film will be shown for the first time.	The film will be shown for the first time.	3507517	1472007748469	1472007748522	t	84
6850	73756	The film will be shown for the first time.	The film will be shown for the first time.	3507523	1472007748531	1472007748650	i	73
6850	73756	The film will be shown for the first time.	The film will be shown for the first time.	3507527	1472007748623	1472007748707	m	77
6850	73756	The film will be shown for the first time.	The film will be shown for the first time.	3507535	1472007748723	1472007748823	e	69
6850	73756	The film will be shown for the first time.	The film will be shown for the first time.	3507537	1472007748855	1472007748926	.	190
6850	73770	Please stay on top of the security issue.	Please stay on top of the security issue.	3507904	1472007752970	1472007753683	SHIFT	16
6850	73770	Please stay on top of the security issue.	Please stay on top of the security issue.	3507910	1472007754599	1472007754773	SHIFT	16
6850	73770	Please stay on top of the security issue.	Please stay on top of the security issue.	3507917	1472007754697	1472007754804	P	80
6850	73770	Please stay on top of the security issue.	Please stay on top of the security issue.	3507922	1472007754835	1472007754984	l	76
6850	73770	Please stay on top of the security issue.	Please stay on top of the security issue.	3507927	1472007754929	1472007755030	e	69
6850	73770	Please stay on top of the security issue.	Please stay on top of the security issue.	3507931	1472007755124	1472007755259	a	65
6850	73770	Please stay on top of the security issue.	Please stay on top of the security issue.	3507946	1472007755205	1472007755298	s	83
6850	73770	Please stay on top of the security issue.	Please stay on top of the security issue.	3507948	1472007755409	1472007755466	e	69
6850	73770	Please stay on top of the security issue.	Please stay on top of the security issue.	3507950	1472007755486	1472007755616	 	32
6850	73770	Please stay on top of the security issue.	Please stay on top of the security issue.	3507955	1472007755616	1472007755688	s	83
6850	73770	Please stay on top of the security issue.	Please stay on top of the security issue.	3507958	1472007755799	1472007755887	t	84
6850	73770	Please stay on top of the security issue.	Please stay on top of the security issue.	3507962	1472007755887	1472007755993	a	65
6850	73770	Please stay on top of the security issue.	Please stay on top of the security issue.	3507972	1472007756009	1472007756103	y	89
6850	73770	Please stay on top of the security issue.	Please stay on top of the security issue.	3507975	1472007756134	1472007756266	 	32
6850	73770	Please stay on top of the security issue.	Please stay on top of the security issue.	3507982	1472007756266	1472007756446	o	79
6850	73770	Please stay on top of the security issue.	Please stay on top of the security issue.	3507986	1472007756399	1472007756569	n	78
6850	73770	Please stay on top of the security issue.	Please stay on top of the security issue.	3508037	1472007756508	1472007756644	 	32
6850	73770	Please stay on top of the security issue.	Please stay on top of the security issue.	3508042	1472007756675	1472007756746	t	84
6850	73770	Please stay on top of the security issue.	Please stay on top of the security issue.	3508049	1472007756902	1472007757002	o	79
6850	73770	Please stay on top of the security issue.	Please stay on top of the security issue.	3508053	1472007757252	1472007757429	p	80
6850	73770	Please stay on top of the security issue.	Please stay on top of the security issue.	3508057	1472007757492	1472007757603	 	32
6850	73770	Please stay on top of the security issue.	Please stay on top of the security issue.	3508084	1472007757569	1472007757733	o	79
6850	73770	Please stay on top of the security issue.	Please stay on top of the security issue.	3508087	1472007757722	1472007757810	f	70
6850	73770	Please stay on top of the security issue.	Please stay on top of the security issue.	3508091	1472007757856	1472007757951	 	32
6850	73770	Please stay on top of the security issue.	Please stay on top of the security issue.	3508095	1472007757945	1472007758025	t	84
6850	73770	Please stay on top of the security issue.	Please stay on top of the security issue.	3508101	1472007758056	1472007758160	h	72
6850	73770	Please stay on top of the security issue.	Please stay on top of the security issue.	3508110	1472007758175	1472007758243	e	69
6850	73770	Please stay on top of the security issue.	Please stay on top of the security issue.	3508134	1472007758256	1472007758375	 	32
6850	73770	Please stay on top of the security issue.	Please stay on top of the security issue.	3508136	1472007758406	1472007758470	s	83
6850	73770	Please stay on top of the security issue.	Please stay on top of the security issue.	3508138	1472007758586	1472007758643	e	69
6850	73770	Please stay on top of the security issue.	Please stay on top of the security issue.	3508139	1472007758768	1472007758848	c	67
6850	73770	Please stay on top of the security issue.	Please stay on top of the security issue.	3508141	1472007758864	1472007758950	u	85
6850	73770	Please stay on top of the security issue.	Please stay on top of the security issue.	3508175	1472007759011	1472007759067	r	82
6850	73770	Please stay on top of the security issue.	Please stay on top of the security issue.	3508178	1472007759098	1472007759199	i	73
6850	73770	Please stay on top of the security issue.	Please stay on top of the security issue.	3508181	1472007759246	1472007759309	t	84
6850	73770	Please stay on top of the security issue.	Please stay on top of the security issue.	3508184	1472007759465	1472007759564	y	89
6850	73770	Please stay on top of the security issue.	Please stay on top of the security issue.	3508188	1472007759642	1472007759716	 	32
6850	73770	Please stay on top of the security issue.	Please stay on top of the security issue.	3508234	1472007759842	1472007759948	i	73
6850	73770	Please stay on top of the security issue.	Please stay on top of the security issue.	3508240	1472007759963	1472007760036	s	83
6850	73770	Please stay on top of the security issue.	Please stay on top of the security issue.	3508242	1472007760135	1472007760214	s	83
6850	73770	Please stay on top of the security issue.	Please stay on top of the security issue.	3508245	1472007760309	1472007760361	u	85
6850	73770	Please stay on top of the security issue.	Please stay on top of the security issue.	3508247	1472007760421	1472007760496	e	69
6850	73770	Please stay on top of the security issue.	Please stay on top of the security issue.	3508249	1472007760526	1472007760612	.	190
6850	73789	Good to know it exists.	Good to know it exists.	3508526	1472007764615	1472007764754	SHIFT	16
6850	73789	Good to know it exists.	Good to know it exists.	3508529	1472007764675	1472007764759	G	71
6850	73789	Good to know it exists.	Good to know it exists.	3508532	1472007764790	1472007764850	o	79
6850	73789	Good to know it exists.	Good to know it exists.	3508536	1472007764928	1472007765024	o	79
6850	73789	Good to know it exists.	Good to know it exists.	3508541	1472007765055	1472007765133	d	68
6850	73789	Good to know it exists.	Good to know it exists.	3508544	1472007765165	1472007765305	 	32
6850	73789	Good to know it exists.	Good to know it exists.	3508560	1472007765295	1472007765355	t	84
6850	73789	Good to know it exists.	Good to know it exists.	3508562	1472007765344	1472007765457	o	79
6850	73789	Good to know it exists.	Good to know it exists.	3508566	1472007765414	1472007765581	 	32
6850	73789	Good to know it exists.	Good to know it exists.	3508568	1472007765551	1472007765700	k	75
6850	73789	Good to know it exists.	Good to know it exists.	3508570	1472007765654	1472007765808	n	78
6850	73789	Good to know it exists.	Good to know it exists.	3508583	1472007765779	1472007765935	o	79
6850	73789	Good to know it exists.	Good to know it exists.	3508585	1472007765872	1472007765955	w	87
6850	73789	Good to know it exists.	Good to know it exists.	3508590	1472007765956	1472007766113	 	32
6850	73789	Good to know it exists.	Good to know it exists.	3508595	1472007766063	1472007766212	i	73
6850	73789	Good to know it exists.	Good to know it exists.	3508600	1472007766178	1472007766232	t	84
6850	73789	Good to know it exists.	Good to know it exists.	3508605	1472007766263	1472007766384	 	32
6850	73789	Good to know it exists.	Good to know it exists.	3508626	1472007766432	1472007766498	e	69
6850	73789	Good to know it exists.	Good to know it exists.	3508629	1472007766654	1472007766731	x	88
6850	73789	Good to know it exists.	Good to know it exists.	3508635	1472007766747	1472007766846	i	73
6850	73789	Good to know it exists.	Good to know it exists.	3508640	1472007766893	1472007766950	s	83
6850	73789	Good to know it exists.	Good to know it exists.	3508644	1472007766951	1472007767010	t	84
6850	73789	Good to know it exists.	Good to know it exists.	3508662	1472007767077	1472007767130	s	83
6850	73789	Good to know it exists.	Good to know it exists.	3508664	1472007767177	1472007767230	.	190
6850	73799	I hope we'll get the game here in Denver.	I hope we will get the fame here in Denver.	3509019	1472007773825	1472007773976	SHIFT	16
6850	73799	I hope we'll get the game here in Denver.	I hope we will get the fame here in Denver.	3509024	1472007773887	1472007774000	I	73
6850	73799	I hope we'll get the game here in Denver.	I hope we will get the fame here in Denver.	3509028	1472007773992	1472007774169	 	32
6850	73799	I hope we'll get the game here in Denver.	I hope we will get the fame here in Denver.	3509033	1472007774108	1472007774216	h	72
6850	73799	I hope we'll get the game here in Denver.	I hope we will get the fame here in Denver.	3509038	1472007774294	1472007774533	o	79
6850	73799	I hope we'll get the game here in Denver.	I hope we will get the fame here in Denver.	3509063	1472007774407	1472007774569	p	80
6850	73799	I hope we'll get the game here in Denver.	I hope we will get the fame here in Denver.	3509067	1472007774517	1472007774569	e	69
6850	73799	I hope we'll get the game here in Denver.	I hope we will get the fame here in Denver.	3509070	1472007774600	1472007774760	 	32
6850	73799	I hope we'll get the game here in Denver.	I hope we will get the fame here in Denver.	3509073	1472007774732	1472007774810	w	87
6850	73799	I hope we'll get the game here in Denver.	I hope we will get the fame here in Denver.	3509076	1472007774935	1472007774986	e	69
6850	73799	I hope we'll get the game here in Denver.	I hope we will get the fame here in Denver.	3509078	1472007775025	1472007775134	 	32
6850	73799	I hope we'll get the game here in Denver.	I hope we will get the fame here in Denver.	3509131	1472007775109	1472007775215	w	87
6850	73799	I hope we'll get the game here in Denver.	I hope we will get the fame here in Denver.	3509137	1472007775230	1472007775292	i	73
6850	73799	I hope we'll get the game here in Denver.	I hope we will get the fame here in Denver.	3509141	1472007775402	1472007775449	l	76
6850	73799	I hope we'll get the game here in Denver.	I hope we will get the fame here in Denver.	3509145	1472007775532	1472007775685	l	76
6850	73799	I hope we'll get the game here in Denver.	I hope we will get the fame here in Denver.	3509149	1472007775656	1472007775739	 	32
6850	73799	I hope we'll get the game here in Denver.	I hope we will get the fame here in Denver.	3509152	1472007775895	1472007776012	g	71
6850	73799	I hope we'll get the game here in Denver.	I hope we will get the fame here in Denver.	3509169	1472007776006	1472007776080	e	69
6850	73799	I hope we'll get the game here in Denver.	I hope we will get the fame here in Denver.	3509173	1472007776107	1472007776187	t	84
6850	73799	I hope we'll get the game here in Denver.	I hope we will get the fame here in Denver.	3509178	1472007776166	1472007776316	 	32
6850	73799	I hope we'll get the game here in Denver.	I hope we will get the fame here in Denver.	3509185	1472007776279	1472007776365	t	84
6850	73799	I hope we'll get the game here in Denver.	I hope we will get the fame here in Denver.	3509188	1472007776444	1472007776562	h	72
6850	73799	I hope we'll get the game here in Denver.	I hope we will get the fame here in Denver.	3509215	1472007776539	1472007776607	e	69
6850	73799	I hope we'll get the game here in Denver.	I hope we will get the fame here in Denver.	3509218	1472007776670	1472007776795	 	32
6850	73799	I hope we'll get the game here in Denver.	I hope we will get the fame here in Denver.	3509219	1472007776951	1472007777056	f	70
6850	73799	I hope we'll get the game here in Denver.	I hope we will get the fame here in Denver.	3509222	1472007777054	1472007777172	a	65
6850	73799	I hope we'll get the game here in Denver.	I hope we will get the fame here in Denver.	3509224	1472007777153	1472007777291	m	77
6850	73799	I hope we'll get the game here in Denver.	I hope we will get the fame here in Denver.	3509243	1472007777262	1472007777350	e	69
6850	73799	I hope we'll get the game here in Denver.	I hope we will get the fame here in Denver.	3509247	1472007777330	1472007777468	 	32
6850	73799	I hope we'll get the game here in Denver.	I hope we will get the fame here in Denver.	3509252	1472007777437	1472007777547	h	72
6850	73799	I hope we'll get the game here in Denver.	I hope we will get the fame here in Denver.	3509256	1472007777515	1472007777626	e	69
6850	73799	I hope we'll get the game here in Denver.	I hope we will get the fame here in Denver.	3509261	1472007777597	1472007777695	r	82
6850	73799	I hope we'll get the game here in Denver.	I hope we will get the fame here in Denver.	3509266	1472007777711	1472007777827	 	69
6850	73799	I hope we'll get the game here in Denver.	I hope we will get the fame here in Denver.	3509307	1472007777844	1472007778011	i	73
6850	73799	I hope we'll get the game here in Denver.	I hope we will get the fame here in Denver.	3509308	1472007777914	1472007778064	n	78
6850	73799	I hope we'll get the game here in Denver.	I hope we will get the fame here in Denver.	3509310	1472007778026	1472007778158	 	32
6850	73799	I hope we'll get the game here in Denver.	I hope we will get the fame here in Denver.	3509312	1472007778205	1472007778421	SHIFT	16
6850	73799	I hope we'll get the game here in Denver.	I hope we will get the fame here in Denver.	3509315	1472007778330	1472007778470	D	68
6850	73799	I hope we'll get the game here in Denver.	I hope we will get the fame here in Denver.	3509424	1472007778517	1472007778611	e	87
6850	73799	I hope we'll get the game here in Denver.	I hope we will get the fame here in Denver.	3509427	1472007779279	1472007779340	BKSP	8
6850	73799	I hope we'll get the game here in Denver.	I hope we will get the fame here in Denver.	3509429	1472007779409	1472007779497	BKSP	8
6850	73799	I hope we'll get the game here in Denver.	I hope we will get the fame here in Denver.	3509432	1472007779487	1472007779557	e	69
6850	73799	I hope we'll get the game here in Denver.	I hope we will get the fame here in Denver.	3509437	1472007779593	1472007779702	n	78
6850	73799	I hope we'll get the game here in Denver.	I hope we will get the fame here in Denver.	3509443	1472007779718	1472007779803	c	67
6850	73799	I hope we'll get the game here in Denver.	I hope we will get the fame here in Denver.	3509446	1472007780084	1472007780167	BKSP	8
6850	73799	I hope we'll get the game here in Denver.	I hope we will get the fame here in Denver.	3509452	1472007780157	1472007780187	v	86
6850	73799	I hope we'll get the game here in Denver.	I hope we will get the fame here in Denver.	3509457	1472007780217	1472007780360	e	69
6850	73799	I hope we'll get the game here in Denver.	I hope we will get the fame here in Denver.	3509439	1472007780316	1472007780432	r	82
6850	73813	I am out of town on business tonight.	I am out of town on business tonight.	3510113	1472007780448	1472007790368	.	190
6850	73813	I am out of town on business tonight.	I am out of town on business tonight.	3509796	1472007785692	1472007785827	SHIFT	16
6850	73813	I am out of town on business tonight.	I am out of town on business tonight.	3509798	1472007785781	1472007785909	I	73
6850	73813	I am out of town on business tonight.	I am out of town on business tonight.	3509802	1472007785874	1472007785998	 	32
6850	73813	I am out of town on business tonight.	I am out of town on business tonight.	3509804	1472007785943	1472007786075	a	65
6850	73813	I am out of town on business tonight.	I am out of town on business tonight.	3509805	1472007786090	1472007786263	m	77
6850	73813	I am out of town on business tonight.	I am out of town on business tonight.	3509819	1472007786224	1472007786376	 	32
6850	73813	I am out of town on business tonight.	I am out of town on business tonight.	3509821	1472007786308	1472007786532	o	79
6850	73813	I am out of town on business tonight.	I am out of town on business tonight.	3509827	1472007786439	1472007786569	u	85
6850	73813	I am out of town on business tonight.	I am out of town on business tonight.	3509834	1472007786548	1472007786631	t	84
6850	73813	I am out of town on business tonight.	I am out of town on business tonight.	3509838	1472007786617	1472007786751	 	32
6850	73813	I am out of town on business tonight.	I am out of town on business tonight.	3509864	1472007786692	1472007786845	o	79
6850	73813	I am out of town on business tonight.	I am out of town on business tonight.	3509867	1472007786815	1472007786923	f	70
6850	73813	I am out of town on business tonight.	I am out of town on business tonight.	3509875	1472007786938	1472007787048	 	32
6850	73813	I am out of town on business tonight.	I am out of town on business tonight.	3509880	1472007787048	1472007787100	t	84
6850	73813	I am out of town on business tonight.	I am out of town on business tonight.	3509885	1472007787116	1472007787284	o	79
6850	73813	I am out of town on business tonight.	I am out of town on business tonight.	3509890	1472007787347	1472007787431	w	87
6850	73813	I am out of town on business tonight.	I am out of town on business tonight.	3509923	1472007787457	1472007787583	n	78
6850	73813	I am out of town on business tonight.	I am out of town on business tonight.	3509929	1472007787548	1472007787694	 	32
6850	73813	I am out of town on business tonight.	I am out of town on business tonight.	3509936	1472007787866	1472007787981	o	79
6850	73813	I am out of town on business tonight.	I am out of town on business tonight.	3509947	1472007788014	1472007788184	n	78
6850	73813	I am out of town on business tonight.	I am out of town on business tonight.	3509978	1472007788121	1472007788261	 	32
6850	73813	I am out of town on business tonight.	I am out of town on business tonight.	3509985	1472007788370	1472007788530	b	66
6850	73813	I am out of town on business tonight.	I am out of town on business tonight.	3509991	1472007788495	1472007788604	u	85
6850	73813	I am out of town on business tonight.	I am out of town on business tonight.	3509997	1472007788636	1472007788724	s	83
6850	73813	I am out of town on business tonight.	I am out of town on business tonight.	3510001	1472007788755	1472007788903	i	73
6850	73813	I am out of town on business tonight.	I am out of town on business tonight.	3510041	1472007788864	1472007789004	n	78
6850	73813	I am out of town on business tonight.	I am out of town on business tonight.	3510045	1472007789001	1472007789063	e	69
6850	73813	I am out of town on business tonight.	I am out of town on business tonight.	3510050	1472007789188	1472007789247	s	83
6850	73813	I am out of town on business tonight.	I am out of town on business tonight.	3510055	1472007789325	1472007789388	s	83
6850	73813	I am out of town on business tonight.	I am out of town on business tonight.	3510059	1472007789397	1472007789520	 	32
6850	73813	I am out of town on business tonight.	I am out of town on business tonight.	3510064	1472007789567	1472007789633	t	84
6850	73813	I am out of town on business tonight.	I am out of town on business tonight.	3510092	1472007789613	1472007789725	o	79
6850	73813	I am out of town on business tonight.	I am out of town on business tonight.	3510098	1472007789756	1472007789889	n	78
6850	73813	I am out of town on business tonight.	I am out of town on business tonight.	3510104	1472007789854	1472007790007	i	73
6850	73813	I am out of town on business tonight.	I am out of town on business tonight.	3510107	1472007789969	1472007790037	g	71
6850	73813	I am out of town on business tonight.	I am out of town on business tonight.	3510111	1472007790037	1472007790112	h	72
6850	73813	I am out of town on business tonight.	I am out of town on business tonight.	3510114	1472007790143	1472007790211	t	84
