PARTICIPANT_ID	TEST_SECTION_ID	SENTENCE	USER_INPUT	KEYSTROKE_ID	PRESS_TIME	RELEASE_TIME	LETTER	KEYCODE
6855	73673	All our demographics indicate that is a family audience.	All our demographics indicate that is a family audience.	3503306	1472007670509	1472007670814	SHIFT	16
6855	73673	All our demographics indicate that is a family audience.	All our demographics indicate that is a family audience.	3503301	1472007670690	1472007670806	A	65
6855	73673	All our demographics indicate that is a family audience.	All our demographics indicate that is a family audience.	3503312	1472007671140	1472007671251	l	76
6855	73673	All our demographics indicate that is a family audience.	All our demographics indicate that is a family audience.	3503319	1472007671498	1472007671601	l	76
6855	73673	All our demographics indicate that is a family audience.	All our demographics indicate that is a family audience.	3503327	1472007671876	1472007671993	 	32
6855	73673	All our demographics indicate that is a family audience.	All our demographics indicate that is a family audience.	3503333	1472007672687	1472007672788	o	79
6855	73673	All our demographics indicate that is a family audience.	All our demographics indicate that is a family audience.	3503412	1472007673206	1472007673320	u	85
6855	73673	All our demographics indicate that is a family audience.	All our demographics indicate that is a family audience.	3503417	1472007673414	1472007673512	r	82
6855	73673	All our demographics indicate that is a family audience.	All our demographics indicate that is a family audience.	3503422	1472007673572	1472007673671	 	32
6855	73673	All our demographics indicate that is a family audience.	All our demographics indicate that is a family audience.	3503426	1472007674505	1472007674598	d	68
6855	73673	All our demographics indicate that is a family audience.	All our demographics indicate that is a family audience.	3503433	1472007674746	1472007674854	e	69
6855	73673	All our demographics indicate that is a family audience.	All our demographics indicate that is a family audience.	3503604	1472007675048	1472007675159	m	77
6855	73673	All our demographics indicate that is a family audience.	All our demographics indicate that is a family audience.	3503607	1472007675298	1472007675375	o	79
6855	73673	All our demographics indicate that is a family audience.	All our demographics indicate that is a family audience.	3503610	1472007677299	1472007677413	g	71
6855	73673	All our demographics indicate that is a family audience.	All our demographics indicate that is a family audience.	3503616	1472007677941	1472007678036	r	82
6855	73673	All our demographics indicate that is a family audience.	All our demographics indicate that is a family audience.	3503620	1472007678405	1472007678504	a	65
6855	73673	All our demographics indicate that is a family audience.	All our demographics indicate that is a family audience.	3503732	1472007678588	1472007678693	p	80
6855	73673	All our demographics indicate that is a family audience.	All our demographics indicate that is a family audience.	3503734	1472007679570	1472007679669	h	72
6855	73673	All our demographics indicate that is a family audience.	All our demographics indicate that is a family audience.	3503738	1472007679930	1472007680029	i	73
6855	73673	All our demographics indicate that is a family audience.	All our demographics indicate that is a family audience.	3503739	1472007680098	1472007680196	c	67
6855	73673	All our demographics indicate that is a family audience.	All our demographics indicate that is a family audience.	3503742	1472007680471	1472007680572	s	83
6855	73673	All our demographics indicate that is a family audience.	All our demographics indicate that is a family audience.	3503829	1472007680644	1472007680749	 	32
6855	73673	All our demographics indicate that is a family audience.	All our demographics indicate that is a family audience.	3503831	1472007681366	1472007681489	i	73
6855	73673	All our demographics indicate that is a family audience.	All our demographics indicate that is a family audience.	3503832	1472007681616	1472007681708	n	78
6855	73673	All our demographics indicate that is a family audience.	All our demographics indicate that is a family audience.	3503833	1472007682093	1472007682207	d	68
6855	73673	All our demographics indicate that is a family audience.	All our demographics indicate that is a family audience.	3503834	1472007682316	1472007682411	i	73
6855	73673	All our demographics indicate that is a family audience.	All our demographics indicate that is a family audience.	3503895	1472007682710	1472007682845	c	67
6855	73673	All our demographics indicate that is a family audience.	All our demographics indicate that is a family audience.	3503897	1472007683122	1472007683233	a	65
6855	73673	All our demographics indicate that is a family audience.	All our demographics indicate that is a family audience.	3503898	1472007683305	1472007683407	t	84
6855	73673	All our demographics indicate that is a family audience.	All our demographics indicate that is a family audience.	3503899	1472007683556	1472007683661	e	69
6855	73673	All our demographics indicate that is a family audience.	All our demographics indicate that is a family audience.	3503901	1472007683751	1472007683874	 	32
6855	73673	All our demographics indicate that is a family audience.	All our demographics indicate that is a family audience.	3503979	1472007684567	1472007684709	t	84
6855	73673	All our demographics indicate that is a family audience.	All our demographics indicate that is a family audience.	3503982	1472007684772	1472007684861	h	72
6855	73673	All our demographics indicate that is a family audience.	All our demographics indicate that is a family audience.	3503983	1472007685114	1472007685204	a	65
6855	73673	All our demographics indicate that is a family audience.	All our demographics indicate that is a family audience.	3503985	1472007685251	1472007685390	t	84
6855	73673	All our demographics indicate that is a family audience.	All our demographics indicate that is a family audience.	3503988	1472007685480	1472007685622	 	32
6855	73673	All our demographics indicate that is a family audience.	All our demographics indicate that is a family audience.	3504040	1472007686306	1472007686414	i	73
6855	73673	All our demographics indicate that is a family audience.	All our demographics indicate that is a family audience.	3504042	1472007686477	1472007686569	s	83
6855	73673	All our demographics indicate that is a family audience.	All our demographics indicate that is a family audience.	3504046	1472007686599	1472007686722	 	32
6855	73673	All our demographics indicate that is a family audience.	All our demographics indicate that is a family audience.	3504050	1472007686877	1472007686981	a	65
6855	73673	All our demographics indicate that is a family audience.	All our demographics indicate that is a family audience.	3504053	1472007687008	1472007687122	 	32
6855	73673	All our demographics indicate that is a family audience.	All our demographics indicate that is a family audience.	3504225	1472007687611	1472007687705	f	70
6855	73673	All our demographics indicate that is a family audience.	All our demographics indicate that is a family audience.	3504228	1472007688417	1472007688519	a	65
6855	73673	All our demographics indicate that is a family audience.	All our demographics indicate that is a family audience.	3504232	1472007688622	1472007688699	m	77
6855	73673	All our demographics indicate that is a family audience.	All our demographics indicate that is a family audience.	3504238	1472007689077	1472007689185	i	73
6855	73673	All our demographics indicate that is a family audience.	All our demographics indicate that is a family audience.	3504245	1472007690049	1472007690138	l	76
6855	73673	All our demographics indicate that is a family audience.	All our demographics indicate that is a family audience.	3504341	1472007690400	1472007690493	y	89
6855	73673	All our demographics indicate that is a family audience.	All our demographics indicate that is a family audience.	3504342	1472007690571	1472007690682	 	32
6855	73673	All our demographics indicate that is a family audience.	All our demographics indicate that is a family audience.	3504344	1472007691247	1472007691352	a	65
6855	73673	All our demographics indicate that is a family audience.	All our demographics indicate that is a family audience.	3504348	1472007691552	1472007691638	u	85
6855	73673	All our demographics indicate that is a family audience.	All our demographics indicate that is a family audience.	3504353	1472007691833	1472007691931	d	68
6855	73673	All our demographics indicate that is a family audience.	All our demographics indicate that is a family audience.	3504417	1472007692178	1472007692283	i	73
6855	73673	All our demographics indicate that is a family audience.	All our demographics indicate that is a family audience.	3504421	1472007692358	1472007692456	e	69
6855	73673	All our demographics indicate that is a family audience.	All our demographics indicate that is a family audience.	3504425	1472007692639	1472007692734	n	78
6855	73673	All our demographics indicate that is a family audience.	All our demographics indicate that is a family audience.	3504428	1472007692852	1472007692954	c	67
6855	73673	All our demographics indicate that is a family audience.	All our demographics indicate that is a family audience.	3504430	1472007693264	1472007693347	e	69
6855	73673	All our demographics indicate that is a family audience.	All our demographics indicate that is a family audience.	3504492	1472007694172	1472007694249	.	190
6855	73703	He was professor emeritus of human development and psychiatry.	He was professor emeritus of human development and psychiatry.	3504713	1472007697607	1472007697943	SHIFT	16
6855	73703	He was professor emeritus of human development and psychiatry.	He was professor emeritus of human development and psychiatry.	3504709	1472007697730	1472007697826	H	72
6855	73703	He was professor emeritus of human development and psychiatry.	He was professor emeritus of human development and psychiatry.	3504718	1472007698456	1472007698545	e	69
6855	73703	He was professor emeritus of human development and psychiatry.	He was professor emeritus of human development and psychiatry.	3504722	1472007698608	1472007698731	 	32
6855	73703	He was professor emeritus of human development and psychiatry.	He was professor emeritus of human development and psychiatry.	3504727	1472007698910	1472007699006	w	87
6855	73703	He was professor emeritus of human development and psychiatry.	He was professor emeritus of human development and psychiatry.	3504729	1472007699188	1472007699291	a	65
6855	73703	He was professor emeritus of human development and psychiatry.	He was professor emeritus of human development and psychiatry.	3504786	1472007699423	1472007699522	s	83
6855	73703	He was professor emeritus of human development and psychiatry.	He was professor emeritus of human development and psychiatry.	3504789	1472007699585	1472007699695	 	32
6855	73703	He was professor emeritus of human development and psychiatry.	He was professor emeritus of human development and psychiatry.	3504793	1472007700462	1472007700570	p	80
6855	73703	He was professor emeritus of human development and psychiatry.	He was professor emeritus of human development and psychiatry.	3504795	1472007700716	1472007700808	r	82
6855	73703	He was professor emeritus of human development and psychiatry.	He was professor emeritus of human development and psychiatry.	3504797	1472007700895	1472007701025	o	79
6855	73703	He was professor emeritus of human development and psychiatry.	He was professor emeritus of human development and psychiatry.	3504866	1472007701433	1472007701532	f	70
6855	73703	He was professor emeritus of human development and psychiatry.	He was professor emeritus of human development and psychiatry.	3504868	1472007701723	1472007701810	e	69
6855	73703	He was professor emeritus of human development and psychiatry.	He was professor emeritus of human development and psychiatry.	3504871	1472007702078	1472007702157	s	83
6855	73703	He was professor emeritus of human development and psychiatry.	He was professor emeritus of human development and psychiatry.	3504873	1472007702251	1472007702346	s	83
6855	73703	He was professor emeritus of human development and psychiatry.	He was professor emeritus of human development and psychiatry.	3504875	1472007702461	1472007702557	o	79
6855	73703	He was professor emeritus of human development and psychiatry.	He was professor emeritus of human development and psychiatry.	3504950	1472007702718	1472007702816	r	82
6855	73703	He was professor emeritus of human development and psychiatry.	He was professor emeritus of human development and psychiatry.	3504952	1472007702913	1472007703030	 	32
6855	73703	He was professor emeritus of human development and psychiatry.	He was professor emeritus of human development and psychiatry.	3504955	1472007704121	1472007704213	e	69
6855	73703	He was professor emeritus of human development and psychiatry.	He was professor emeritus of human development and psychiatry.	3504957	1472007704261	1472007704347	m	77
6855	73703	He was professor emeritus of human development and psychiatry.	He was professor emeritus of human development and psychiatry.	3504961	1472007704468	1472007704551	e	69
6855	73703	He was professor emeritus of human development and psychiatry.	He was professor emeritus of human development and psychiatry.	3505215	1472007705067	1472007705150	r	82
6855	73703	He was professor emeritus of human development and psychiatry.	He was professor emeritus of human development and psychiatry.	3505219	1472007705213	1472007705327	 	32
6855	73703	He was professor emeritus of human development and psychiatry.	He was professor emeritus of human development and psychiatry.	3505223	1472007706005	1472007706159	BKSP	8
6855	73703	He was professor emeritus of human development and psychiatry.	He was professor emeritus of human development and psychiatry.	3505229	1472007708631	1472007708714	i	73
6855	73703	He was professor emeritus of human development and psychiatry.	He was professor emeritus of human development and psychiatry.	3505236	1472007708810	1472007708908	t	84
6855	73703	He was professor emeritus of human development and psychiatry.	He was professor emeritus of human development and psychiatry.	3505238	1472007709020	1472007709135	u	85
6855	73703	He was professor emeritus of human development and psychiatry.	He was professor emeritus of human development and psychiatry.	3505318	1472007709366	1472007709464	s	83
6855	73703	He was professor emeritus of human development and psychiatry.	He was professor emeritus of human development and psychiatry.	3505321	1472007709518	1472007709616	 	32
6855	73703	He was professor emeritus of human development and psychiatry.	He was professor emeritus of human development and psychiatry.	3505324	1472007710187	1472007710332	o	79
6855	73703	He was professor emeritus of human development and psychiatry.	He was professor emeritus of human development and psychiatry.	3505329	1472007710545	1472007710643	f	70
6855	73703	He was professor emeritus of human development and psychiatry.	He was professor emeritus of human development and psychiatry.	3505332	1472007710752	1472007710866	 	32
6855	73703	He was professor emeritus of human development and psychiatry.	He was professor emeritus of human development and psychiatry.	3505398	1472007711596	1472007711698	h	72
6855	73703	He was professor emeritus of human development and psychiatry.	He was professor emeritus of human development and psychiatry.	3505400	1472007711850	1472007711957	u	85
6855	73703	He was professor emeritus of human development and psychiatry.	He was professor emeritus of human development and psychiatry.	3505403	1472007712323	1472007712437	m	77
6855	73703	He was professor emeritus of human development and psychiatry.	He was professor emeritus of human development and psychiatry.	3505408	1472007712558	1472007712644	a	65
6855	73703	He was professor emeritus of human development and psychiatry.	He was professor emeritus of human development and psychiatry.	3505411	1472007712692	1472007712781	n	78
6855	73703	He was professor emeritus of human development and psychiatry.	He was professor emeritus of human development and psychiatry.	3505532	1472007712915	1472007713032	 	32
6855	73703	He was professor emeritus of human development and psychiatry.	He was professor emeritus of human development and psychiatry.	3505535	1472007713688	1472007713781	d	68
6855	73703	He was professor emeritus of human development and psychiatry.	He was professor emeritus of human development and psychiatry.	3505541	1472007713902	1472007714003	e	69
6855	73703	He was professor emeritus of human development and psychiatry.	He was professor emeritus of human development and psychiatry.	3505544	1472007714415	1472007714470	c	67
6855	73703	He was professor emeritus of human development and psychiatry.	He was professor emeritus of human development and psychiatry.	3505549	1472007714861	1472007714990	BKSP	8
6855	73703	He was professor emeritus of human development and psychiatry.	He was professor emeritus of human development and psychiatry.	3505554	1472007715050	1472007715139	v	86
6855	73703	He was professor emeritus of human development and psychiatry.	He was professor emeritus of human development and psychiatry.	3505733	1472007715878	1472007715977	e	69
6855	73703	He was professor emeritus of human development and psychiatry.	He was professor emeritus of human development and psychiatry.	3505735	1472007716297	1472007716405	l	76
6855	73703	He was professor emeritus of human development and psychiatry.	He was professor emeritus of human development and psychiatry.	3505739	1472007716504	1472007716628	o	79
6855	73703	He was professor emeritus of human development and psychiatry.	He was professor emeritus of human development and psychiatry.	3505746	1472007716941	1472007717071	p	80
6855	73703	He was professor emeritus of human development and psychiatry.	He was professor emeritus of human development and psychiatry.	3505753	1472007718364	1472007718450	m	77
6855	73703	He was professor emeritus of human development and psychiatry.	He was professor emeritus of human development and psychiatry.	3505906	1472007718700	1472007718817	e	69
6855	73703	He was professor emeritus of human development and psychiatry.	He was professor emeritus of human development and psychiatry.	3505913	1472007719532	1472007719605	t	84
6855	73703	He was professor emeritus of human development and psychiatry.	He was professor emeritus of human development and psychiatry.	3505919	1472007720164	1472007720293	BKSP	8
6855	73703	He was professor emeritus of human development and psychiatry.	He was professor emeritus of human development and psychiatry.	3505923	1472007720806	1472007720899	n	78
6855	73703	He was professor emeritus of human development and psychiatry.	He was professor emeritus of human development and psychiatry.	3505928	1472007720980	1472007721063	t	84
6855	73703	He was professor emeritus of human development and psychiatry.	He was professor emeritus of human development and psychiatry.	3505933	1472007721153	1472007721258	 	32
6855	73703	He was professor emeritus of human development and psychiatry.	He was professor emeritus of human development and psychiatry.	3506097	1472007721939	1472007722038	a	65
6855	73703	He was professor emeritus of human development and psychiatry.	He was professor emeritus of human development and psychiatry.	3506100	1472007722135	1472007722218	n	78
6855	73703	He was professor emeritus of human development and psychiatry.	He was professor emeritus of human development and psychiatry.	3506105	1472007722397	1472007722486	d	68
6855	73703	He was professor emeritus of human development and psychiatry.	He was professor emeritus of human development and psychiatry.	3506109	1472007722567	1472007722669	 	32
6855	73703	He was professor emeritus of human development and psychiatry.	He was professor emeritus of human development and psychiatry.	3506112	1472007723552	1472007723638	p	80
6855	73703	He was professor emeritus of human development and psychiatry.	He was professor emeritus of human development and psychiatry.	3506225	1472007723698	1472007723793	s	83
6855	73703	He was professor emeritus of human development and psychiatry.	He was professor emeritus of human development and psychiatry.	3506228	1472007724257	1472007724334	y	89
6855	73703	He was professor emeritus of human development and psychiatry.	He was professor emeritus of human development and psychiatry.	3506229	1472007724464	1472007724584	c	67
6855	73703	He was professor emeritus of human development and psychiatry.	He was professor emeritus of human development and psychiatry.	3506231	1472007724978	1472007725076	h	72
6855	73703	He was professor emeritus of human development and psychiatry.	He was professor emeritus of human development and psychiatry.	3506233	1472007725522	1472007725614	u	85
6855	73703	He was professor emeritus of human development and psychiatry.	He was professor emeritus of human development and psychiatry.	3506336	1472007725631	1472007725730	a	65
6855	73703	He was professor emeritus of human development and psychiatry.	He was professor emeritus of human development and psychiatry.	3506339	1472007725802	1472007725895	 	32
6855	73703	He was professor emeritus of human development and psychiatry.	He was professor emeritus of human development and psychiatry.	3506344	1472007726242	1472007726359	BKSP	8
6855	73703	He was professor emeritus of human development and psychiatry.	He was professor emeritus of human development and psychiatry.	3506348	1472007726440	1472007726530	BKSP	8
6855	73703	He was professor emeritus of human development and psychiatry.	He was professor emeritus of human development and psychiatry.	3506351	1472007726813	1472007726952	BKSP	8
6855	73703	He was professor emeritus of human development and psychiatry.	He was professor emeritus of human development and psychiatry.	3506356	1472007727315	1472007727413	i	73
6855	73703	He was professor emeritus of human development and psychiatry.	He was professor emeritus of human development and psychiatry.	3506360	1472007727650	1472007727743	a	65
6855	73703	He was professor emeritus of human development and psychiatry.	He was professor emeritus of human development and psychiatry.	3506364	1472007727925	1472007728024	 	32
6855	73703	He was professor emeritus of human development and psychiatry.	He was professor emeritus of human development and psychiatry.	3506689	1472007728374	1472007728480	BKSP	8
6855	73703	He was professor emeritus of human development and psychiatry.	He was professor emeritus of human development and psychiatry.	3506691	1472007728980	1472007729090	t	84
6855	73703	He was professor emeritus of human development and psychiatry.	He was professor emeritus of human development and psychiatry.	3506693	1472007729784	1472007729880	r	82
6855	73703	He was professor emeritus of human development and psychiatry.	He was professor emeritus of human development and psychiatry.	3506695	1472007730129	1472007730277	y	89
6855	73703	He was professor emeritus of human development and psychiatry.	He was professor emeritus of human development and psychiatry.	3506698	1472007731990	1472007732069	.	190
6855	73752	Do we need to discuss?	Do we need to dicuss?	3507091	1472007736002	1472007736409	SHIFT	16
6855	73752	Do we need to discuss?	Do we need to dicuss?	3507089	1472007736254	1472007736338	D	68
6855	73752	Do we need to discuss?	Do we need to dicuss?	3507093	1472007736680	1472007736784	o	79
6855	73752	Do we need to discuss?	Do we need to dicuss?	3507095	1472007736930	1472007737026	 	32
6855	73752	Do we need to discuss?	Do we need to dicuss?	3507097	1472007738380	1472007738447	w	87
6855	73752	Do we need to discuss?	Do we need to dicuss?	3507099	1472007738599	1472007738648	e	69
6855	73752	Do we need to discuss?	Do we need to dicuss?	3507204	1472007738730	1472007738812	 	32
6855	73752	Do we need to discuss?	Do we need to dicuss?	3507210	1472007739435	1472007739518	n	78
6855	73752	Do we need to discuss?	Do we need to dicuss?	3507214	1472007739621	1472007739711	e	69
6855	73752	Do we need to discuss?	Do we need to dicuss?	3507217	1472007739810	1472007739896	e	69
6855	73752	Do we need to discuss?	Do we need to dicuss?	3507223	1472007740072	1472007740149	d	68
6855	73752	Do we need to discuss?	Do we need to dicuss?	3507331	1472007740237	1472007740314	 	32
6855	73752	Do we need to discuss?	Do we need to dicuss?	3507336	1472007740707	1472007740809	t	84
6855	73752	Do we need to discuss?	Do we need to dicuss?	3507341	1472007740896	1472007740979	o	79
6855	73752	Do we need to discuss?	Do we need to dicuss?	3507348	1472007741210	1472007741315	 	32
6855	73752	Do we need to discuss?	Do we need to dicuss?	3507352	1472007741910	1472007742018	d	68
6855	73752	Do we need to discuss?	Do we need to dicuss?	3507448	1472007742112	1472007742207	i	73
6855	73752	Do we need to discuss?	Do we need to dicuss?	3507452	1472007742374	1472007742470	c	67
6855	73752	Do we need to discuss?	Do we need to dicuss?	3507457	1472007742765	1472007742848	u	85
6855	73752	Do we need to discuss?	Do we need to dicuss?	3507461	1472007743655	1472007743738	s	83
6855	73752	Do we need to discuss?	Do we need to dicuss?	3507465	1472007743834	1472007743902	s	83
6855	73752	Do we need to discuss?	Do we need to dicuss?	3507557	1472007744491	1472007744892	SHIFT	16
6855	73752	Do we need to discuss?	Do we need to dicuss?	3507550	1472007744752	1472007744846	?	191
6855	73768	Be back tomorrow and maybe we can visit.	Be back tomorrow and maybe we can visit.	3507893	1472007747503	1472007749147	SHIFT	16
6855	73768	Be back tomorrow and maybe we can visit.	Be back tomorrow and maybe we can visit.	3507890	1472007748999	1472007749077	B	66
6855	73768	Be back tomorrow and maybe we can visit.	Be back tomorrow and maybe we can visit.	3507896	1472007749483	1472007749566	e	69
6855	73768	Be back tomorrow and maybe we can visit.	Be back tomorrow and maybe we can visit.	3507900	1472007749684	1472007749767	 	32
6855	73768	Be back tomorrow and maybe we can visit.	Be back tomorrow and maybe we can visit.	3507903	1472007750332	1472007750418	b	66
6855	73768	Be back tomorrow and maybe we can visit.	Be back tomorrow and maybe we can visit.	3507911	1472007750738	1472007750834	a	65
6855	73768	Be back tomorrow and maybe we can visit.	Be back tomorrow and maybe we can visit.	3507976	1472007751178	1472007751261	c	67
6855	73768	Be back tomorrow and maybe we can visit.	Be back tomorrow and maybe we can visit.	3507981	1472007751361	1472007751463	k	75
6855	73768	Be back tomorrow and maybe we can visit.	Be back tomorrow and maybe we can visit.	3507987	1472007751572	1472007751695	 	32
6855	73768	Be back tomorrow and maybe we can visit.	Be back tomorrow and maybe we can visit.	3507991	1472007752116	1472007752211	t	84
6855	73768	Be back tomorrow and maybe we can visit.	Be back tomorrow and maybe we can visit.	3507995	1472007752308	1472007752409	o	79
6855	73768	Be back tomorrow and maybe we can visit.	Be back tomorrow and maybe we can visit.	3508063	1472007752561	1472007752656	m	77
6855	73768	Be back tomorrow and maybe we can visit.	Be back tomorrow and maybe we can visit.	3508065	1472007752845	1472007752959	o	79
6855	73768	Be back tomorrow and maybe we can visit.	Be back tomorrow and maybe we can visit.	3508070	1472007753144	1472007753240	r	82
6855	73768	Be back tomorrow and maybe we can visit.	Be back tomorrow and maybe we can visit.	3508073	1472007753327	1472007753428	r	82
6855	73768	Be back tomorrow and maybe we can visit.	Be back tomorrow and maybe we can visit.	3508077	1472007753543	1472007753645	o	79
6855	73768	Be back tomorrow and maybe we can visit.	Be back tomorrow and maybe we can visit.	3508165	1472007753996	1472007754106	w	87
6855	73768	Be back tomorrow and maybe we can visit.	Be back tomorrow and maybe we can visit.	3508168	1472007754170	1472007754274	 	32
6855	73768	Be back tomorrow and maybe we can visit.	Be back tomorrow and maybe we can visit.	3508170	1472007754762	1472007754871	a	65
6855	73768	Be back tomorrow and maybe we can visit.	Be back tomorrow and maybe we can visit.	3508171	1472007754918	1472007754989	n	78
6855	73768	Be back tomorrow and maybe we can visit.	Be back tomorrow and maybe we can visit.	3508173	1472007755193	1472007755288	d	68
6855	73768	Be back tomorrow and maybe we can visit.	Be back tomorrow and maybe we can visit.	3508298	1472007755935	1472007756003	 	32
6855	73768	Be back tomorrow and maybe we can visit.	Be back tomorrow and maybe we can visit.	3508303	1472007756568	1472007756663	m	77
6855	73768	Be back tomorrow and maybe we can visit.	Be back tomorrow and maybe we can visit.	3508309	1472007756790	1472007756877	a	65
6855	73768	Be back tomorrow and maybe we can visit.	Be back tomorrow and maybe we can visit.	3508314	1472007757148	1472007757247	y	89
6855	73768	Be back tomorrow and maybe we can visit.	Be back tomorrow and maybe we can visit.	3508319	1472007757392	1472007757478	b	66
6855	73768	Be back tomorrow and maybe we can visit.	Be back tomorrow and maybe we can visit.	3508395	1472007757593	1472007757664	e	69
6855	73768	Be back tomorrow and maybe we can visit.	Be back tomorrow and maybe we can visit.	3508400	1472007757736	1472007757859	 	32
6855	73768	Be back tomorrow and maybe we can visit.	Be back tomorrow and maybe we can visit.	3508404	1472007758690	1472007758767	w	87
6855	73768	Be back tomorrow and maybe we can visit.	Be back tomorrow and maybe we can visit.	3508412	1472007758879	1472007758968	e	69
6855	73768	Be back tomorrow and maybe we can visit.	Be back tomorrow and maybe we can visit.	3508417	1472007759037	1472007759123	 	32
6855	73768	Be back tomorrow and maybe we can visit.	Be back tomorrow and maybe we can visit.	3508538	1472007759355	1472007759456	c	67
6855	73768	Be back tomorrow and maybe we can visit.	Be back tomorrow and maybe we can visit.	3508542	1472007759681	1472007759787	a	65
6855	73768	Be back tomorrow and maybe we can visit.	Be back tomorrow and maybe we can visit.	3508547	1472007759859	1472007759948	n	78
6855	73768	Be back tomorrow and maybe we can visit.	Be back tomorrow and maybe we can visit.	3508551	1472007760041	1472007760158	 	32
6855	73768	Be back tomorrow and maybe we can visit.	Be back tomorrow and maybe we can visit.	3508554	1472007761158	1472007761244	v	86
6855	73768	Be back tomorrow and maybe we can visit.	Be back tomorrow and maybe we can visit.	3508614	1472007761348	1472007761421	i	73
6855	73768	Be back tomorrow and maybe we can visit.	Be back tomorrow and maybe we can visit.	3508618	1472007761563	1472007761665	s	83
6855	73768	Be back tomorrow and maybe we can visit.	Be back tomorrow and maybe we can visit.	3508622	1472007761862	1472007761976	i	73
6855	73768	Be back tomorrow and maybe we can visit.	Be back tomorrow and maybe we can visit.	3508627	1472007762067	1472007762159	t	84
6855	73768	Be back tomorrow and maybe we can visit.	Be back tomorrow and maybe we can visit.	3508632	1472007762546	1472007762635	.	190
6855	73797	Marisa sent the invoices.	Marisa sent the invoices	3508888	1472007765146	1472007765488	SHIFT	16
6855	73797	Marisa sent the invoices.	Marisa sent the invoices	3508885	1472007765342	1472007765417	M	77
6855	73797	Marisa sent the invoices.	Marisa sent the invoices	3508891	1472007766912	1472007767014	a	65
6855	73797	Marisa sent the invoices.	Marisa sent the invoices	3508893	1472007767472	1472007767574	r	82
6855	73797	Marisa sent the invoices.	Marisa sent the invoices	3508894	1472007767866	1472007767955	i	73
6855	73797	Marisa sent the invoices.	Marisa sent the invoices	3508895	1472007768067	1472007768150	s	83
6855	73797	Marisa sent the invoices.	Marisa sent the invoices	3508978	1472007768323	1472007768435	a	65
6855	73797	Marisa sent the invoices.	Marisa sent the invoices	3508982	1472007768565	1472007768663	 	32
6855	73797	Marisa sent the invoices.	Marisa sent the invoices	3508987	1472007769222	1472007769321	s	83
6855	73797	Marisa sent the invoices.	Marisa sent the invoices	3508993	1472007769521	1472007769614	e	69
6855	73797	Marisa sent the invoices.	Marisa sent the invoices	3508998	1472007769729	1472007769830	n	78
6855	73797	Marisa sent the invoices.	Marisa sent the invoices	3509110	1472007770000	1472007770090	t	84
6855	73797	Marisa sent the invoices.	Marisa sent the invoices	3509116	1472007770134	1472007770248	 	32
6855	73797	Marisa sent the invoices.	Marisa sent the invoices	3509122	1472007770975	1472007771080	t	84
6855	73797	Marisa sent the invoices.	Marisa sent the invoices	3509126	1472007771149	1472007771235	h	72
6855	73797	Marisa sent the invoices.	Marisa sent the invoices	3509132	1472007771414	1472007771525	e	69
6855	73797	Marisa sent the invoices.	Marisa sent the invoices	3509227	1472007771621	1472007771732	 	32
6855	73797	Marisa sent the invoices.	Marisa sent the invoices	3509230	1472007772013	1472007772111	i	73
6855	73797	Marisa sent the invoices.	Marisa sent the invoices	3509233	1472007772214	1472007772312	n	78
6855	73797	Marisa sent the invoices.	Marisa sent the invoices	3509236	1472007772534	1472007772593	c	67
6855	73797	Marisa sent the invoices.	Marisa sent the invoices	3509238	1472007772992	1472007773100	BKSP	8
6855	73797	Marisa sent the invoices.	Marisa sent the invoices	3509240	1472007773203	1472007773280	v	86
6855	73797	Marisa sent the invoices.	Marisa sent the invoices	3509362	1472007774163	1472007774258	o	79
6855	73797	Marisa sent the invoices.	Marisa sent the invoices	3509366	1472007774355	1472007774432	i	73
6855	73797	Marisa sent the invoices.	Marisa sent the invoices	3509368	1472007774911	1472007774991	c	67
6855	73797	Marisa sent the invoices.	Marisa sent the invoices	3509375	1472007775271	1472007775357	e	69
6855	73797	Marisa sent the invoices.	Marisa sent the invoices	3509382	1472007775527	1472007775620	s	83
6855	73810	I'm at the doctor's office, should be in later.	I'm at the doctor's office, should be in later.	3509739	1472007778243	1472007778569	SHIFT	16
6855	73810	I'm at the doctor's office, should be in later.	I'm at the doctor's office, should be in later.	3509736	1472007778406	1472007778486	I	73
6855	73810	I'm at the doctor's office, should be in later.	I'm at the doctor's office, should be in later.	3509744	1472007779385	1472007779456	'	222
6855	73810	I'm at the doctor's office, should be in later.	I'm at the doctor's office, should be in later.	3509750	1472007780379	1472007780434	m	77
6855	73810	I'm at the doctor's office, should be in later.	I'm at the doctor's office, should be in later.	3509756	1472007780592	1472007780672	 	32
6855	73810	I'm at the doctor's office, should be in later.	I'm at the doctor's office, should be in later.	3509768	1472007781291	1472007781387	a	65
6855	73810	I'm at the doctor's office, should be in later.	I'm at the doctor's office, should be in later.	3509853	1472007781475	1472007781553	t	84
6855	73810	I'm at the doctor's office, should be in later.	I'm at the doctor's office, should be in later.	3509856	1472007781697	1472007781799	 	32
6855	73810	I'm at the doctor's office, should be in later.	I'm at the doctor's office, should be in later.	3509860	1472007782569	1472007782676	t	84
6855	73810	I'm at the doctor's office, should be in later.	I'm at the doctor's office, should be in later.	3509863	1472007782739	1472007782825	h	72
6855	73810	I'm at the doctor's office, should be in later.	I'm at the doctor's office, should be in later.	3509868	1472007782968	1472007783061	e	69
6855	73810	I'm at the doctor's office, should be in later.	I'm at the doctor's office, should be in later.	3510040	1472007783138	1472007783215	 	32
6855	73810	I'm at the doctor's office, should be in later.	I'm at the doctor's office, should be in later.	3510044	1472007784150	1472007784274	d	68
6855	73810	I'm at the doctor's office, should be in later.	I'm at the doctor's office, should be in later.	3510049	1472007784358	1472007784438	o	79
6855	73810	I'm at the doctor's office, should be in later.	I'm at the doctor's office, should be in later.	3510054	1472007784685	1472007784792	c	67
6855	73810	I'm at the doctor's office, should be in later.	I'm at the doctor's office, should be in later.	3510060	1472007785274	1472007785401	t	84
6855	73810	I'm at the doctor's office, should be in later.	I'm at the doctor's office, should be in later.	3510197	1472007785476	1472007785565	o	79
6855	73810	I'm at the doctor's office, should be in later.	I'm at the doctor's office, should be in later.	3510201	1472007785732	1472007785846	r	82
6855	73810	I'm at the doctor's office, should be in later.	I'm at the doctor's office, should be in later.	3510208	1472007786925	1472007787002	'	222
6855	73810	I'm at the doctor's office, should be in later.	I'm at the doctor's office, should be in later.	3510212	1472007787227	1472007787347	s	83
6855	73810	I'm at the doctor's office, should be in later.	I'm at the doctor's office, should be in later.	3510219	1472007787842	1472007787952	 	32
6855	73810	I'm at the doctor's office, should be in later.	I'm at the doctor's office, should be in later.	3510341	1472007788460	1472007788555	o	79
6855	73810	I'm at the doctor's office, should be in later.	I'm at the doctor's office, should be in later.	3510346	1472007788710	1472007788792	f	70
6855	73810	I'm at the doctor's office, should be in later.	I'm at the doctor's office, should be in later.	3510351	1472007789278	1472007789373	f	70
6855	73810	I'm at the doctor's office, should be in later.	I'm at the doctor's office, should be in later.	3510354	1472007789454	1472007789544	i	73
6855	73810	I'm at the doctor's office, should be in later.	I'm at the doctor's office, should be in later.	3510362	1472007789698	1472007789794	c	67
6855	73810	I'm at the doctor's office, should be in later.	I'm at the doctor's office, should be in later.	3510535	1472007790025	1472007790120	e	69
6855	73810	I'm at the doctor's office, should be in later.	I'm at the doctor's office, should be in later.	3510539	1472007790355	1472007790438	,	188
6855	73810	I'm at the doctor's office, should be in later.	I'm at the doctor's office, should be in later.	3510540	1472007791006	1472007791080	 	32
6855	73810	I'm at the doctor's office, should be in later.	I'm at the doctor's office, should be in later.	3510542	1472007791794	1472007791886	s	83
6855	73810	I'm at the doctor's office, should be in later.	I'm at the doctor's office, should be in later.	3510547	1472007791956	1472007792051	h	72
6855	73810	I'm at the doctor's office, should be in later.	I'm at the doctor's office, should be in later.	3510646	1472007792414	1472007792525	o	79
6855	73810	I'm at the doctor's office, should be in later.	I'm at the doctor's office, should be in later.	3510649	1472007792670	1472007792760	u	85
6855	73810	I'm at the doctor's office, should be in later.	I'm at the doctor's office, should be in later.	3510652	1472007793177	1472007793267	l	76
6855	73810	I'm at the doctor's office, should be in later.	I'm at the doctor's office, should be in later.	3510656	1472007793360	1472007793452	d	68
6855	73810	I'm at the doctor's office, should be in later.	I'm at the doctor's office, should be in later.	3510662	1472007793537	1472007793651	 	32
6855	73810	I'm at the doctor's office, should be in later.	I'm at the doctor's office, should be in later.	3510826	1472007794806	1472007794883	b	66
6855	73810	I'm at the doctor's office, should be in later.	I'm at the doctor's office, should be in later.	3510831	1472007795130	1472007795197	e	69
6855	73810	I'm at the doctor's office, should be in later.	I'm at the doctor's office, should be in later.	3510836	1472007795297	1472007795414	 	32
6855	73810	I'm at the doctor's office, should be in later.	I'm at the doctor's office, should be in later.	3510842	1472007796178	1472007796270	i	73
6855	73810	I'm at the doctor's office, should be in later.	I'm at the doctor's office, should be in later.	3510850	1472007796397	1472007796487	n	78
6855	73810	I'm at the doctor's office, should be in later.	I'm at the doctor's office, should be in later.	3510932	1472007796598	1472007796709	 	32
6855	73810	I'm at the doctor's office, should be in later.	I'm at the doctor's office, should be in later.	3510936	1472007797060	1472007797161	l	76
6855	73810	I'm at the doctor's office, should be in later.	I'm at the doctor's office, should be in later.	3510942	1472007797224	1472007797357	a	65
6855	73810	I'm at the doctor's office, should be in later.	I'm at the doctor's office, should be in later.	3510946	1472007797595	1472007797684	t	84
6855	73810	I'm at the doctor's office, should be in later.	I'm at the doctor's office, should be in later.	3510949	1472007797802	1472007797888	e	69
6855	73810	I'm at the doctor's office, should be in later.	I'm at the doctor's office, should be in later.	3511047	1472007798028	1472007798105	r	82
6855	73810	I'm at the doctor's office, should be in later.	I'm at the doctor's office, should be in later.	3511048	1472007798911	1472007798982	.	190
6855	73848	The team mate says were not interested at this point.	The team mate says were not interested at this point.	3511301	1472007801636	1472007801956	SHIFT	16
6855	73848	The team mate says were not interested at this point.	The team mate says were not interested at this point.	3511297	1472007801801	1472007801895	T	84
6855	73848	The team mate says were not interested at this point.	The team mate says were not interested at this point.	3511307	1472007802291	1472007802390	h	72
6855	73848	The team mate says were not interested at this point.	The team mate says were not interested at this point.	3511313	1472007802499	1472007802582	e	69
6855	73848	The team mate says were not interested at this point.	The team mate says were not interested at this point.	3511319	1472007802663	1472007802774	 	32
6855	73848	The team mate says were not interested at this point.	The team mate says were not interested at this point.	3511325	1472007803547	1472007803627	t	84
6855	73848	The team mate says were not interested at this point.	The team mate says were not interested at this point.	3511437	1472007803941	1472007804021	e	69
6855	73848	The team mate says were not interested at this point.	The team mate says were not interested at this point.	3511442	1472007804564	1472007804650	a	65
6855	73848	The team mate says were not interested at this point.	The team mate says were not interested at this point.	3511446	1472007804732	1472007804839	m	77
6855	73848	The team mate says were not interested at this point.	The team mate says were not interested at this point.	3511448	1472007804890	1472007805013	 	32
6855	73848	The team mate says were not interested at this point.	The team mate says were not interested at this point.	3511450	1472007805208	1472007805322	m	77
6855	73848	The team mate says were not interested at this point.	The team mate says were not interested at this point.	3511584	1472007805360	1472007805481	a	65
6855	73848	The team mate says were not interested at this point.	The team mate says were not interested at this point.	3511586	1472007806147	1472007806221	t	84
6855	73848	The team mate says were not interested at this point.	The team mate says were not interested at this point.	3511588	1472007806458	1472007806550	e	69
6855	73848	The team mate says were not interested at this point.	The team mate says were not interested at this point.	3511590	1472007806635	1472007806711	 	32
6855	73848	The team mate says were not interested at this point.	The team mate says were not interested at this point.	3511592	1472007807142	1472007807240	s	83
6855	73848	The team mate says were not interested at this point.	The team mate says were not interested at this point.	3511668	1472007807413	1472007807509	a	65
6855	73848	The team mate says were not interested at this point.	The team mate says were not interested at this point.	3511673	1472007807578	1472007807664	y	89
6855	73848	The team mate says were not interested at this point.	The team mate says were not interested at this point.	3511676	1472007807822	1472007807853	d	68
6855	73848	The team mate says were not interested at this point.	The team mate says were not interested at this point.	3511679	1472007808316	1472007808455	BKSP	8
6855	73848	The team mate says were not interested at this point.	The team mate says were not interested at this point.	3511681	1472007808561	1472007808659	s	83
6855	73848	The team mate says were not interested at this point.	The team mate says were not interested at this point.	3511683	1472007808894	1472007808983	 	32
6855	73848	The team mate says were not interested at this point.	The team mate says were not interested at this point.	3511778	1472007809493	1472007809610	w	87
6855	73848	The team mate says were not interested at this point.	The team mate says were not interested at this point.	3511782	1472007809743	1472007809851	e	69
6855	73848	The team mate says were not interested at this point.	The team mate says were not interested at this point.	3511786	1472007809984	1472007810079	r	82
6855	73848	The team mate says were not interested at this point.	The team mate says were not interested at this point.	3511791	1472007810213	1472007810296	e	69
6855	73848	The team mate says were not interested at this point.	The team mate says were not interested at this point.	3511796	1472007810371	1472007810494	 	32
6855	73848	The team mate says were not interested at this point.	The team mate says were not interested at this point.	3511932	1472007811236	1472007811322	m	77
6855	73848	The team mate says were not interested at this point.	The team mate says were not interested at this point.	3511937	1472007811698	1472007811864	BKSP	8
6855	73848	The team mate says were not interested at this point.	The team mate says were not interested at this point.	3511943	1472007812524	1472007812631	n	78
6855	73848	The team mate says were not interested at this point.	The team mate says were not interested at this point.	3511946	1472007812918	1472007813041	o	79
6855	73848	The team mate says were not interested at this point.	The team mate says were not interested at this point.	3511949	1472007813079	1472007813172	t	84
6855	73848	The team mate says were not interested at this point.	The team mate says were not interested at this point.	3511952	1472007813204	1472007813343	 	32
6855	73848	The team mate says were not interested at this point.	The team mate says were not interested at this point.	3512121	1472007814015	1472007814128	i	73
6855	73848	The team mate says were not interested at this point.	The team mate says were not interested at this point.	3512125	1472007814271	1472007814341	b	78
6855	73848	The team mate says were not interested at this point.	The team mate says were not interested at this point.	3512131	1472007814988	1472007815068	BKSP	8
6855	73848	The team mate says were not interested at this point.	The team mate says were not interested at this point.	3512137	1472007815832	1472007815921	t	84
6855	73848	The team mate says were not interested at this point.	The team mate says were not interested at this point.	3512141	1472007815990	1472007816079	e	69
6855	73848	The team mate says were not interested at this point.	The team mate says were not interested at this point.	3512327	1472007816204	1472007816302	r	82
6855	73848	The team mate says were not interested at this point.	The team mate says were not interested at this point.	3512329	1472007817503	1472007817592	e	69
6855	73848	The team mate says were not interested at this point.	The team mate says were not interested at this point.	3512332	1472007817980	1472007818097	s	83
6855	73848	The team mate says were not interested at this point.	The team mate says were not interested at this point.	3512333	1472007818331	1472007818439	t	84
6855	73848	The team mate says were not interested at this point.	The team mate says were not interested at this point.	3512335	1472007818679	1472007818796	e	69
6855	73848	The team mate says were not interested at this point.	The team mate says were not interested at this point.	3512524	1472007819000	1472007819102	d	68
6855	73848	The team mate says were not interested at this point.	The team mate says were not interested at this point.	3512528	1472007819137	1472007819239	 	32
6855	73848	The team mate says were not interested at this point.	The team mate says were not interested at this point.	3512534	1472007819899	1472007820013	a	65
6855	73848	The team mate says were not interested at this point.	The team mate says were not interested at this point.	3512537	1472007820073	1472007820159	t	84
6855	73848	The team mate says were not interested at this point.	The team mate says were not interested at this point.	3512540	1472007822016	1472007822154	 	32
6855	73848	The team mate says were not interested at this point.	The team mate says were not interested at this point.	3512674	1472007822327	1472007822413	t	84
6855	73848	The team mate says were not interested at this point.	The team mate says were not interested at this point.	3512676	1472007822503	1472007822615	h	72
6855	73848	The team mate says were not interested at this point.	The team mate says were not interested at this point.	3512678	1472007823314	1472007823425	i	73
6855	73848	The team mate says were not interested at this point.	The team mate says were not interested at this point.	3512685	1472007823438	1472007823571	d	68
6855	73848	The team mate says were not interested at this point.	The team mate says were not interested at this point.	3512692	1472007824081	1472007824195	BKSP	8
6855	73848	The team mate says were not interested at this point.	The team mate says were not interested at this point.	3512700	1472007824591	1472007824671	d	68
6855	73848	The team mate says were not interested at this point.	The team mate says were not interested at this point.	3512850	1472007825181	1472007825279	BKSP	8
6855	73848	The team mate says were not interested at this point.	The team mate says were not interested at this point.	3512853	1472007825483	1472007825582	s	83
6855	73848	The team mate says were not interested at this point.	The team mate says were not interested at this point.	3512858	1472007825635	1472007825755	 	32
6855	73848	The team mate says were not interested at this point.	The team mate says were not interested at this point.	3512863	1472007826232	1472007826324	p	80
6855	73848	The team mate says were not interested at this point.	The team mate says were not interested at this point.	3512870	1472007826460	1472007826550	o	79
6855	73848	The team mate says were not interested at this point.	The team mate says were not interested at this point.	3512876	1472007827096	1472007827201	i	73
6855	73848	The team mate says were not interested at this point.	The team mate says were not interested at this point.	3513015	1472007827680	1472007827754	n	78
6855	73848	The team mate says were not interested at this point.	The team mate says were not interested at this point.	3513021	1472007827835	1472007827933	t	84
6855	73848	The team mate says were not interested at this point.	The team mate says were not interested at this point.	3513025	1472007828676	1472007828749	.	190
6855	73894	Add a Star Trek convention and sports memorabilia show to the mix.	Add a Star Trek convention and sports memorabilia show to the mix.	3513299	1472007831661	1472007832043	SHIFT	16
6855	73894	Add a Star Trek convention and sports memorabilia show to the mix.	Add a Star Trek convention and sports memorabilia show to the mix.	3513297	1472007831826	1472007831920	A	65
6855	73894	Add a Star Trek convention and sports memorabilia show to the mix.	Add a Star Trek convention and sports memorabilia show to the mix.	3513304	1472007832409	1472007832489	d	68
6855	73894	Add a Star Trek convention and sports memorabilia show to the mix.	Add a Star Trek convention and sports memorabilia show to the mix.	3513313	1472007832598	1472007832681	d	68
6855	73894	Add a Star Trek convention and sports memorabilia show to the mix.	Add a Star Trek convention and sports memorabilia show to the mix.	3513317	1472007832863	1472007832943	 	32
6855	73894	Add a Star Trek convention and sports memorabilia show to the mix.	Add a Star Trek convention and sports memorabilia show to the mix.	3513325	1472007833189	1472007833279	a	65
6855	73894	Add a Star Trek convention and sports memorabilia show to the mix.	Add a Star Trek convention and sports memorabilia show to the mix.	3513499	1472007833746	1472007833830	 	32
6855	73894	Add a Star Trek convention and sports memorabilia show to the mix.	Add a Star Trek convention and sports memorabilia show to the mix.	3513505	1472007834256	1472007834620	SHIFT	16
6855	73894	Add a Star Trek convention and sports memorabilia show to the mix.	Add a Star Trek convention and sports memorabilia show to the mix.	3513501	1472007834412	1472007834518	S	83
6855	73894	Add a Star Trek convention and sports memorabilia show to the mix.	Add a Star Trek convention and sports memorabilia show to the mix.	3513509	1472007835438	1472007835540	t	84
6855	73894	Add a Star Trek convention and sports memorabilia show to the mix.	Add a Star Trek convention and sports memorabilia show to the mix.	3513513	1472007835606	1472007835693	a	65
6855	73894	Add a Star Trek convention and sports memorabilia show to the mix.	Add a Star Trek convention and sports memorabilia show to the mix.	3513517	1472007835948	1472007836034	r	82
6855	73894	Add a Star Trek convention and sports memorabilia show to the mix.	Add a Star Trek convention and sports memorabilia show to the mix.	3513652	1472007836103	1472007836186	 	32
6855	73894	Add a Star Trek convention and sports memorabilia show to the mix.	Add a Star Trek convention and sports memorabilia show to the mix.	3513658	1472007836681	1472007837373	SHIFT	16
6855	73894	Add a Star Trek convention and sports memorabilia show to the mix.	Add a Star Trek convention and sports memorabilia show to the mix.	3513656	1472007837237	1472007837330	T	84
6855	73894	Add a Star Trek convention and sports memorabilia show to the mix.	Add a Star Trek convention and sports memorabilia show to the mix.	3513666	1472007837929	1472007838061	r	82
6855	73894	Add a Star Trek convention and sports memorabilia show to the mix.	Add a Star Trek convention and sports memorabilia show to the mix.	3513672	1472007838375	1472007838464	e	69
6855	73894	Add a Star Trek convention and sports memorabilia show to the mix.	Add a Star Trek convention and sports memorabilia show to the mix.	3513679	1472007838540	1472007838641	k	75
6855	73894	Add a Star Trek convention and sports memorabilia show to the mix.	Add a Star Trek convention and sports memorabilia show to the mix.	3513901	1472007839365	1472007839467	 	32
6855	73894	Add a Star Trek convention and sports memorabilia show to the mix.	Add a Star Trek convention and sports memorabilia show to the mix.	3513906	1472007839753	1472007839854	c	67
6855	73894	Add a Star Trek convention and sports memorabilia show to the mix.	Add a Star Trek convention and sports memorabilia show to the mix.	3513914	1472007839936	1472007840031	o	79
6855	73894	Add a Star Trek convention and sports memorabilia show to the mix.	Add a Star Trek convention and sports memorabilia show to the mix.	3513918	1472007840752	1472007840841	n	78
6855	73894	Add a Star Trek convention and sports memorabilia show to the mix.	Add a Star Trek convention and sports memorabilia show to the mix.	3513920	1472007841871	1472007841951	v	86
6855	73894	Add a Star Trek convention and sports memorabilia show to the mix.	Add a Star Trek convention and sports memorabilia show to the mix.	3513986	1472007842060	1472007842146	e	69
6855	73894	Add a Star Trek convention and sports memorabilia show to the mix.	Add a Star Trek convention and sports memorabilia show to the mix.	3513994	1472007842331	1472007842418	n	78
6855	73894	Add a Star Trek convention and sports memorabilia show to the mix.	Add a Star Trek convention and sports memorabilia show to the mix.	3514000	1472007842548	1472007842640	t	84
6855	73894	Add a Star Trek convention and sports memorabilia show to the mix.	Add a Star Trek convention and sports memorabilia show to the mix.	3514006	1472007842832	1472007842946	i	73
6855	73894	Add a Star Trek convention and sports memorabilia show to the mix.	Add a Star Trek convention and sports memorabilia show to the mix.	3514011	1472007843061	1472007843162	o	79
6855	73894	Add a Star Trek convention and sports memorabilia show to the mix.	Add a Star Trek convention and sports memorabilia show to the mix.	3514109	1472007843338	1472007843428	n	78
6855	73894	Add a Star Trek convention and sports memorabilia show to the mix.	Add a Star Trek convention and sports memorabilia show to the mix.	3514111	1472007843650	1472007843748	 	32
6855	73894	Add a Star Trek convention and sports memorabilia show to the mix.	Add a Star Trek convention and sports memorabilia show to the mix.	3514114	1472007844503	1472007844608	a	65
6855	73894	Add a Star Trek convention and sports memorabilia show to the mix.	Add a Star Trek convention and sports memorabilia show to the mix.	3514116	1472007844711	1472007844806	n	78
6855	73894	Add a Star Trek convention and sports memorabilia show to the mix.	Add a Star Trek convention and sports memorabilia show to the mix.	3514119	1472007844988	1472007845084	d	68
6855	73894	Add a Star Trek convention and sports memorabilia show to the mix.	Add a Star Trek convention and sports memorabilia show to the mix.	3514190	1472007845159	1472007845251	 	32
6855	73894	Add a Star Trek convention and sports memorabilia show to the mix.	Add a Star Trek convention and sports memorabilia show to the mix.	3514196	1472007845888	1472007845976	s	83
6855	73894	Add a Star Trek convention and sports memorabilia show to the mix.	Add a Star Trek convention and sports memorabilia show to the mix.	3514200	1472007846060	1472007846177	p	80
6855	73894	Add a Star Trek convention and sports memorabilia show to the mix.	Add a Star Trek convention and sports memorabilia show to the mix.	3514208	1472007846292	1472007846387	o	79
6855	73894	Add a Star Trek convention and sports memorabilia show to the mix.	Add a Star Trek convention and sports memorabilia show to the mix.	3514212	1472007846625	1472007846745	r	82
6855	73894	Add a Star Trek convention and sports memorabilia show to the mix.	Add a Star Trek convention and sports memorabilia show to the mix.	3514351	1472007846930	1472007847029	t	84
6855	73894	Add a Star Trek convention and sports memorabilia show to the mix.	Add a Star Trek convention and sports memorabilia show to the mix.	3514359	1472007847300	1472007847398	s	83
6855	73894	Add a Star Trek convention and sports memorabilia show to the mix.	Add a Star Trek convention and sports memorabilia show to the mix.	3514364	1472007847470	1472007847556	 	32
6855	73894	Add a Star Trek convention and sports memorabilia show to the mix.	Add a Star Trek convention and sports memorabilia show to the mix.	3514369	1472007848363	1472007848445	m	77
6855	73894	Add a Star Trek convention and sports memorabilia show to the mix.	Add a Star Trek convention and sports memorabilia show to the mix.	3514375	1472007848585	1472007848650	e	69
6855	73894	Add a Star Trek convention and sports memorabilia show to the mix.	Add a Star Trek convention and sports memorabilia show to the mix.	3514612	1472007848973	1472007849075	m	77
6855	73894	Add a Star Trek convention and sports memorabilia show to the mix.	Add a Star Trek convention and sports memorabilia show to the mix.	3514616	1472007849474	1472007849582	o	79
6855	73894	Add a Star Trek convention and sports memorabilia show to the mix.	Add a Star Trek convention and sports memorabilia show to the mix.	3514621	1472007849721	1472007849826	e	69
6855	73894	Add a Star Trek convention and sports memorabilia show to the mix.	Add a Star Trek convention and sports memorabilia show to the mix.	3514629	1472007850198	1472007850303	BKSP	8
6855	73894	Add a Star Trek convention and sports memorabilia show to the mix.	Add a Star Trek convention and sports memorabilia show to the mix.	3514634	1472007850440	1472007850525	r	82
6855	73894	Add a Star Trek convention and sports memorabilia show to the mix.	Add a Star Trek convention and sports memorabilia show to the mix.	3514640	1472007851754	1472007851875	a	65
6855	73894	Add a Star Trek convention and sports memorabilia show to the mix.	Add a Star Trek convention and sports memorabilia show to the mix.	3514810	1472007852091	1472007852192	b	66
6855	73894	Add a Star Trek convention and sports memorabilia show to the mix.	Add a Star Trek convention and sports memorabilia show to the mix.	3514813	1472007852506	1472007852623	i	73
6855	73894	Add a Star Trek convention and sports memorabilia show to the mix.	Add a Star Trek convention and sports memorabilia show to the mix.	3514817	1472007852897	1472007852977	l	76
6855	73894	Add a Star Trek convention and sports memorabilia show to the mix.	Add a Star Trek convention and sports memorabilia show to the mix.	3514824	1472007854133	1472007854197	y	89
6855	73894	Add a Star Trek convention and sports memorabilia show to the mix.	Add a Star Trek convention and sports memorabilia show to the mix.	3514830	1472007854618	1472007854726	BKSP	8
6855	73894	Add a Star Trek convention and sports memorabilia show to the mix.	Add a Star Trek convention and sports memorabilia show to the mix.	3514836	1472007854939	1472007855025	i	73
6855	73894	Add a Star Trek convention and sports memorabilia show to the mix.	Add a Star Trek convention and sports memorabilia show to the mix.	3515022	1472007856055	1472007856135	a	65
6855	73894	Add a Star Trek convention and sports memorabilia show to the mix.	Add a Star Trek convention and sports memorabilia show to the mix.	3515024	1472007856360	1472007856437	 	32
6855	73894	Add a Star Trek convention and sports memorabilia show to the mix.	Add a Star Trek convention and sports memorabilia show to the mix.	3515029	1472007857501	1472007857600	s	83
6855	73894	Add a Star Trek convention and sports memorabilia show to the mix.	Add a Star Trek convention and sports memorabilia show to the mix.	3515035	1472007857717	1472007857825	h	72
6855	73894	Add a Star Trek convention and sports memorabilia show to the mix.	Add a Star Trek convention and sports memorabilia show to the mix.	3515040	1472007858047	1472007858161	o	79
6855	73894	Add a Star Trek convention and sports memorabilia show to the mix.	Add a Star Trek convention and sports memorabilia show to the mix.	3515144	1472007858279	1472007858387	w	87
6855	73894	Add a Star Trek convention and sports memorabilia show to the mix.	Add a Star Trek convention and sports memorabilia show to the mix.	3515151	1472007858462	1472007858561	 	32
6855	73894	Add a Star Trek convention and sports memorabilia show to the mix.	Add a Star Trek convention and sports memorabilia show to the mix.	3515156	1472007859615	1472007859717	t	84
6855	73894	Add a Star Trek convention and sports memorabilia show to the mix.	Add a Star Trek convention and sports memorabilia show to the mix.	3515160	1472007859783	1472007859887	o	79
6855	73894	Add a Star Trek convention and sports memorabilia show to the mix.	Add a Star Trek convention and sports memorabilia show to the mix.	3515166	1472007860027	1472007860144	 	32
6855	73894	Add a Star Trek convention and sports memorabilia show to the mix.	Add a Star Trek convention and sports memorabilia show to the mix.	3515247	1472007860445	1472007860528	t	84
6855	73894	Add a Star Trek convention and sports memorabilia show to the mix.	Add a Star Trek convention and sports memorabilia show to the mix.	3515251	1472007860607	1472007860718	h	72
6855	73894	Add a Star Trek convention and sports memorabilia show to the mix.	Add a Star Trek convention and sports memorabilia show to the mix.	3515256	1472007860888	1472007860930	r	82
6855	73894	Add a Star Trek convention and sports memorabilia show to the mix.	Add a Star Trek convention and sports memorabilia show to the mix.	3515259	1472007861508	1472007861612	BKSP	8
6855	73894	Add a Star Trek convention and sports memorabilia show to the mix.	Add a Star Trek convention and sports memorabilia show to the mix.	3515263	1472007861651	1472007861752	e	69
6855	73894	Add a Star Trek convention and sports memorabilia show to the mix.	Add a Star Trek convention and sports memorabilia show to the mix.	3515267	1472007861843	1472007861947	 	32
6855	73894	Add a Star Trek convention and sports memorabilia show to the mix.	Add a Star Trek convention and sports memorabilia show to the mix.	3515366	1472007862527	1472007862623	m	77
6855	73894	Add a Star Trek convention and sports memorabilia show to the mix.	Add a Star Trek convention and sports memorabilia show to the mix.	3515369	1472007862765	1472007862855	i	73
6855	73894	Add a Star Trek convention and sports memorabilia show to the mix.	Add a Star Trek convention and sports memorabilia show to the mix.	3515375	1472007863077	1472007863175	x	88
6855	73894	Add a Star Trek convention and sports memorabilia show to the mix.	Add a Star Trek convention and sports memorabilia show to the mix.	3515379	1472007863406	1472007863499	.	190
6855	73944	It will also protect the interest of the businessman.	It will also protect the interest of the businessman.	3515756	1472007866692	1472007867111	SHIFT	16
6855	73944	It will also protect the interest of the businessman.	It will also protect the interest of the businessman.	3515754	1472007866897	1472007866991	T	84
6855	73944	It will also protect the interest of the businessman.	It will also protect the interest of the businessman.	3515759	1472007867449	1472007867548	BKSP	8
6855	73944	It will also protect the interest of the businessman.	It will also protect the interest of the businessman.	3515766	1472007868275	1472007868632	SHIFT	16
6855	73944	It will also protect the interest of the businessman.	It will also protect the interest of the businessman.	3515762	1472007868493	1472007868583	I	73
6855	73944	It will also protect the interest of the businessman.	It will also protect the interest of the businessman.	3515771	1472007869117	1472007869188	t	84
6855	73944	It will also protect the interest of the businessman.	It will also protect the interest of the businessman.	3515776	1472007869275	1472007869368	 	32
6855	73944	It will also protect the interest of the businessman.	It will also protect the interest of the businessman.	3515782	1472007870113	1472007870205	w	87
6855	73944	It will also protect the interest of the businessman.	It will also protect the interest of the businessman.	3515874	1472007870354	1472007870456	i	73
6855	73944	It will also protect the interest of the businessman.	It will also protect the interest of the businessman.	3515876	1472007870737	1472007870844	l	76
6855	73944	It will also protect the interest of the businessman.	It will also protect the interest of the businessman.	3515880	1472007870925	1472007871020	l	76
6855	73944	It will also protect the interest of the businessman.	It will also protect the interest of the businessman.	3515882	1472007871166	1472007871264	 	32
6855	73944	It will also protect the interest of the businessman.	It will also protect the interest of the businessman.	3515885	1472007871664	1472007871760	a	65
6855	73944	It will also protect the interest of the businessman.	It will also protect the interest of the businessman.	3515983	1472007871817	1472007871934	l	76
6855	73944	It will also protect the interest of the businessman.	It will also protect the interest of the businessman.	3515986	1472007872033	1472007872141	s	83
6855	73944	It will also protect the interest of the businessman.	It will also protect the interest of the businessman.	3515990	1472007872238	1472007872324	o	79
6855	73944	It will also protect the interest of the businessman.	It will also protect the interest of the businessman.	3515997	1472007872482	1472007872586	 	32
6855	73944	It will also protect the interest of the businessman.	It will also protect the interest of the businessman.	3516002	1472007873417	1472007873525	p	80
6855	73944	It will also protect the interest of the businessman.	It will also protect the interest of the businessman.	3516110	1472007873643	1472007873754	r	82
6855	73944	It will also protect the interest of the businessman.	It will also protect the interest of the businessman.	3516115	1472007873909	1472007874007	o	79
6855	73944	It will also protect the interest of the businessman.	It will also protect the interest of the businessman.	3516119	1472007874220	1472007874309	t	84
6855	73944	It will also protect the interest of the businessman.	It will also protect the interest of the businessman.	3516122	1472007874638	1472007874731	e	69
6855	73944	It will also protect the interest of the businessman.	It will also protect the interest of the businessman.	3516125	1472007875084	1472007875204	c	67
6855	73944	It will also protect the interest of the businessman.	It will also protect the interest of the businessman.	3516171	1472007875509	1472007875592	t	84
6855	73944	It will also protect the interest of the businessman.	It will also protect the interest of the businessman.	3516173	1472007875637	1472007875711	 	32
6855	73944	It will also protect the interest of the businessman.	It will also protect the interest of the businessman.	3516178	1472007876373	1472007876475	t	84
6855	73944	It will also protect the interest of the businessman.	It will also protect the interest of the businessman.	3516184	1472007876526	1472007876603	h	72
6855	73944	It will also protect the interest of the businessman.	It will also protect the interest of the businessman.	3516188	1472007876761	1472007876877	e	69
6855	73944	It will also protect the interest of the businessman.	It will also protect the interest of the businessman.	3516310	1472007876949	1472007877066	 	32
6855	73944	It will also protect the interest of the businessman.	It will also protect the interest of the businessman.	3516316	1472007877891	1472007877981	i	73
6855	73944	It will also protect the interest of the businessman.	It will also protect the interest of the businessman.	3516321	1472007878093	1472007878188	n	78
6855	73944	It will also protect the interest of the businessman.	It will also protect the interest of the businessman.	3516328	1472007878502	1472007878600	t	84
6855	73944	It will also protect the interest of the businessman.	It will also protect the interest of the businessman.	3516331	1472007878847	1472007878936	e	69
6855	73944	It will also protect the interest of the businessman.	It will also protect the interest of the businessman.	3516502	1472007879039	1472007879131	r	82
6855	73944	It will also protect the interest of the businessman.	It will also protect the interest of the businessman.	3516509	1472007880311	1472007880385	e	69
6855	73944	It will also protect the interest of the businessman.	It will also protect the interest of the businessman.	3516515	1472007880622	1472007880727	s	83
6855	73944	It will also protect the interest of the businessman.	It will also protect the interest of the businessman.	3516522	1472007881353	1472007881464	t	84
6855	73944	It will also protect the interest of the businessman.	It will also protect the interest of the businessman.	3516532	1472007881517	1472007881607	 	32
6855	73944	It will also protect the interest of the businessman.	It will also protect the interest of the businessman.	3516851	1472007883200	1472007883332	o	79
6855	73944	It will also protect the interest of the businessman.	It will also protect the interest of the businessman.	3516853	1472007884417	1472007884580	f	70
6855	73944	It will also protect the interest of the businessman.	It will also protect the interest of the businessman.	3516856	1472007885243	1472007885369	 	32
6855	73944	It will also protect the interest of the businessman.	It will also protect the interest of the businessman.	3516859	1472007887603	1472007887701	t	84
6855	73944	It will also protect the interest of the businessman.	It will also protect the interest of the businessman.	3516862	1472007887745	1472007887822	h	72
6855	73944	It will also protect the interest of the businessman.	It will also protect the interest of the businessman.	3516970	1472007888035	1472007888161	e	69
6855	73944	It will also protect the interest of the businessman.	It will also protect the interest of the businessman.	3516973	1472007888236	1472007888347	 	32
6855	73944	It will also protect the interest of the businessman.	It will also protect the interest of the businessman.	3516977	1472007889175	1472007889277	b	66
6855	73944	It will also protect the interest of the businessman.	It will also protect the interest of the businessman.	3516983	1472007889480	1472007889594	u	85
6855	73944	It will also protect the interest of the businessman.	It will also protect the interest of the businessman.	3516989	1472007889921	1472007890007	s	83
6855	73944	It will also protect the interest of the businessman.	It will also protect the interest of the businessman.	3517113	1472007890073	1472007890224	i	73
6855	73944	It will also protect the interest of the businessman.	It will also protect the interest of the businessman.	3517118	1472007891254	1472007891334	n	78
6855	73944	It will also protect the interest of the businessman.	It will also protect the interest of the businessman.	3517121	1472007891473	1472007891568	e	69
6855	73944	It will also protect the interest of the businessman.	It will also protect the interest of the businessman.	3517124	1472007891815	1472007891913	s	83
6855	73944	It will also protect the interest of the businessman.	It will also protect the interest of the businessman.	3517128	1472007891992	1472007892072	s	83
6855	73944	It will also protect the interest of the businessman.	It will also protect the interest of the businessman.	3517426	1472007892165	1472007892288	 	32
6855	73944	It will also protect the interest of the businessman.	It will also protect the interest of the businessman.	3517429	1472007892988	1472007893145	BKSP	8
6855	73944	It will also protect the interest of the businessman.	It will also protect the interest of the businessman.	3517436	1472007894065	1472007894154	m	77
6855	73944	It will also protect the interest of the businessman.	It will also protect the interest of the businessman.	3517440	1472007894186	1472007894282	a	65
6855	73944	It will also protect the interest of the businessman.	It will also protect the interest of the businessman.	3517445	1472007895771	1472007895839	n	78
6855	73944	It will also protect the interest of the businessman.	It will also protect the interest of the businessman.	3517453	1472007896300	1472007896382	.	190
6855	73986	South Korea will send two escort destroyers and men for the maneuvers.	South Korea will send two escort destroyers and men for the maneuvers.	3517678	1472007898776	1472007899137	SHIFT	16
6855	73986	South Korea will send two escort destroyers and men for the maneuvers.	South Korea will send two escort destroyers and men for the maneuvers.	3517673	1472007898967	1472007899069	S	83
6855	73986	South Korea will send two escort destroyers and men for the maneuvers.	South Korea will send two escort destroyers and men for the maneuvers.	3517683	1472007899396	1472007899504	o	79
6855	73986	South Korea will send two escort destroyers and men for the maneuvers.	South Korea will send two escort destroyers and men for the maneuvers.	3517687	1472007899799	1472007899910	u	85
6855	73986	South Korea will send two escort destroyers and men for the maneuvers.	South Korea will send two escort destroyers and men for the maneuvers.	3517694	1472007899976	1472007900083	t	84
6855	73986	South Korea will send two escort destroyers and men for the maneuvers.	South Korea will send two escort destroyers and men for the maneuvers.	3517701	1472007900101	1472007900187	h	72
6855	73986	South Korea will send two escort destroyers and men for the maneuvers.	South Korea will send two escort destroyers and men for the maneuvers.	3517789	1472007900409	1472007900538	 	32
6855	73986	South Korea will send two escort destroyers and men for the maneuvers.	South Korea will send two escort destroyers and men for the maneuvers.	3517796	1472007900935	1472007901363	SHIFT	16
6855	73986	South Korea will send two escort destroyers and men for the maneuvers.	South Korea will send two escort destroyers and men for the maneuvers.	3517792	1472007901242	1472007901336	K	75
6855	73986	South Korea will send two escort destroyers and men for the maneuvers.	South Korea will send two escort destroyers and men for the maneuvers.	3517802	1472007901613	1472007901699	o	79
6855	73986	South Korea will send two escort destroyers and men for the maneuvers.	South Korea will send two escort destroyers and men for the maneuvers.	3517807	1472007902028	1472007902136	r	82
6855	73986	South Korea will send two escort destroyers and men for the maneuvers.	South Korea will send two escort destroyers and men for the maneuvers.	3517811	1472007902266	1472007902352	e	69
6855	73986	South Korea will send two escort destroyers and men for the maneuvers.	South Korea will send two escort destroyers and men for the maneuvers.	3517911	1472007902639	1472007902734	a	65
6855	73986	South Korea will send two escort destroyers and men for the maneuvers.	South Korea will send two escort destroyers and men for the maneuvers.	3517921	1472007902797	1472007902902	 	32
6855	73986	South Korea will send two escort destroyers and men for the maneuvers.	South Korea will send two escort destroyers and men for the maneuvers.	3517929	1472007903690	1472007903730	w	87
6855	73986	South Korea will send two escort destroyers and men for the maneuvers.	South Korea will send two escort destroyers and men for the maneuvers.	3517935	1472007903805	1472007903891	w	87
6855	73986	South Korea will send two escort destroyers and men for the maneuvers.	South Korea will send two escort destroyers and men for the maneuvers.	3517939	1472007904083	1472007904197	i	73
6855	73986	South Korea will send two escort destroyers and men for the maneuvers.	South Korea will send two escort destroyers and men for the maneuvers.	3518141	1472007904731	1472007904845	BKSP	8
6855	73986	South Korea will send two escort destroyers and men for the maneuvers.	South Korea will send two escort destroyers and men for the maneuvers.	3518142	1472007905070	1472007905147	BKSP	8
6855	73986	South Korea will send two escort destroyers and men for the maneuvers.	South Korea will send two escort destroyers and men for the maneuvers.	3518143	1472007905791	1472007905865	i	73
6855	73986	South Korea will send two escort destroyers and men for the maneuvers.	South Korea will send two escort destroyers and men for the maneuvers.	3518144	1472007906088	1472007906192	l	76
6855	73986	South Korea will send two escort destroyers and men for the maneuvers.	South Korea will send two escort destroyers and men for the maneuvers.	3518145	1472007906267	1472007906356	l	76
6855	73986	South Korea will send two escort destroyers and men for the maneuvers.	South Korea will send two escort destroyers and men for the maneuvers.	3518146	1472007906496	1472007906600	 	32
6855	73986	South Korea will send two escort destroyers and men for the maneuvers.	South Korea will send two escort destroyers and men for the maneuvers.	3518147	1472007907141	1472007907245	s	83
6855	73986	South Korea will send two escort destroyers and men for the maneuvers.	South Korea will send two escort destroyers and men for the maneuvers.	3518391	1472007907284	1472007907391	o	79
6855	73986	South Korea will send two escort destroyers and men for the maneuvers.	South Korea will send two escort destroyers and men for the maneuvers.	3518396	1472007907620	1472007907715	n	78
6855	73986	South Korea will send two escort destroyers and men for the maneuvers.	South Korea will send two escort destroyers and men for the maneuvers.	3518403	1472007908246	1472007908342	d	68
6855	73986	South Korea will send two escort destroyers and men for the maneuvers.	South Korea will send two escort destroyers and men for the maneuvers.	3518408	1472007908417	1472007908506	 	32
6855	73986	South Korea will send two escort destroyers and men for the maneuvers.	South Korea will send two escort destroyers and men for the maneuvers.	3518411	1472007909212	1472007909316	BKSP	8
6855	73986	South Korea will send two escort destroyers and men for the maneuvers.	South Korea will send two escort destroyers and men for the maneuvers.	3518412	1472007909407	1472007909493	BKSP	8
6855	73986	South Korea will send two escort destroyers and men for the maneuvers.	South Korea will send two escort destroyers and men for the maneuvers.	3518413	1472007909577	1472007909676	BKSP	8
6855	73986	South Korea will send two escort destroyers and men for the maneuvers.	South Korea will send two escort destroyers and men for the maneuvers.	3518414	1472007909748	1472007909846	BKSP	8
6855	73986	South Korea will send two escort destroyers and men for the maneuvers.	South Korea will send two escort destroyers and men for the maneuvers.	3518415	1472007910414	1472007910510	e	69
6855	73986	South Korea will send two escort destroyers and men for the maneuvers.	South Korea will send two escort destroyers and men for the maneuvers.	3518526	1472007910625	1472007910708	n	78
6855	73986	South Korea will send two escort destroyers and men for the maneuvers.	South Korea will send two escort destroyers and men for the maneuvers.	3518531	1472007910973	1472007911068	d	68
6855	73986	South Korea will send two escort destroyers and men for the maneuvers.	South Korea will send two escort destroyers and men for the maneuvers.	3518534	1472007911134	1472007911242	 	32
6855	73986	South Korea will send two escort destroyers and men for the maneuvers.	South Korea will send two escort destroyers and men for the maneuvers.	3518539	1472007911935	1472007912031	t	84
6855	73986	South Korea will send two escort destroyers and men for the maneuvers.	South Korea will send two escort destroyers and men for the maneuvers.	3518542	1472007912390	1472007912498	w	87
6855	73986	South Korea will send two escort destroyers and men for the maneuvers.	South Korea will send two escort destroyers and men for the maneuvers.	3518641	1472007912573	1472007912696	o	79
6855	73986	South Korea will send two escort destroyers and men for the maneuvers.	South Korea will send two escort destroyers and men for the maneuvers.	3518644	1472007912873	1472007912993	 	32
6855	73986	South Korea will send two escort destroyers and men for the maneuvers.	South Korea will send two escort destroyers and men for the maneuvers.	3518648	1472007913533	1472007913638	e	69
6855	73986	South Korea will send two escort destroyers and men for the maneuvers.	South Korea will send two escort destroyers and men for the maneuvers.	3518651	1472007914053	1472007914154	s	83
6855	73986	South Korea will send two escort destroyers and men for the maneuvers.	South Korea will send two escort destroyers and men for the maneuvers.	3518654	1472007914349	1472007914475	c	67
6855	73986	South Korea will send two escort destroyers and men for the maneuvers.	South Korea will send two escort destroyers and men for the maneuvers.	3518758	1472007914718	1472007914851	o	79
6855	73986	South Korea will send two escort destroyers and men for the maneuvers.	South Korea will send two escort destroyers and men for the maneuvers.	3518762	1472007915229	1472007915343	r	82
6855	73986	South Korea will send two escort destroyers and men for the maneuvers.	South Korea will send two escort destroyers and men for the maneuvers.	3518765	1472007915467	1472007915572	t	84
6855	73986	South Korea will send two escort destroyers and men for the maneuvers.	South Korea will send two escort destroyers and men for the maneuvers.	3518766	1472007915656	1472007915754	 	32
6855	73986	South Korea will send two escort destroyers and men for the maneuvers.	South Korea will send two escort destroyers and men for the maneuvers.	3518767	1472007916586	1472007916685	d	68
6855	73986	South Korea will send two escort destroyers and men for the maneuvers.	South Korea will send two escort destroyers and men for the maneuvers.	3518859	1472007916814	1472007916922	e	69
6855	73986	South Korea will send two escort destroyers and men for the maneuvers.	South Korea will send two escort destroyers and men for the maneuvers.	3518860	1472007917089	1472007917185	s	83
6855	73986	South Korea will send two escort destroyers and men for the maneuvers.	South Korea will send two escort destroyers and men for the maneuvers.	3518861	1472007918009	1472007918108	t	84
6855	73986	South Korea will send two escort destroyers and men for the maneuvers.	South Korea will send two escort destroyers and men for the maneuvers.	3518862	1472007918253	1472007918358	r	82
6855	73986	South Korea will send two escort destroyers and men for the maneuvers.	South Korea will send two escort destroyers and men for the maneuvers.	3518863	1472007918458	1472007918565	o	79
6855	73986	South Korea will send two escort destroyers and men for the maneuvers.	South Korea will send two escort destroyers and men for the maneuvers.	3518971	1472007918925	1472007919015	y	89
6855	73986	South Korea will send two escort destroyers and men for the maneuvers.	South Korea will send two escort destroyers and men for the maneuvers.	3518974	1472007919717	1472007919816	e	69
6855	73986	South Korea will send two escort destroyers and men for the maneuvers.	South Korea will send two escort destroyers and men for the maneuvers.	3518981	1472007920169	1472007920277	r	82
6855	73986	South Korea will send two escort destroyers and men for the maneuvers.	South Korea will send two escort destroyers and men for the maneuvers.	3518986	1472007920530	1472007920671	s	83
6855	73986	South Korea will send two escort destroyers and men for the maneuvers.	South Korea will send two escort destroyers and men for the maneuvers.	3518992	1472007920747	1472007920842	 	32
6855	73986	South Korea will send two escort destroyers and men for the maneuvers.	South Korea will send two escort destroyers and men for the maneuvers.	3519126	1472007921541	1472007921646	a	65
6855	73986	South Korea will send two escort destroyers and men for the maneuvers.	South Korea will send two escort destroyers and men for the maneuvers.	3519131	1472007921719	1472007921802	n	78
6855	73986	South Korea will send two escort destroyers and men for the maneuvers.	South Korea will send two escort destroyers and men for the maneuvers.	3519133	1472007922103	1472007922205	d	68
6855	73986	South Korea will send two escort destroyers and men for the maneuvers.	South Korea will send two escort destroyers and men for the maneuvers.	3519135	1472007922289	1472007922375	 	32
6855	73986	South Korea will send two escort destroyers and men for the maneuvers.	South Korea will send two escort destroyers and men for the maneuvers.	3519137	1472007923154	1472007923250	m	77
6855	73986	South Korea will send two escort destroyers and men for the maneuvers.	South Korea will send two escort destroyers and men for the maneuvers.	3519263	1472007923349	1472007923463	e	69
6855	73986	South Korea will send two escort destroyers and men for the maneuvers.	South Korea will send two escort destroyers and men for the maneuvers.	3519267	1472007923759	1472007923842	n	78
6855	73986	South Korea will send two escort destroyers and men for the maneuvers.	South Korea will send two escort destroyers and men for the maneuvers.	3519273	1472007924012	1472007924104	 	32
6855	73986	South Korea will send two escort destroyers and men for the maneuvers.	South Korea will send two escort destroyers and men for the maneuvers.	3519278	1472007925000	1472007925101	f	70
6855	73986	South Korea will send two escort destroyers and men for the maneuvers.	South Korea will send two escort destroyers and men for the maneuvers.	3519282	1472007925167	1472007925269	o	79
6855	73986	South Korea will send two escort destroyers and men for the maneuvers.	South Korea will send two escort destroyers and men for the maneuvers.	3519348	1472007925377	1472007925473	r	82
6855	73986	South Korea will send two escort destroyers and men for the maneuvers.	South Korea will send two escort destroyers and men for the maneuvers.	3519352	1472007925502	1472007925607	 	32
6855	73986	South Korea will send two escort destroyers and men for the maneuvers.	South Korea will send two escort destroyers and men for the maneuvers.	3519356	1472007925804	1472007925965	t	84
6855	73986	South Korea will send two escort destroyers and men for the maneuvers.	South Korea will send two escort destroyers and men for the maneuvers.	3519360	1472007925982	1472007926136	h	72
6855	73986	South Korea will send two escort destroyers and men for the maneuvers.	South Korea will send two escort destroyers and men for the maneuvers.	3519361	1472007926364	1472007926441	e	69
6855	73986	South Korea will send two escort destroyers and men for the maneuvers.	South Korea will send two escort destroyers and men for the maneuvers.	3519610	1472007927098	1472007927190	 	32
6855	73986	South Korea will send two escort destroyers and men for the maneuvers.	South Korea will send two escort destroyers and men for the maneuvers.	3519615	1472007928477	1472007928622	m	77
6855	73986	South Korea will send two escort destroyers and men for the maneuvers.	South Korea will send two escort destroyers and men for the maneuvers.	3519617	1472007929131	1472007929233	a	65
6855	73986	South Korea will send two escort destroyers and men for the maneuvers.	South Korea will send two escort destroyers and men for the maneuvers.	3519620	1472007929287	1472007929373	n	78
6855	73986	South Korea will send two escort destroyers and men for the maneuvers.	South Korea will send two escort destroyers and men for the maneuvers.	3519625	1472007930559	1472007930741	e	69
6855	73986	South Korea will send two escort destroyers and men for the maneuvers.	South Korea will send two escort destroyers and men for the maneuvers.	3519779	1472007930816	1472007930933	u	85
6855	73986	South Korea will send two escort destroyers and men for the maneuvers.	South Korea will send two escort destroyers and men for the maneuvers.	3519784	1472007932542	1472007932640	v	86
6855	73986	South Korea will send two escort destroyers and men for the maneuvers.	South Korea will send two escort destroyers and men for the maneuvers.	3519788	1472007932764	1472007932832	e	69
6855	73986	South Korea will send two escort destroyers and men for the maneuvers.	South Korea will send two escort destroyers and men for the maneuvers.	3519797	1472007933118	1472007933238	r	82
6855	73986	South Korea will send two escort destroyers and men for the maneuvers.	South Korea will send two escort destroyers and men for the maneuvers.	3519804	1472007933564	1472007933650	s	83
6855	73986	South Korea will send two escort destroyers and men for the maneuvers.	South Korea will send two escort destroyers and men for the maneuvers.	3519846	1472007933930	1472007934020	.	190
6855	74029	I'm still learning about the ovals.	I'm still learning about the ovals.	3520134	1472007936756	1472007937104	SHIFT	16
6855	74029	I'm still learning about the ovals.	I'm still learning about the ovals.	3520132	1472007936950	1472007937034	I	73
6855	74029	I'm still learning about the ovals.	I'm still learning about the ovals.	3520137	1472007937736	1472007937832	'	222
6855	74029	I'm still learning about the ovals.	I'm still learning about the ovals.	3520139	1472007938186	1472007938265	m	77
6855	74029	I'm still learning about the ovals.	I'm still learning about the ovals.	3520144	1472007938533	1472007938617	 	32
6855	74029	I'm still learning about the ovals.	I'm still learning about the ovals.	3520149	1472007939215	1472007939301	s	83
6855	74029	I'm still learning about the ovals.	I'm still learning about the ovals.	3520205	1472007939600	1472007939704	t	84
6855	74029	I'm still learning about the ovals.	I'm still learning about the ovals.	3520209	1472007939819	1472007939899	i	73
6855	74029	I'm still learning about the ovals.	I'm still learning about the ovals.	3520213	1472007940124	1472007940217	l	76
6855	74029	I'm still learning about the ovals.	I'm still learning about the ovals.	3520218	1472007940307	1472007940381	l	76
6855	74029	I'm still learning about the ovals.	I'm still learning about the ovals.	3520222	1472007940573	1472007940665	 	32
6855	74029	I'm still learning about the ovals.	I'm still learning about the ovals.	3520386	1472007941165	1472007941261	l	76
6855	74029	I'm still learning about the ovals.	I'm still learning about the ovals.	3520391	1472007941382	1472007941477	e	69
6855	74029	I'm still learning about the ovals.	I'm still learning about the ovals.	3520395	1472007941753	1472007941860	a	65
6855	74029	I'm still learning about the ovals.	I'm still learning about the ovals.	3520398	1472007942424	1472007942523	r	82
6855	74029	I'm still learning about the ovals.	I'm still learning about the ovals.	3520403	1472007942723	1472007942803	n	78
6855	74029	I'm still learning about the ovals.	I'm still learning about the ovals.	3520481	1472007943533	1472007943638	i	73
6855	74029	I'm still learning about the ovals.	I'm still learning about the ovals.	3520486	1472007943738	1472007943833	n	78
6855	74029	I'm still learning about the ovals.	I'm still learning about the ovals.	3520492	1472007943985	1472007944083	g	71
6855	74029	I'm still learning about the ovals.	I'm still learning about the ovals.	3520497	1472007944183	1472007944278	 	32
6855	74029	I'm still learning about the ovals.	I'm still learning about the ovals.	3520504	1472007945195	1472007945303	a	65
6855	74029	I'm still learning about the ovals.	I'm still learning about the ovals.	3520577	1472007945369	1472007945468	b	66
6855	74029	I'm still learning about the ovals.	I'm still learning about the ovals.	3520578	1472007945699	1472007945804	o	79
6855	74029	I'm still learning about the ovals.	I'm still learning about the ovals.	3520580	1472007946014	1472007946091	u	85
6855	74029	I'm still learning about the ovals.	I'm still learning about the ovals.	3520582	1472007946313	1472007946414	t	84
6855	74029	I'm still learning about the ovals.	I'm still learning about the ovals.	3520584	1472007946495	1472007946579	 	32
6855	74029	I'm still learning about the ovals.	I'm still learning about the ovals.	3520674	1472007947067	1472007947171	t	84
6855	74029	I'm still learning about the ovals.	I'm still learning about the ovals.	3520679	1472007947268	1472007947360	h	72
6855	74029	I'm still learning about the ovals.	I'm still learning about the ovals.	3520685	1472007947540	1472007947647	e	69
6855	74029	I'm still learning about the ovals.	I'm still learning about the ovals.	3520689	1472007947729	1472007947827	 	32
6855	74029	I'm still learning about the ovals.	I'm still learning about the ovals.	3520693	1472007948113	1472007948221	o	79
6855	74029	I'm still learning about the ovals.	I'm still learning about the ovals.	3520821	1472007948550	1472007948627	v	86
6855	74029	I'm still learning about the ovals.	I'm still learning about the ovals.	3520824	1472007948954	1472007949068	a	65
6855	74029	I'm still learning about the ovals.	I'm still learning about the ovals.	3520828	1472007949134	1472007949232	l	76
6855	74029	I'm still learning about the ovals.	I'm still learning about the ovals.	3520832	1472007949332	1472007949430	s	83
6855	74029	I'm still learning about the ovals.	I'm still learning about the ovals.	3520838	1472007950347	1472007950424	.	190
6855	74053	He pleaded guilty in February under an agreement with the government.	He pleaded guilty in February under an agreement with the government.	3521110	1472007952929	1472007953292	SHIFT	16
6855	74053	He pleaded guilty in February under an agreement with the government.	He pleaded guilty in February under an agreement with the government.	3521106	1472007953086	1472007953178	H	72
6855	74053	He pleaded guilty in February under an agreement with the government.	He pleaded guilty in February under an agreement with the government.	3521115	1472007953676	1472007953781	e	69
6855	74053	He pleaded guilty in February under an agreement with the government.	He pleaded guilty in February under an agreement with the government.	3521121	1472007953844	1472007953945	 	32
6855	74053	He pleaded guilty in February under an agreement with the government.	He pleaded guilty in February under an agreement with the government.	3521125	1472007954513	1472007954615	p	80
6855	74053	He pleaded guilty in February under an agreement with the government.	He pleaded guilty in February under an agreement with the government.	3521129	1472007954730	1472007954838	l	76
6855	74053	He pleaded guilty in February under an agreement with the government.	He pleaded guilty in February under an agreement with the government.	3521296	1472007955023	1472007955131	a	65
6855	74053	He pleaded guilty in February under an agreement with the government.	He pleaded guilty in February under an agreement with the government.	3521299	1472007955540	1472007955629	e	69
6855	74053	He pleaded guilty in February under an agreement with the government.	He pleaded guilty in February under an agreement with the government.	3521302	1472007956426	1472007956537	d	68
6855	74053	He pleaded guilty in February under an agreement with the government.	He pleaded guilty in February under an agreement with the government.	3521307	1472007957056	1472007957139	BKSP	8
6855	74053	He pleaded guilty in February under an agreement with the government.	He pleaded guilty in February under an agreement with the government.	3521312	1472007957242	1472007957313	BKSP	8
6855	74053	He pleaded guilty in February under an agreement with the government.	He pleaded guilty in February under an agreement with the government.	3521315	1472007957403	1472007957471	BKSP	8
6855	74053	He pleaded guilty in February under an agreement with the government.	He pleaded guilty in February under an agreement with the government.	3521320	1472007958464	1472007958569	e	69
6855	74053	He pleaded guilty in February under an agreement with the government.	He pleaded guilty in February under an agreement with the government.	3521324	1472007958821	1472007958930	a	65
6855	74053	He pleaded guilty in February under an agreement with the government.	He pleaded guilty in February under an agreement with the government.	3521593	1472007961294	1472007961386	d	68
6855	74053	He pleaded guilty in February under an agreement with the government.	He pleaded guilty in February under an agreement with the government.	3521599	1472007961932	1472007962028	e	69
6855	74053	He pleaded guilty in February under an agreement with the government.	He pleaded guilty in February under an agreement with the government.	3521604	1472007962161	1472007962275	d	68
6855	74053	He pleaded guilty in February under an agreement with the government.	He pleaded guilty in February under an agreement with the government.	3521609	1472007962537	1472007962629	 	32
6855	74053	He pleaded guilty in February under an agreement with the government.	He pleaded guilty in February under an agreement with the government.	3521617	1472007963699	1472007963816	g	71
6855	74053	He pleaded guilty in February under an agreement with the government.	He pleaded guilty in February under an agreement with the government.	3521682	1472007964026	1472007964121	u	85
6855	74053	He pleaded guilty in February under an agreement with the government.	He pleaded guilty in February under an agreement with the government.	3521688	1472007964279	1472007964353	i	73
6855	74053	He pleaded guilty in February under an agreement with the government.	He pleaded guilty in February under an agreement with the government.	3521695	1472007964541	1472007964664	l	76
6855	74053	He pleaded guilty in February under an agreement with the government.	He pleaded guilty in February under an agreement with the government.	3521699	1472007964819	1472007964927	t	84
6855	74053	He pleaded guilty in February under an agreement with the government.	He pleaded guilty in February under an agreement with the government.	3521705	1472007965192	1472007965287	y	89
6855	74053	He pleaded guilty in February under an agreement with the government.	He pleaded guilty in February under an agreement with the government.	3521927	1472007965451	1472007965559	 	32
6855	74053	He pleaded guilty in February under an agreement with the government.	He pleaded guilty in February under an agreement with the government.	3521930	1472007966280	1472007966366	u	85
6855	74053	He pleaded guilty in February under an agreement with the government.	He pleaded guilty in February under an agreement with the government.	3521938	1472007967004	1472007967134	BKSP	8
6855	74053	He pleaded guilty in February under an agreement with the government.	He pleaded guilty in February under an agreement with the government.	3521942	1472007967423	1472007967507	u	73
6855	74053	He pleaded guilty in February under an agreement with the government.	He pleaded guilty in February under an agreement with the government.	3521946	1472007968268	1472007968521	BKSP	8
6855	74053	He pleaded guilty in February under an agreement with the government.	He pleaded guilty in February under an agreement with the government.	3521950	1472007968970	1472007969068	n	78
6855	74053	He pleaded guilty in February under an agreement with the government.	He pleaded guilty in February under an agreement with the government.	3522146	1472007969309	1472007969420	 	32
6855	74053	He pleaded guilty in February under an agreement with the government.	He pleaded guilty in February under an agreement with the government.	3522150	1472007969688	1472007969992	SHIFT	16
6855	74053	He pleaded guilty in February under an agreement with the government.	He pleaded guilty in February under an agreement with the government.	3522148	1472007969835	1472007969934	F	70
6855	74053	He pleaded guilty in February under an agreement with the government.	He pleaded guilty in February under an agreement with the government.	3522153	1472007970172	1472007970267	e	69
6855	74053	He pleaded guilty in February under an agreement with the government.	He pleaded guilty in February under an agreement with the government.	3522157	1472007971609	1472007971695	b	66
6855	74053	He pleaded guilty in February under an agreement with the government.	He pleaded guilty in February under an agreement with the government.	3522161	1472007972704	1472007972805	r	82
6855	74053	He pleaded guilty in February under an agreement with the government.	He pleaded guilty in February under an agreement with the government.	3522246	1472007972868	1472007972954	u	85
6855	74053	He pleaded guilty in February under an agreement with the government.	He pleaded guilty in February under an agreement with the government.	3522249	1472007973495	1472007973578	a	65
6855	74053	He pleaded guilty in February under an agreement with the government.	He pleaded guilty in February under an agreement with the government.	3522255	1472007973828	1472007973951	r	82
6855	74053	He pleaded guilty in February under an agreement with the government.	He pleaded guilty in February under an agreement with the government.	3522262	1472007974436	1472007974544	y	89
6855	74053	He pleaded guilty in February under an agreement with the government.	He pleaded guilty in February under an agreement with the government.	3522267	1472007974622	1472007974699	 	32
6855	74053	He pleaded guilty in February under an agreement with the government.	He pleaded guilty in February under an agreement with the government.	3522402	1472007975643	1472007975754	u	85
6855	74053	He pleaded guilty in February under an agreement with the government.	He pleaded guilty in February under an agreement with the government.	3522406	1472007975952	1472007975991	n	78
6855	74053	He pleaded guilty in February under an agreement with the government.	He pleaded guilty in February under an agreement with the government.	3522411	1472007976422	1472007976514	d	68
6855	74053	He pleaded guilty in February under an agreement with the government.	He pleaded guilty in February under an agreement with the government.	3522415	1472007976660	1472007976765	e	69
6855	74053	He pleaded guilty in February under an agreement with the government.	He pleaded guilty in February under an agreement with the government.	3522421	1472007976898	1472007976977	r	82
6855	74053	He pleaded guilty in February under an agreement with the government.	He pleaded guilty in February under an agreement with the government.	3522482	1472007977059	1472007977148	 	32
6855	74053	He pleaded guilty in February under an agreement with the government.	He pleaded guilty in February under an agreement with the government.	3522487	1472007977404	1472007977515	a	65
6855	74053	He pleaded guilty in February under an agreement with the government.	He pleaded guilty in February under an agreement with the government.	3522491	1472007977584	1472007977689	n	78
6855	74053	He pleaded guilty in February under an agreement with the government.	He pleaded guilty in February under an agreement with the government.	3522499	1472007977862	1472007977964	 	32
6855	74053	He pleaded guilty in February under an agreement with the government.	He pleaded guilty in February under an agreement with the government.	3522501	1472007978840	1472007978945	a	65
6855	74053	He pleaded guilty in February under an agreement with the government.	He pleaded guilty in February under an agreement with the government.	3522612	1472007979370	1472007979496	g	71
6855	74053	He pleaded guilty in February under an agreement with the government.	He pleaded guilty in February under an agreement with the government.	3522617	1472007979898	1472007980000	r	82
6855	74053	He pleaded guilty in February under an agreement with the government.	He pleaded guilty in February under an agreement with the government.	3522622	1472007980158	1472007980275	e	69
6855	74053	He pleaded guilty in February under an agreement with the government.	He pleaded guilty in February under an agreement with the government.	3522627	1472007980950	1472007981051	e	69
6855	74053	He pleaded guilty in February under an agreement with the government.	He pleaded guilty in February under an agreement with the government.	3522632	1472007981130	1472007981225	m	77
6855	74053	He pleaded guilty in February under an agreement with the government.	He pleaded guilty in February under an agreement with the government.	3522715	1472007981631	1472007981741	e	69
6855	74053	He pleaded guilty in February under an agreement with the government.	He pleaded guilty in February under an agreement with the government.	3522717	1472007982401	1472007982497	n	78
6855	74053	He pleaded guilty in February under an agreement with the government.	He pleaded guilty in February under an agreement with the government.	3522719	1472007982615	1472007982716	t	84
6855	74053	He pleaded guilty in February under an agreement with the government.	He pleaded guilty in February under an agreement with the government.	3522721	1472007982758	1472007982844	 	32
6855	74053	He pleaded guilty in February under an agreement with the government.	He pleaded guilty in February under an agreement with the government.	3522722	1472007983583	1472007983685	w	87
6855	74053	He pleaded guilty in February under an agreement with the government.	He pleaded guilty in February under an agreement with the government.	3522785	1472007983818	1472007983916	i	73
6855	74053	He pleaded guilty in February under an agreement with the government.	He pleaded guilty in February under an agreement with the government.	3522788	1472007984044	1472007984154	t	84
6855	74053	He pleaded guilty in February under an agreement with the government.	He pleaded guilty in February under an agreement with the government.	3522790	1472007984193	1472007984273	h	72
6855	74053	He pleaded guilty in February under an agreement with the government.	He pleaded guilty in February under an agreement with the government.	3522792	1472007984455	1472007984569	 	32
6855	74053	He pleaded guilty in February under an agreement with the government.	He pleaded guilty in February under an agreement with the government.	3522794	1472007985324	1472007985441	t	84
6855	74053	He pleaded guilty in February under an agreement with the government.	He pleaded guilty in February under an agreement with the government.	3522899	1472007985491	1472007985581	h	72
6855	74053	He pleaded guilty in February under an agreement with the government.	He pleaded guilty in February under an agreement with the government.	3522901	1472007985903	1472007985953	r	82
6855	74053	He pleaded guilty in February under an agreement with the government.	He pleaded guilty in February under an agreement with the government.	3522907	1472007986818	1472007986903	=	187
6855	74053	He pleaded guilty in February under an agreement with the government.	He pleaded guilty in February under an agreement with the government.	3522905	1472007986822	1472007986894	BKSP	8
6855	74053	He pleaded guilty in February under an agreement with the government.	He pleaded guilty in February under an agreement with the government.	3522910	1472007987709	1472007987814	BKSP	8
6855	74053	He pleaded guilty in February under an agreement with the government.	He pleaded guilty in February under an agreement with the government.	3522911	1472007988097	1472007988196	e	69
6855	74053	He pleaded guilty in February under an agreement with the government.	He pleaded guilty in February under an agreement with the government.	3522913	1472007988268	1472007988342	 	32
6855	74053	He pleaded guilty in February under an agreement with the government.	He pleaded guilty in February under an agreement with the government.	3523025	1472007989056	1472007989161	g	71
6855	74053	He pleaded guilty in February under an agreement with the government.	He pleaded guilty in February under an agreement with the government.	3523032	1472007989236	1472007989353	o	79
6855	74053	He pleaded guilty in February under an agreement with the government.	He pleaded guilty in February under an agreement with the government.	3523039	1472007989796	1472007989879	v	86
6855	74053	He pleaded guilty in February under an agreement with the government.	He pleaded guilty in February under an agreement with the government.	3523045	1472007989985	1472007990080	e	69
6855	74053	He pleaded guilty in February under an agreement with the government.	He pleaded guilty in February under an agreement with the government.	3523048	1472007990201	1472007990300	r	82
6855	74053	He pleaded guilty in February under an agreement with the government.	He pleaded guilty in February under an agreement with the government.	3523107	1472007990564	1472007990641	n	78
6855	74053	He pleaded guilty in February under an agreement with the government.	He pleaded guilty in February under an agreement with the government.	3523110	1472007990986	1472007991090	m	77
6855	74053	He pleaded guilty in February under an agreement with the government.	He pleaded guilty in February under an agreement with the government.	3523114	1472007991147	1472007991249	e	69
6855	74053	He pleaded guilty in February under an agreement with the government.	He pleaded guilty in February under an agreement with the government.	3523117	1472007991300	1472007991395	n	78
6855	74053	He pleaded guilty in February under an agreement with the government.	He pleaded guilty in February under an agreement with the government.	3523120	1472007991690	1472007991789	t	84
6855	74053	He pleaded guilty in February under an agreement with the government.	He pleaded guilty in February under an agreement with the government.	3523191	1472007992859	1472007992948	.	190
6855	74101	Sorry it took so long.	Sorry it took so long.	3523452	1472007995538	1472007995686	SHIFT	16
6855	74101	Sorry it took so long.	Sorry it took so long.	3523457	1472007995715	1472007995808	s	83
6855	74101	Sorry it took so long.	Sorry it took so long.	3523462	1472007996580	1472007996700	BKSP	8
6855	74101	Sorry it took so long.	Sorry it took so long.	3523472	1472007996898	1472007997326	SHIFT	16
6855	74101	Sorry it took so long.	Sorry it took so long.	3523467	1472007997125	1472007997222	S	83
6855	74101	Sorry it took so long.	Sorry it took so long.	3523478	1472007997686	1472007997772	o	79
6855	74101	Sorry it took so long.	Sorry it took so long.	3523484	1472007998041	1472007998120	r	82
6855	74101	Sorry it took so long.	Sorry it took so long.	3523489	1472007998217	1472007998312	r	82
6855	74101	Sorry it took so long.	Sorry it took so long.	3523547	1472007998461	1472007998550	y	89
6855	74101	Sorry it took so long.	Sorry it took so long.	3523550	1472007998696	1472007998825	 	32
6855	74101	Sorry it took so long.	Sorry it took so long.	3523553	1472007999203	1472007999299	i	73
6855	74101	Sorry it took so long.	Sorry it took so long.	3523557	1472007999349	1472007999432	t	84
6855	74101	Sorry it took so long.	Sorry it took so long.	3523559	1472007999507	1472007999606	 	32
6855	74101	Sorry it took so long.	Sorry it took so long.	3523626	1472007999883	1472007999988	t	84
6855	74101	Sorry it took so long.	Sorry it took so long.	3523628	1472008000084	1472008000198	o	79
6855	74101	Sorry it took so long.	Sorry it took so long.	3523630	1472008000264	1472008000372	o	79
6855	74101	Sorry it took so long.	Sorry it took so long.	3523634	1472008000469	1472008000561	k	75
6855	74101	Sorry it took so long.	Sorry it took so long.	3523637	1472008000753	1472008000826	 	32
6855	74101	Sorry it took so long.	Sorry it took so long.	3523768	1472008002012	1472008002117	s	83
6855	74101	Sorry it took so long.	Sorry it took so long.	3523771	1472008002174	1472008002263	o	79
6855	74101	Sorry it took so long.	Sorry it took so long.	3523775	1472008002436	1472008002553	 	32
6855	74101	Sorry it took so long.	Sorry it took so long.	3523779	1472008003060	1472008003174	l	76
6855	74101	Sorry it took so long.	Sorry it took so long.	3523780	1472008003289	1472008003393	o	79
6855	74101	Sorry it took so long.	Sorry it took so long.	3523843	1472008003545	1472008003650	n	78
6855	74101	Sorry it took so long.	Sorry it took so long.	3523847	1472008003887	1472008003986	g	71
6855	74101	Sorry it took so long.	Sorry it took so long.	3523850	1472008004245	1472008004337	.	190
6855	74113	I would like to attend if so.	I would like to attend if so.	3524084	1472008006909	1472008007244	SHIFT	16
6855	74113	I would like to attend if so.	I would like to attend if so.	3524081	1472008007074	1472008007161	I	73
6855	74113	I would like to attend if so.	I would like to attend if so.	3524092	1472008007745	1472008007828	 	32
6855	74113	I would like to attend if so.	I would like to attend if so.	3524098	1472008008328	1472008008418	w	87
6855	74113	I would like to attend if so.	I would like to attend if so.	3524104	1472008008468	1472008008579	o	79
6855	74113	I would like to attend if so.	I would like to attend if so.	3524110	1472008008722	1472008008826	u	85
6855	74113	I would like to attend if so.	I would like to attend if so.	3524197	1472008009171	1472008009257	l	76
6855	74113	I would like to attend if so.	I would like to attend if so.	3524199	1472008009341	1472008009433	d	68
6855	74113	I would like to attend if so.	I would like to attend if so.	3524205	1472008009500	1472008009611	 	32
6855	74113	I would like to attend if so.	I would like to attend if so.	3524211	1472008009986	1472008010130	l	76
6855	74113	I would like to attend if so.	I would like to attend if so.	3524218	1472008010294	1472008010393	i	73
6855	74113	I would like to attend if so.	I would like to attend if so.	3524296	1472008010508	1472008010650	k	75
6855	74113	I would like to attend if so.	I would like to attend if so.	3524301	1472008010688	1472008010790	e	69
6855	74113	I would like to attend if so.	I would like to attend if so.	3524306	1472008010883	1472008010981	 	32
6855	74113	I would like to attend if so.	I would like to attend if so.	3524313	1472008011329	1472008011412	t	84
6855	74113	I would like to attend if so.	I would like to attend if so.	3524315	1472008011518	1472008011610	o	79
6855	74113	I would like to attend if so.	I would like to attend if so.	3524425	1472008011762	1472008011879	 	32
6855	74113	I would like to attend if so.	I would like to attend if so.	3524429	1472008012432	1472008012515	a	65
6855	74113	I would like to attend if so.	I would like to attend if so.	3524432	1472008012865	1472008012945	t	84
6855	74113	I would like to attend if so.	I would like to attend if so.	3524435	1472008013342	1472008013440	e	69
6855	74113	I would like to attend if so.	I would like to attend if so.	3524437	1472008013522	1472008013608	e	69
6855	74113	I would like to attend if so.	I would like to attend if so.	3524780	1472008014020	1472008014143	BKSP	8
6855	74113	I would like to attend if so.	I would like to attend if so.	3524783	1472008015017	1472008015106	n	78
6855	74113	I would like to attend if so.	I would like to attend if so.	3524784	1472008015353	1472008015429	d	68
6855	74113	I would like to attend if so.	I would like to attend if so.	3524786	1472008015492	1472008015579	 	32
6855	74113	I would like to attend if so.	I would like to attend if so.	3524788	1472008016560	1472008016626	ARW_LEFT	37
6855	74113	I would like to attend if so.	I would like to attend if so.	3524789	1472008016702	1472008016774	ARW_LEFT	37
6855	74113	I would like to attend if so.	I would like to attend if so.	3524790	1472008016850	1472008016912	ARW_LEFT	37
6855	74113	I would like to attend if so.	I would like to attend if so.	3524791	1472008016979	1472008017048	ARW_LEFT	37
6855	74113	I would like to attend if so.	I would like to attend if so.	3524792	1472008017115	1472008017267	ARW_LEFT	37
6855	74113	I would like to attend if so.	I would like to attend if so.	3524793	1472008017646	1472008017773	ARW_RIGHT	39
6855	74113	I would like to attend if so.	I would like to attend if so.	3524796	1472008018335	1472008018418	t	84
6855	74113	I would like to attend if so.	I would like to attend if so.	3524799	1472008018719	1472008018811	ARW_RIGHT	39
6855	74113	I would like to attend if so.	I would like to attend if so.	3524803	1472008018914	1472008019017	ARW_RIGHT	39
6855	74113	I would like to attend if so.	I would like to attend if so.	3524807	1472008019105	1472008019202	ARW_RIGHT	39
6855	74113	I would like to attend if so.	I would like to attend if so.	3524810	1472008019257	1472008019341	ARW_RIGHT	39
6855	74113	I would like to attend if so.	I would like to attend if so.	3524813	1472008020181	1472008020280	i	73
6855	74113	I would like to attend if so.	I would like to attend if so.	3524854	1472008020346	1472008020432	f	70
6855	74113	I would like to attend if so.	I would like to attend if so.	3524857	1472008020486	1472008020566	 	32
6855	74113	I would like to attend if so.	I would like to attend if so.	3524862	1472008021082	1472008021174	s	83
6855	74113	I would like to attend if so.	I would like to attend if so.	3524869	1472008021255	1472008021357	o	79
6855	74113	I would like to attend if so.	I would like to attend if so.	3524873	1472008021729	1472008021824	.	190
6855	74133	It is very unlikely that patrons of tour operators are troublemakers.	It is very unlikely that patrons of tour operators are troublemakers.	3525242	1472008025000	1472008025098	i	73
6855	74133	It is very unlikely that patrons of tour operators are troublemakers.	It is very unlikely that patrons of tour operators are troublemakers.	3525245	1472008025160	1472008025252	t	84
6855	74133	It is very unlikely that patrons of tour operators are troublemakers.	It is very unlikely that patrons of tour operators are troublemakers.	3525247	1472008025303	1472008025405	 	32
6855	74133	It is very unlikely that patrons of tour operators are troublemakers.	It is very unlikely that patrons of tour operators are troublemakers.	3525248	1472008026377	1472008026454	BKSP	8
6855	74133	It is very unlikely that patrons of tour operators are troublemakers.	It is very unlikely that patrons of tour operators are troublemakers.	3525249	1472008026575	1472008026664	BKSP	8
6855	74133	It is very unlikely that patrons of tour operators are troublemakers.	It is very unlikely that patrons of tour operators are troublemakers.	3525250	1472008026733	1472008026841	BKSP	8
6855	74133	It is very unlikely that patrons of tour operators are troublemakers.	It is very unlikely that patrons of tour operators are troublemakers.	3525254	1472008027353	1472008027748	SHIFT	16
6855	74133	It is very unlikely that patrons of tour operators are troublemakers.	It is very unlikely that patrons of tour operators are troublemakers.	3525251	1472008027578	1472008027665	I	73
6855	74133	It is very unlikely that patrons of tour operators are troublemakers.	It is very unlikely that patrons of tour operators are troublemakers.	3525261	1472008028212	1472008028298	t	84
6855	74133	It is very unlikely that patrons of tour operators are troublemakers.	It is very unlikely that patrons of tour operators are troublemakers.	3525326	1472008028780	1472008028882	 	32
6855	74133	It is very unlikely that patrons of tour operators are troublemakers.	It is very unlikely that patrons of tour operators are troublemakers.	3525332	1472008029474	1472008029575	i	73
6855	74133	It is very unlikely that patrons of tour operators are troublemakers.	It is very unlikely that patrons of tour operators are troublemakers.	3525335	1472008029660	1472008029752	s	83
6855	74133	It is very unlikely that patrons of tour operators are troublemakers.	It is very unlikely that patrons of tour operators are troublemakers.	3525340	1472008029824	1472008029926	 	32
6855	74133	It is very unlikely that patrons of tour operators are troublemakers.	It is very unlikely that patrons of tour operators are troublemakers.	3525345	1472008030273	1472008030356	v	86
6855	74133	It is very unlikely that patrons of tour operators are troublemakers.	It is very unlikely that patrons of tour operators are troublemakers.	3525442	1472008030410	1472008030502	e	69
6855	74133	It is very unlikely that patrons of tour operators are troublemakers.	It is very unlikely that patrons of tour operators are troublemakers.	3525446	1472008030633	1472008030734	r	82
6855	74133	It is very unlikely that patrons of tour operators are troublemakers.	It is very unlikely that patrons of tour operators are troublemakers.	3525450	1472008031014	1472008031113	y	89
6855	74133	It is very unlikely that patrons of tour operators are troublemakers.	It is very unlikely that patrons of tour operators are troublemakers.	3525455	1472008031399	1472008031495	 	32
6855	74133	It is very unlikely that patrons of tour operators are troublemakers.	It is very unlikely that patrons of tour operators are troublemakers.	3525458	1472008032274	1472008032387	u	85
6855	74133	It is very unlikely that patrons of tour operators are troublemakers.	It is very unlikely that patrons of tour operators are troublemakers.	3525511	1472008032539	1472008032635	n	78
6855	74133	It is very unlikely that patrons of tour operators are troublemakers.	It is very unlikely that patrons of tour operators are troublemakers.	3525515	1472008032942	1472008033069	l	76
6855	74133	It is very unlikely that patrons of tour operators are troublemakers.	It is very unlikely that patrons of tour operators are troublemakers.	3525521	1472008033205	1472008033310	i	73
6855	74133	It is very unlikely that patrons of tour operators are troublemakers.	It is very unlikely that patrons of tour operators are troublemakers.	3525525	1472008033425	1472008033536	k	75
6855	74133	It is very unlikely that patrons of tour operators are troublemakers.	It is very unlikely that patrons of tour operators are troublemakers.	3525529	1472008033626	1472008033712	e	69
6855	74133	It is very unlikely that patrons of tour operators are troublemakers.	It is very unlikely that patrons of tour operators are troublemakers.	3525640	1472008034008	1472008034119	l	76
6855	74133	It is very unlikely that patrons of tour operators are troublemakers.	It is very unlikely that patrons of tour operators are troublemakers.	3525646	1472008034273	1472008034360	y	89
6855	74133	It is very unlikely that patrons of tour operators are troublemakers.	It is very unlikely that patrons of tour operators are troublemakers.	3525653	1472008034441	1472008034527	 	32
6855	74133	It is very unlikely that patrons of tour operators are troublemakers.	It is very unlikely that patrons of tour operators are troublemakers.	3525658	1472008035361	1472008035484	t	84
6855	74133	It is very unlikely that patrons of tour operators are troublemakers.	It is very unlikely that patrons of tour operators are troublemakers.	3525663	1472008035553	1472008035655	h	72
6855	74133	It is very unlikely that patrons of tour operators are troublemakers.	It is very unlikely that patrons of tour operators are troublemakers.	3525749	1472008035905	1472008035997	a	65
6855	74133	It is very unlikely that patrons of tour operators are troublemakers.	It is very unlikely that patrons of tour operators are troublemakers.	3525756	1472008036060	1472008036149	t	84
6855	74133	It is very unlikely that patrons of tour operators are troublemakers.	It is very unlikely that patrons of tour operators are troublemakers.	3525765	1472008036374	1472008036467	 	32
6855	74133	It is very unlikely that patrons of tour operators are troublemakers.	It is very unlikely that patrons of tour operators are troublemakers.	3525773	1472008037041	1472008037149	p	80
6855	74133	It is very unlikely that patrons of tour operators are troublemakers.	It is very unlikely that patrons of tour operators are troublemakers.	3525779	1472008037224	1472008037329	a	65
6855	74133	It is very unlikely that patrons of tour operators are troublemakers.	It is very unlikely that patrons of tour operators are troublemakers.	3525891	1472008037664	1472008037741	t	84
6855	74133	It is very unlikely that patrons of tour operators are troublemakers.	It is very unlikely that patrons of tour operators are troublemakers.	3525894	1472008037874	1472008037976	r	82
6855	74133	It is very unlikely that patrons of tour operators are troublemakers.	It is very unlikely that patrons of tour operators are troublemakers.	3525899	1472008038112	1472008038251	o	79
6855	74133	It is very unlikely that patrons of tour operators are troublemakers.	It is very unlikely that patrons of tour operators are troublemakers.	3525905	1472008038378	1472008038480	n	78
6855	74133	It is very unlikely that patrons of tour operators are troublemakers.	It is very unlikely that patrons of tour operators are troublemakers.	3525910	1472008039702	1472008039789	s	83
6855	74133	It is very unlikely that patrons of tour operators are troublemakers.	It is very unlikely that patrons of tour operators are troublemakers.	3525993	1472008039858	1472008039965	 	32
6855	74133	It is very unlikely that patrons of tour operators are troublemakers.	It is very unlikely that patrons of tour operators are troublemakers.	3526001	1472008040546	1472008040626	o	79
6855	74133	It is very unlikely that patrons of tour operators are troublemakers.	It is very unlikely that patrons of tour operators are troublemakers.	3526008	1472008040753	1472008040845	f	70
6855	74133	It is very unlikely that patrons of tour operators are troublemakers.	It is very unlikely that patrons of tour operators are troublemakers.	3526014	1472008040911	1472008041022	 	32
6855	74133	It is very unlikely that patrons of tour operators are troublemakers.	It is very unlikely that patrons of tour operators are troublemakers.	3526020	1472008041287	1472008041413	t	84
6855	74133	It is very unlikely that patrons of tour operators are troublemakers.	It is very unlikely that patrons of tour operators are troublemakers.	3526150	1472008041488	1472008041599	o	79
6855	74133	It is very unlikely that patrons of tour operators are troublemakers.	It is very unlikely that patrons of tour operators are troublemakers.	3526153	1472008041760	1472008041859	u	85
6855	74133	It is very unlikely that patrons of tour operators are troublemakers.	It is very unlikely that patrons of tour operators are troublemakers.	3526160	1472008042038	1472008042136	r	82
6855	74133	It is very unlikely that patrons of tour operators are troublemakers.	It is very unlikely that patrons of tour operators are troublemakers.	3526163	1472008042242	1472008042353	 	32
6855	74133	It is very unlikely that patrons of tour operators are troublemakers.	It is very unlikely that patrons of tour operators are troublemakers.	3526164	1472008043291	1472008043399	o	79
6855	74133	It is very unlikely that patrons of tour operators are troublemakers.	It is very unlikely that patrons of tour operators are troublemakers.	3526306	1472008043530	1472008043637	p	80
6855	74133	It is very unlikely that patrons of tour operators are troublemakers.	It is very unlikely that patrons of tour operators are troublemakers.	3526309	1472008044024	1472008044114	e	69
6855	74133	It is very unlikely that patrons of tour operators are troublemakers.	It is very unlikely that patrons of tour operators are troublemakers.	3526311	1472008044238	1472008044339	r	82
6855	74133	It is very unlikely that patrons of tour operators are troublemakers.	It is very unlikely that patrons of tour operators are troublemakers.	3526313	1472008045213	1472008045309	a	65
6855	74133	It is very unlikely that patrons of tour operators are troublemakers.	It is very unlikely that patrons of tour operators are troublemakers.	3526315	1472008045880	1472008045972	t	84
6855	74133	It is very unlikely that patrons of tour operators are troublemakers.	It is very unlikely that patrons of tour operators are troublemakers.	3526418	1472008046032	1472008046143	o	79
6855	74133	It is very unlikely that patrons of tour operators are troublemakers.	It is very unlikely that patrons of tour operators are troublemakers.	3526421	1472008046738	1472008046843	r	82
6855	74133	It is very unlikely that patrons of tour operators are troublemakers.	It is very unlikely that patrons of tour operators are troublemakers.	3526424	1472008047191	1472008047283	s	83
6855	74133	It is very unlikely that patrons of tour operators are troublemakers.	It is very unlikely that patrons of tour operators are troublemakers.	3526429	1472008047404	1472008047505	 	32
6855	74133	It is very unlikely that patrons of tour operators are troublemakers.	It is very unlikely that patrons of tour operators are troublemakers.	3526434	1472008047890	1472008048001	a	65
6855	74133	It is very unlikely that patrons of tour operators are troublemakers.	It is very unlikely that patrons of tour operators are troublemakers.	3526539	1472008048324	1472008048420	r	82
6855	74133	It is very unlikely that patrons of tour operators are troublemakers.	It is very unlikely that patrons of tour operators are troublemakers.	3526545	1472008048544	1472008048658	e	69
6855	74133	It is very unlikely that patrons of tour operators are troublemakers.	It is very unlikely that patrons of tour operators are troublemakers.	3526550	1472008048736	1472008048859	 	32
6855	74133	It is very unlikely that patrons of tour operators are troublemakers.	It is very unlikely that patrons of tour operators are troublemakers.	3526555	1472008049513	1472008049599	t	84
6855	74133	It is very unlikely that patrons of tour operators are troublemakers.	It is very unlikely that patrons of tour operators are troublemakers.	3526561	1472008049809	1472008049913	r	82
6855	74133	It is very unlikely that patrons of tour operators are troublemakers.	It is very unlikely that patrons of tour operators are troublemakers.	3526700	1472008050273	1472008050399	o	79
6855	74133	It is very unlikely that patrons of tour operators are troublemakers.	It is very unlikely that patrons of tour operators are troublemakers.	3526703	1472008051307	1472008051402	u	85
6855	74133	It is very unlikely that patrons of tour operators are troublemakers.	It is very unlikely that patrons of tour operators are troublemakers.	3526706	1472008051832	1472008051934	b	66
6855	74133	It is very unlikely that patrons of tour operators are troublemakers.	It is very unlikely that patrons of tour operators are troublemakers.	3526713	1472008052364	1472008052472	l	76
6855	74133	It is very unlikely that patrons of tour operators are troublemakers.	It is very unlikely that patrons of tour operators are troublemakers.	3526719	1472008052556	1472008052670	e	69
6855	74133	It is very unlikely that patrons of tour operators are troublemakers.	It is very unlikely that patrons of tour operators are troublemakers.	3526804	1472008052809	1472008052920	m	77
6855	74133	It is very unlikely that patrons of tour operators are troublemakers.	It is very unlikely that patrons of tour operators are troublemakers.	3526806	1472008053179	1472008053297	a	65
6855	74133	It is very unlikely that patrons of tour operators are troublemakers.	It is very unlikely that patrons of tour operators are troublemakers.	3526807	1472008053357	1472008053452	k	75
6855	74133	It is very unlikely that patrons of tour operators are troublemakers.	It is very unlikely that patrons of tour operators are troublemakers.	3526808	1472008053561	1472008053666	e	69
6855	74133	It is very unlikely that patrons of tour operators are troublemakers.	It is very unlikely that patrons of tour operators are troublemakers.	3526809	1472008053811	1472008053900	r	82
6855	74133	It is very unlikely that patrons of tour operators are troublemakers.	It is very unlikely that patrons of tour operators are troublemakers.	3526862	1472008054150	1472008054240	s	83
6855	74133	It is very unlikely that patrons of tour operators are troublemakers.	It is very unlikely that patrons of tour operators are troublemakers.	3526865	1472008054688	1472008054802	.	190
