PARTICIPANT_ID	TEST_SECTION_ID	SENTENCE	USER_INPUT	KEYSTROKE_ID	PRESS_TIME	RELEASE_TIME	LETTER	KEYCODE
2079	20990	Thanks for all the email.	Thanks for all the emial. 	1000800	1471960859481	1471960859584	SHIFT	16
2079	20990	Thanks for all the email.	Thanks for all the emial. 	1000803	1471960859550	1471960859629		84
2079	20990	Thanks for all the email.	Thanks for all the emial. 	1000806	1471960859681	1471960859756		72
2079	20990	Thanks for all the email.	Thanks for all the emial. 	1000808	1471960859761	1471960859855		65
2079	20990	Thanks for all the email.	Thanks for all the emial. 	1000809	1471960859878	1471960859998		78
2079	20990	Thanks for all the email.	Thanks for all the emial. 	1000825	1471960859946	1471960860110		75
2079	20990	Thanks for all the email.	Thanks for all the emial. 	1000822	1471960860015	1471960860094		83
2079	20990	Thanks for all the email.	Thanks for all the emial. 	1000831	1471960860119	1471960860246		32
2079	20990	Thanks for all the email.	Thanks for all the emial. 	1000839	1471960860215	1471960860318		70
2079	20990	Thanks for all the email.	Thanks for all the emial. 	1000862	1471960860328	1471960860502		79
2079	20990	Thanks for all the email.	Thanks for all the emial. 	1000845	1471960860410	1471960860496		82
2079	20990	Thanks for all the email.	Thanks for all the emial. 	1000864	1471960860480	1471960860598		32
2079	20990	Thanks for all the email.	Thanks for all the emial. 	1000866	1471960860576	1471960860678		65
2079	20990	Thanks for all the email.	Thanks for all the emial. 	1000868	1471960860655	1471960860728		76
2079	20990	Thanks for all the email.	Thanks for all the emial. 	1000872	1471960860799	1471960860910		76
2079	20990	Thanks for all the email.	Thanks for all the emial. 	1000875	1471960860841	1471960860960		32
2079	20990	Thanks for all the email.	Thanks for all the emial. 	1000896	1471960860927	1471960860982		84
2079	20990	Thanks for all the email.	Thanks for all the emial. 	1000900	1471960861015	1471960861118		72
2079	20990	Thanks for all the email.	Thanks for all the emial. 	1000907	1471960861102	1471960861182		69
2079	20990	Thanks for all the email.	Thanks for all the emial. 	1000913	1471960861199	1471960861302		32
2079	20990	Thanks for all the email.	Thanks for all the emial. 	1000917	1471960861310	1471960861398		69
2079	20990	Thanks for all the email.	Thanks for all the emial. 	1000920	1471960861426	1471960861566		77
2079	20990	Thanks for all the email.	Thanks for all the emial. 	1000969	1471960861535	1471960861662		73
2079	20990	Thanks for all the email.	Thanks for all the emial. 	1000971	1471960861611	1471960861706		65
2079	20990	Thanks for all the email.	Thanks for all the emial. 	1000973	1471960862075	1471960862158		76
2079	20990	Thanks for all the email.	Thanks for all the emial. 	1000974	1471960862278	1471960862398		190
2079	20990	Thanks for all the email.	Thanks for all the emial. 	1000975	1471960862367	1471960862507		32
2079	20997	I guess the next time I'll see you is for Superbowl.	I guess the next time I'll see you is for Superbowl.	1001065	1471960864950	1471960865072	SHIFT	16
2079	20997	I guess the next time I'll see you is for Superbowl.	I guess the next time I'll see you is for Superbowl.	1001066	1471960865019	1471960865134		73
2079	20997	I guess the next time I'll see you is for Superbowl.	I guess the next time I'll see you is for Superbowl.	1001067	1471960865081	1471960865190		32
2079	20997	I guess the next time I'll see you is for Superbowl.	I guess the next time I'll see you is for Superbowl.	1001069	1471960865198	1471960865266		71
2079	20997	I guess the next time I'll see you is for Superbowl.	I guess the next time I'll see you is for Superbowl.	1001073	1471960865281	1471960865377		85
2079	20997	I guess the next time I'll see you is for Superbowl.	I guess the next time I'll see you is for Superbowl.	1001088	1471960865374	1471960865464		69
2079	20997	I guess the next time I'll see you is for Superbowl.	I guess the next time I'll see you is for Superbowl.	1001093	1471960865415	1471960865486		83
2079	20997	I guess the next time I'll see you is for Superbowl.	I guess the next time I'll see you is for Superbowl.	1001100	1471960865575	1471960865654		83
2079	20997	I guess the next time I'll see you is for Superbowl.	I guess the next time I'll see you is for Superbowl.	1001107	1471960865638	1471960865731		32
2079	20997	I guess the next time I'll see you is for Superbowl.	I guess the next time I'll see you is for Superbowl.	1001111	1471960865753	1471960865835		84
2079	20997	I guess the next time I'll see you is for Superbowl.	I guess the next time I'll see you is for Superbowl.	1001118	1471960865814	1471960865902		72
2079	20997	I guess the next time I'll see you is for Superbowl.	I guess the next time I'll see you is for Superbowl.	1001124	1471960865880	1471960865948		69
2079	20997	I guess the next time I'll see you is for Superbowl.	I guess the next time I'll see you is for Superbowl.	1001130	1471960865950	1471960866054		32
2079	20997	I guess the next time I'll see you is for Superbowl.	I guess the next time I'll see you is for Superbowl.	1001135	1471960866014	1471960866154		78
2079	20997	I guess the next time I'll see you is for Superbowl.	I guess the next time I'll see you is for Superbowl.	1001138	1471960866102	1471960866247		69
2079	20997	I guess the next time I'll see you is for Superbowl.	I guess the next time I'll see you is for Superbowl.	1001151	1471960866198	1471960866331		88
2079	20997	I guess the next time I'll see you is for Superbowl.	I guess the next time I'll see you is for Superbowl.	1001156	1471960866314	1471960866390		84
2079	20997	I guess the next time I'll see you is for Superbowl.	I guess the next time I'll see you is for Superbowl.	1001158	1471960866374	1471960866462		32
2079	20997	I guess the next time I'll see you is for Superbowl.	I guess the next time I'll see you is for Superbowl.	1001160	1471960866486	1471960866565		84
2079	20997	I guess the next time I'll see you is for Superbowl.	I guess the next time I'll see you is for Superbowl.	1001163	1471960866574	1471960866702		73
2079	20997	I guess the next time I'll see you is for Superbowl.	I guess the next time I'll see you is for Superbowl.	1001189	1471960866638	1471960866854		77
2079	20997	I guess the next time I'll see you is for Superbowl.	I guess the next time I'll see you is for Superbowl.	1001186	1471960866756	1471960866814		69
2079	20997	I guess the next time I'll see you is for Superbowl.	I guess the next time I'll see you is for Superbowl.	1001196	1471960866846	1471960866961		32
2079	20997	I guess the next time I'll see you is for Superbowl.	I guess the next time I'll see you is for Superbowl.	1001199	1471960866944	1471960867065	SHIFT	16
2079	20997	I guess the next time I'll see you is for Superbowl.	I guess the next time I'll see you is for Superbowl.	1001203	1471960867003	1471960867179		73
2079	20997	I guess the next time I'll see you is for Superbowl.	I guess the next time I'll see you is for Superbowl.	1001205	1471960867163	1471960867219		222
2079	20997	I guess the next time I'll see you is for Superbowl.	I guess the next time I'll see you is for Superbowl.	1001208	1471960867194	1471960867246		76
2079	20997	I guess the next time I'll see you is for Superbowl.	I guess the next time I'll see you is for Superbowl.	1001211	1471960867328	1471960867438		76
2079	20997	I guess the next time I'll see you is for Superbowl.	I guess the next time I'll see you is for Superbowl.	1001212	1471960867391	1471960867529		32
2079	20997	I guess the next time I'll see you is for Superbowl.	I guess the next time I'll see you is for Superbowl.	1001214	1471960867502	1471960867583		83
2079	20997	I guess the next time I'll see you is for Superbowl.	I guess the next time I'll see you is for Superbowl.	1001215	1471960867559	1471960867654		69
2079	20997	I guess the next time I'll see you is for Superbowl.	I guess the next time I'll see you is for Superbowl.	1001217	1471960867718	1471960867799		69
2079	20997	I guess the next time I'll see you is for Superbowl.	I guess the next time I'll see you is for Superbowl.	1001236	1471960867782	1471960867902		32
2079	20997	I guess the next time I'll see you is for Superbowl.	I guess the next time I'll see you is for Superbowl.	1001241	1471960867871	1471960867950		89
2079	20997	I guess the next time I'll see you is for Superbowl.	I guess the next time I'll see you is for Superbowl.	1001246	1471960867982	1471960868118		79
2079	20997	I guess the next time I'll see you is for Superbowl.	I guess the next time I'll see you is for Superbowl.	1001251	1471960868058	1471960868230		85
2079	20997	I guess the next time I'll see you is for Superbowl.	I guess the next time I'll see you is for Superbowl.	1001261	1471960868134	1471960868286		32
2079	20997	I guess the next time I'll see you is for Superbowl.	I guess the next time I'll see you is for Superbowl.	1001262	1471960868214	1471960868382		73
2079	20997	I guess the next time I'll see you is for Superbowl.	I guess the next time I'll see you is for Superbowl.	1001263	1471960868310	1471960868408		83
2079	20997	I guess the next time I'll see you is for Superbowl.	I guess the next time I'll see you is for Superbowl.	1001264	1471960868409	1471960868513		32
2079	20997	I guess the next time I'll see you is for Superbowl.	I guess the next time I'll see you is for Superbowl.	1001265	1471960868510	1471960868598		70
2079	20997	I guess the next time I'll see you is for Superbowl.	I guess the next time I'll see you is for Superbowl.	1001266	1471960868582	1471960868710		79
2079	20997	I guess the next time I'll see you is for Superbowl.	I guess the next time I'll see you is for Superbowl.	1001267	1471960868674	1471960868760		82
2079	20997	I guess the next time I'll see you is for Superbowl.	I guess the next time I'll see you is for Superbowl.	1001268	1471960868713	1471960868807		32
2079	20997	I guess the next time I'll see you is for Superbowl.	I guess the next time I'll see you is for Superbowl.	1001270	1471960868862	1471960868958	SHIFT	16
2079	20997	I guess the next time I'll see you is for Superbowl.	I guess the next time I'll see you is for Superbowl.	1001273	1471960868889	1471960868982		83
2079	20997	I guess the next time I'll see you is for Superbowl.	I guess the next time I'll see you is for Superbowl.	1001275	1471960869057	1471960869191		85
2079	20997	I guess the next time I'll see you is for Superbowl.	I guess the next time I'll see you is for Superbowl.	1001278	1471960869142	1471960869262		80
2079	20997	I guess the next time I'll see you is for Superbowl.	I guess the next time I'll see you is for Superbowl.	1001306	1471960869255	1471960869375		69
2079	20997	I guess the next time I'll see you is for Superbowl.	I guess the next time I'll see you is for Superbowl.	1001308	1471960869342	1471960869430		82
2079	20997	I guess the next time I'll see you is for Superbowl.	I guess the next time I'll see you is for Superbowl.	1001311	1471960869542	1471960869622		66
2079	20997	I guess the next time I'll see you is for Superbowl.	I guess the next time I'll see you is for Superbowl.	1001312	1471960869623	1471960869705		79
2079	20997	I guess the next time I'll see you is for Superbowl.	I guess the next time I'll see you is for Superbowl.	1001313	1471960869763	1471960869822		87
2079	20997	I guess the next time I'll see you is for Superbowl.	I guess the next time I'll see you is for Superbowl.	1001314	1471960869846	1471960869926		76
2079	20997	I guess the next time I'll see you is for Superbowl.	I guess the next time I'll see you is for Superbowl.	1001321	1471960870062	1471960870198		190
2079	21009	Please call me if you see any problems.	Please call me if you see any problems. 	1001418	1471960872297	1471960872437	SHIFT	16
2079	21009	Please call me if you see any problems.	Please call me if you see any problems. 	1001415	1471960872334	1471960872415		80
2079	21009	Please call me if you see any problems.	Please call me if you see any problems. 	1001421	1471960872534	1471960872616		76
2079	21009	Please call me if you see any problems.	Please call me if you see any problems. 	1001426	1471960872606	1471960872750		69
2079	21009	Please call me if you see any problems.	Please call me if you see any problems. 	1001430	1471960872734	1471960872912		65
2079	21009	Please call me if you see any problems.	Please call me if you see any problems. 	1001453	1471960872864	1471960873006		83
2079	21009	Please call me if you see any problems.	Please call me if you see any problems. 	1001455	1471960872918	1471960873064		69
2079	21009	Please call me if you see any problems.	Please call me if you see any problems. 	1001456	1471960873097	1471960873206		32
2079	21009	Please call me if you see any problems.	Please call me if you see any problems. 	1001458	1471960873222	1471960873361		67
2079	21009	Please call me if you see any problems.	Please call me if you see any problems. 	1001459	1471960873298	1471960873429		65
2079	21009	Please call me if you see any problems.	Please call me if you see any problems. 	1001475	1471960873362	1471960873438		76
2079	21009	Please call me if you see any problems.	Please call me if you see any problems. 	1001478	1471960873518	1471960873654		76
2079	21009	Please call me if you see any problems.	Please call me if you see any problems. 	1001483	1471960873590	1471960873686		32
2079	21009	Please call me if you see any problems.	Please call me if you see any problems. 	1001492	1471960873630	1471960873814		77
2079	21009	Please call me if you see any problems.	Please call me if you see any problems. 	1001488	1471960873729	1471960873799		69
2079	21009	Please call me if you see any problems.	Please call me if you see any problems. 	1001498	1471960873814	1471960873945		32
2079	21009	Please call me if you see any problems.	Please call me if you see any problems. 	1001504	1471960873911	1471960874086		73
2079	21009	Please call me if you see any problems.	Please call me if you see any problems. 	1001503	1471960873998	1471960874071		70
2079	21009	Please call me if you see any problems.	Please call me if you see any problems. 	1001506	1471960874078	1471960874222		32
2079	21009	Please call me if you see any problems.	Please call me if you see any problems. 	1001510	1471960874194	1471960874286		89
2079	21009	Please call me if you see any problems.	Please call me if you see any problems. 	1001515	1471960874318	1471960874447		79
2079	21009	Please call me if you see any problems.	Please call me if you see any problems. 	1001528	1471960874382	1471960874566		85
2079	21009	Please call me if you see any problems.	Please call me if you see any problems. 	1001531	1471960874478	1471960874627		32
2079	21009	Please call me if you see any problems.	Please call me if you see any problems. 	1001535	1471960874561	1471960874646		83
2079	21009	Please call me if you see any problems.	Please call me if you see any problems. 	1001538	1471960874609	1471960874694		69
2079	21009	Please call me if you see any problems.	Please call me if you see any problems. 	1001541	1471960874793	1471960874854		69
2079	21009	Please call me if you see any problems.	Please call me if you see any problems. 	1001552	1471960874842	1471960874929		32
2079	21009	Please call me if you see any problems.	Please call me if you see any problems. 	1001555	1471960874934	1471960875061		65
2079	21009	Please call me if you see any problems.	Please call me if you see any problems. 	1001557	1471960875042	1471960875078		78
2079	21009	Please call me if you see any problems.	Please call me if you see any problems. 	1001558	1471960875182	1471960875310		89
2079	21009	Please call me if you see any problems.	Please call me if you see any problems. 	1001559	1471960875276	1471960875374		32
2079	21009	Please call me if you see any problems.	Please call me if you see any problems. 	1001581	1471960875325	1471960875427		80
2079	21009	Please call me if you see any problems.	Please call me if you see any problems. 	1001584	1471960875413	1471960875486		82
2079	21009	Please call me if you see any problems.	Please call me if you see any problems. 	1001588	1471960875542	1471960875641		79
2079	21009	Please call me if you see any problems.	Please call me if you see any problems. 	1001591	1471960875657	1471960875726		66
2079	21009	Please call me if you see any problems.	Please call me if you see any problems. 	1001595	1471960875782	1471960875862		76
2079	21009	Please call me if you see any problems.	Please call me if you see any problems. 	1001598	1471960875874	1471960875942		69
2079	21009	Please call me if you see any problems.	Please call me if you see any problems. 	1001609	1471960875966	1471960876061		77
2079	21009	Please call me if you see any problems.	Please call me if you see any problems. 	1001612	1471960876100	1471960876177		83
2079	21009	Please call me if you see any problems.	Please call me if you see any problems. 	1001618	1471960876238	1471960876368		190
2079	21009	Please call me if you see any problems.	Please call me if you see any problems. 	1001626	1471960876365	1471960876440		32
2079	21019	We had some measurement of gas from Quantum throughout the month.	We had some measurement of gas from Quantum throughout the month.	1001700	1471960878438	1471960878526	SHIFT	16
2079	21019	We had some measurement of gas from Quantum throughout the month.	We had some measurement of gas from Quantum throughout the month.	1001702	1471960878462	1471960878527		87
2079	21019	We had some measurement of gas from Quantum throughout the month.	We had some measurement of gas from Quantum throughout the month.	1001705	1471960878622	1471960878693		69
2079	21019	We had some measurement of gas from Quantum throughout the month.	We had some measurement of gas from Quantum throughout the month.	1001712	1471960878702	1471960878839		32
2079	21019	We had some measurement of gas from Quantum throughout the month.	We had some measurement of gas from Quantum throughout the month.	1001736	1471960878784	1471960878902		72
2079	21019	We had some measurement of gas from Quantum throughout the month.	We had some measurement of gas from Quantum throughout the month.	1001737	1471960878837	1471960878950		65
2079	21019	We had some measurement of gas from Quantum throughout the month.	We had some measurement of gas from Quantum throughout the month.	1001739	1471960878926	1471960879051		68
2079	21019	We had some measurement of gas from Quantum throughout the month.	We had some measurement of gas from Quantum throughout the month.	1001742	1471960879038	1471960879150		32
2079	21019	We had some measurement of gas from Quantum throughout the month.	We had some measurement of gas from Quantum throughout the month.	1001745	1471960879223	1471960879319		83
2079	21019	We had some measurement of gas from Quantum throughout the month.	We had some measurement of gas from Quantum throughout the month.	1001747	1471960879310	1471960879431		79
2079	21019	We had some measurement of gas from Quantum throughout the month.	We had some measurement of gas from Quantum throughout the month.	1001766	1471960879382	1471960879510		77
2079	21019	We had some measurement of gas from Quantum throughout the month.	We had some measurement of gas from Quantum throughout the month.	1001770	1471960879486	1471960879565		69
2079	21019	We had some measurement of gas from Quantum throughout the month.	We had some measurement of gas from Quantum throughout the month.	1001772	1471960879616	1471960879758		32
2079	21019	We had some measurement of gas from Quantum throughout the month.	We had some measurement of gas from Quantum throughout the month.	1001777	1471960879714	1471960879838		77
2079	21019	We had some measurement of gas from Quantum throughout the month.	We had some measurement of gas from Quantum throughout the month.	1001782	1471960879863	1471960879966		69
2079	21019	We had some measurement of gas from Quantum throughout the month.	We had some measurement of gas from Quantum throughout the month.	1001801	1471960879919	1471960880054		65
2079	21019	We had some measurement of gas from Quantum throughout the month.	We had some measurement of gas from Quantum throughout the month.	1001802	1471960880086	1471960880200		83
2079	21019	We had some measurement of gas from Quantum throughout the month.	We had some measurement of gas from Quantum throughout the month.	1001803	1471960880190	1471960880271		85
2079	21019	We had some measurement of gas from Quantum throughout the month.	We had some measurement of gas from Quantum throughout the month.	1001804	1471960880313	1471960880454		82
2079	21019	We had some measurement of gas from Quantum throughout the month.	We had some measurement of gas from Quantum throughout the month.	1001805	1471960880406	1471960880495		69
2079	21019	We had some measurement of gas from Quantum throughout the month.	We had some measurement of gas from Quantum throughout the month.	1001806	1471960880496	1471960880573		77
2079	21019	We had some measurement of gas from Quantum throughout the month.	We had some measurement of gas from Quantum throughout the month.	1001820	1471960880598	1471960880679		69
2079	21019	We had some measurement of gas from Quantum throughout the month.	We had some measurement of gas from Quantum throughout the month.	1001823	1471960880680	1471960880749		78
2079	21019	We had some measurement of gas from Quantum throughout the month.	We had some measurement of gas from Quantum throughout the month.	1001826	1471960880798	1471960880854		84
2079	21019	We had some measurement of gas from Quantum throughout the month.	We had some measurement of gas from Quantum throughout the month.	1001828	1471960880870	1471960880997		32
2079	21019	We had some measurement of gas from Quantum throughout the month.	We had some measurement of gas from Quantum throughout the month.	1001842	1471960880950	1471960881143		79
2079	21019	We had some measurement of gas from Quantum throughout the month.	We had some measurement of gas from Quantum throughout the month.	1001848	1471960881071	1471960881149		70
2079	21019	We had some measurement of gas from Quantum throughout the month.	We had some measurement of gas from Quantum throughout the month.	1001852	1471960881102	1471960881246		32
2079	21019	We had some measurement of gas from Quantum throughout the month.	We had some measurement of gas from Quantum throughout the month.	1001859	1471960881270	1471960881343		71
2079	21019	We had some measurement of gas from Quantum throughout the month.	We had some measurement of gas from Quantum throughout the month.	1001865	1471960881398	1471960881527		65
2079	21019	We had some measurement of gas from Quantum throughout the month.	We had some measurement of gas from Quantum throughout the month.	1001882	1471960881472	1471960881582		83
2079	21019	We had some measurement of gas from Quantum throughout the month.	We had some measurement of gas from Quantum throughout the month.	1001885	1471960881582	1471960881703		32
2079	21019	We had some measurement of gas from Quantum throughout the month.	We had some measurement of gas from Quantum throughout the month.	1001888	1471960881702	1471960881782		70
2079	21019	We had some measurement of gas from Quantum throughout the month.	We had some measurement of gas from Quantum throughout the month.	1001893	1471960881871	1471960881946		82
2079	21019	We had some measurement of gas from Quantum throughout the month.	We had some measurement of gas from Quantum throughout the month.	1001896	1471960881934	1471960882058		79
2079	21019	We had some measurement of gas from Quantum throughout the month.	We had some measurement of gas from Quantum throughout the month.	1001930	1471960882014	1471960882117		77
2079	21019	We had some measurement of gas from Quantum throughout the month.	We had some measurement of gas from Quantum throughout the month.	1001934	1471960882086	1471960882182		32
2079	21019	We had some measurement of gas from Quantum throughout the month.	We had some measurement of gas from Quantum throughout the month.	1001945	1471960882182	1471960882318	SHIFT	16
2079	21019	We had some measurement of gas from Quantum throughout the month.	We had some measurement of gas from Quantum throughout the month.	1001939	1471960882230	1471960882302		81
2079	21019	We had some measurement of gas from Quantum throughout the month.	We had some measurement of gas from Quantum throughout the month.	1001948	1471960882391	1471960882461		85
2079	21019	We had some measurement of gas from Quantum throughout the month.	We had some measurement of gas from Quantum throughout the month.	1001951	1471960882531	1471960882606		65
2079	21019	We had some measurement of gas from Quantum throughout the month.	We had some measurement of gas from Quantum throughout the month.	1001954	1471960882701	1471960882740		78
2079	21019	We had some measurement of gas from Quantum throughout the month.	We had some measurement of gas from Quantum throughout the month.	1001965	1471960882830	1471960882902		84
2079	21019	We had some measurement of gas from Quantum throughout the month.	We had some measurement of gas from Quantum throughout the month.	1001968	1471960882934	1471960882993		85
2079	21019	We had some measurement of gas from Quantum throughout the month.	We had some measurement of gas from Quantum throughout the month.	1001970	1471960883134	1471960883244		77
2079	21019	We had some measurement of gas from Quantum throughout the month.	We had some measurement of gas from Quantum throughout the month.	1001973	1471960883206	1471960883317		32
2079	21019	We had some measurement of gas from Quantum throughout the month.	We had some measurement of gas from Quantum throughout the month.	1002001	1471960883307	1471960883366		84
2079	21019	We had some measurement of gas from Quantum throughout the month.	We had some measurement of gas from Quantum throughout the month.	1002006	1471960883390	1471960883476		72
2079	21019	We had some measurement of gas from Quantum throughout the month.	We had some measurement of gas from Quantum throughout the month.	1002014	1471960883489	1471960883566		82
2079	21019	We had some measurement of gas from Quantum throughout the month.	We had some measurement of gas from Quantum throughout the month.	1002017	1471960883606	1471960883736		79
2079	21019	We had some measurement of gas from Quantum throughout the month.	We had some measurement of gas from Quantum throughout the month.	1002023	1471960883689	1471960883782		85
2079	21019	We had some measurement of gas from Quantum throughout the month.	We had some measurement of gas from Quantum throughout the month.	1002030	1471960883814	1471960883887		71
2079	21019	We had some measurement of gas from Quantum throughout the month.	We had some measurement of gas from Quantum throughout the month.	1002052	1471960883927	1471960884021		72
2079	21019	We had some measurement of gas from Quantum throughout the month.	We had some measurement of gas from Quantum throughout the month.	1002055	1471960884094	1471960884221		79
2079	21019	We had some measurement of gas from Quantum throughout the month.	We had some measurement of gas from Quantum throughout the month.	1002058	1471960884172	1471960884277		85
2079	21019	We had some measurement of gas from Quantum throughout the month.	We had some measurement of gas from Quantum throughout the month.	1002060	1471960884274	1471960884354		84
2079	21019	We had some measurement of gas from Quantum throughout the month.	We had some measurement of gas from Quantum throughout the month.	1002062	1471960884374	1471960884488		32
2079	21019	We had some measurement of gas from Quantum throughout the month.	We had some measurement of gas from Quantum throughout the month.	1002068	1471960884454	1471960884537		84
2079	21019	We had some measurement of gas from Quantum throughout the month.	We had some measurement of gas from Quantum throughout the month.	1002071	1471960884571	1471960884651		72
2079	21019	We had some measurement of gas from Quantum throughout the month.	We had some measurement of gas from Quantum throughout the month.	1002074	1471960884630	1471960884702		69
2079	21019	We had some measurement of gas from Quantum throughout the month.	We had some measurement of gas from Quantum throughout the month.	1002078	1471960884742	1471960884885		32
2079	21019	We had some measurement of gas from Quantum throughout the month.	We had some measurement of gas from Quantum throughout the month.	1002083	1471960884814	1471960884942		77
2079	21019	We had some measurement of gas from Quantum throughout the month.	We had some measurement of gas from Quantum throughout the month.	1002115	1471960884910	1471960885077		79
2079	21019	We had some measurement of gas from Quantum throughout the month.	We had some measurement of gas from Quantum throughout the month.	1002118	1471960885038	1471960885127		78
2079	21019	We had some measurement of gas from Quantum throughout the month.	We had some measurement of gas from Quantum throughout the month.	1002121	1471960885161	1471960885205		84
2079	21019	We had some measurement of gas from Quantum throughout the month.	We had some measurement of gas from Quantum throughout the month.	1002124	1471960885238	1471960885301		72
2079	21019	We had some measurement of gas from Quantum throughout the month.	We had some measurement of gas from Quantum throughout the month.	1002127	1471960885434	1471960885501		190
2079	21028	This is normal, they always do this.	This is normal, they always do this.	1002270	1471960888471	1471960888566	SHIFT	16
2079	21028	This is normal, they always do this.	This is normal, they always do this.	1002271	1471960888518	1471960888581		84
2079	21028	This is normal, they always do this.	This is normal, they always do this.	1002272	1471960888702	1471960888810		72
2079	21028	This is normal, they always do this.	This is normal, they always do this.	1002273	1471960888749	1471960888876		73
2079	21028	This is normal, they always do this.	This is normal, they always do this.	1002274	1471960888846	1471960888933		83
2079	21028	This is normal, they always do this.	This is normal, they always do this.	1002283	1471960888918	1471960889046		32
2079	21028	This is normal, they always do this.	This is normal, they always do this.	1002286	1471960888993	1471960889117		73
2079	21028	This is normal, they always do this.	This is normal, they always do this.	1002290	1471960889078	1471960889165		83
2079	21028	This is normal, they always do this.	This is normal, they always do this.	1002291	1471960889158	1471960889285		32
2079	21028	This is normal, they always do this.	This is normal, they always do this.	1002293	1471960889271	1471960889408		78
2079	21028	This is normal, they always do this.	This is normal, they always do this.	1002321	1471960889341	1471960889461		79
2079	21028	This is normal, they always do this.	This is normal, they always do this.	1002322	1471960889457	1471960889543		82
2079	21028	This is normal, they always do this.	This is normal, they always do this.	1002323	1471960889534	1471960889645		77
2079	21028	This is normal, they always do this.	This is normal, they always do this.	1002324	1471960889657	1471960889757		65
2079	21028	This is normal, they always do this.	This is normal, they always do this.	1002326	1471960889734	1471960889825		76
2079	21028	This is normal, they always do this.	This is normal, they always do this.	1002328	1471960889902	1471960890073		188
2079	21028	This is normal, they always do this.	This is normal, they always do this.	1002336	1471960889990	1471960890117		32
2079	21028	This is normal, they always do this.	This is normal, they always do this.	1002340	1471960890166	1471960890256		84
2079	21028	This is normal, they always do this.	This is normal, they always do this.	1002344	1471960890230	1471960890305		72
2079	21028	This is normal, they always do this.	This is normal, they always do this.	1002347	1471960890325	1471960890429		69
2079	21028	This is normal, they always do this.	This is normal, they always do this.	1002350	1471960890413	1471960890505		89
2079	21028	This is normal, they always do this.	This is normal, they always do this.	1002377	1471960890473	1471960890597		32
2079	21028	This is normal, they always do this.	This is normal, they always do this.	1002381	1471960890558	1471960890657		65
2079	21028	This is normal, they always do this.	This is normal, they always do this.	1002384	1471960890638	1471960890765		76
2079	21028	This is normal, they always do this.	This is normal, they always do this.	1002386	1471960890810	1471960890921		87
2079	21028	This is normal, they always do this.	This is normal, they always do this.	1002388	1471960890861	1471960890998		65
2079	21028	This is normal, they always do this.	This is normal, they always do this.	1002390	1471960891005	1471960891088		89
2079	21028	This is normal, they always do this.	This is normal, they always do this.	1002415	1471960891104	1471960891205		83
2079	21028	This is normal, they always do this.	This is normal, they always do this.	1002420	1471960891214	1471960891340		32
2079	21028	This is normal, they always do this.	This is normal, they always do this.	1002425	1471960891406	1471960891504		68
2079	21028	This is normal, they always do this.	This is normal, they always do this.	1002429	1471960891470	1471960891674		79
2079	21028	This is normal, they always do this.	This is normal, they always do this.	1002455	1471960891646	1471960891769		32
2079	21028	This is normal, they always do this.	This is normal, they always do this.	1002460	1471960891812	1471960891862		84
2079	21028	This is normal, they always do this.	This is normal, they always do this.	1002464	1471960891886	1471960892000		72
2079	21028	This is normal, they always do this.	This is normal, they always do this.	1002468	1471960891958	1471960892077		73
2079	21028	This is normal, they always do this.	This is normal, they always do this.	1002473	1471960892072	1471960892162		83
2079	21028	This is normal, they always do this.	This is normal, they always do this.	1002476	1471960892221	1471960892293		190
2079	21037	And leave my school alone.	And leave my school alone.	1002587	1471960894766	1471960894870	SHIFT	16
2079	21037	And leave my school alone.	And leave my school alone.	1002589	1471960894822	1471960894901		65
2079	21037	And leave my school alone.	And leave my school alone.	1002592	1471960894977	1471960895045		78
2079	21037	And leave my school alone.	And leave my school alone.	1002594	1471960895062	1471960895144		68
2079	21037	And leave my school alone.	And leave my school alone.	1002596	1471960895150	1471960895301		32
2079	21037	And leave my school alone.	And leave my school alone.	1002621	1471960895254	1471960895392		76
2079	21037	And leave my school alone.	And leave my school alone.	1002625	1471960895429	1471960895517		69
2079	21037	And leave my school alone.	And leave my school alone.	1002629	1471960895502	1471960895581		65
2079	21037	And leave my school alone.	And leave my school alone.	1002633	1471960895646	1471960895759		86
2079	21037	And leave my school alone.	And leave my school alone.	1002637	1471960895717	1471960895840		69
2079	21037	And leave my school alone.	And leave my school alone.	1002654	1471960895794	1471960895917		32
2079	21037	And leave my school alone.	And leave my school alone.	1002656	1471960895885	1471960895960		77
2079	21037	And leave my school alone.	And leave my school alone.	1002661	1471960896077	1471960896213		89
2079	21037	And leave my school alone.	And leave my school alone.	1002663	1471960896165	1471960896270		32
2079	21037	And leave my school alone.	And leave my school alone.	1002665	1471960896264	1471960896393		83
2079	21037	And leave my school alone.	And leave my school alone.	1002678	1471960896365	1471960896493		67
2079	21037	And leave my school alone.	And leave my school alone.	1002682	1471960896426	1471960896541		72
2079	21037	And leave my school alone.	And leave my school alone.	1002687	1471960896502	1471960896574		79
2079	21037	And leave my school alone.	And leave my school alone.	1002691	1471960896661	1471960896717		79
2079	21037	And leave my school alone.	And leave my school alone.	1002695	1471960896829	1471960896941		76
2079	21037	And leave my school alone.	And leave my school alone.	1002704	1471960896885	1471960897026		32
2079	21037	And leave my school alone.	And leave my school alone.	1002706	1471960897029	1471960897149		65
2079	21037	And leave my school alone.	And leave my school alone.	1002709	1471960897118	1471960897197		76
2079	21037	And leave my school alone.	And leave my school alone.	1002714	1471960897290	1471960897413		79
2079	21037	And leave my school alone.	And leave my school alone.	1002719	1471960897350	1471960897461		78
2079	21037	And leave my school alone.	And leave my school alone.	1002726	1471960897477	1471960897549		69
2079	21037	And leave my school alone.	And leave my school alone.	1002721	1471960897589	1471960897661		190
2079	21042	The French diplomat meanwhile reiterated his condemnation.	The French diplomat meanwhile reiterated his condemnation.	1002836	1471960899453	1471960899557	SHIFT	16
2079	21042	The French diplomat meanwhile reiterated his condemnation.	The French diplomat meanwhile reiterated his condemnation.	1002844	1471960899525	1471960899589		84
2079	21042	The French diplomat meanwhile reiterated his condemnation.	The French diplomat meanwhile reiterated his condemnation.	1002854	1471960899717	1471960899829		72
2079	21042	The French diplomat meanwhile reiterated his condemnation.	The French diplomat meanwhile reiterated his condemnation.	1002859	1471960899885	1471960899957		69
2079	21042	The French diplomat meanwhile reiterated his condemnation.	The French diplomat meanwhile reiterated his condemnation.	1002865	1471960900005	1471960900082		32
2079	21042	The French diplomat meanwhile reiterated his condemnation.	The French diplomat meanwhile reiterated his condemnation.	1002880	1471960900165	1471960900325	SHIFT	16
2079	21042	The French diplomat meanwhile reiterated his condemnation.	The French diplomat meanwhile reiterated his condemnation.	1002870	1471960900238	1471960900310		70
2079	21042	The French diplomat meanwhile reiterated his condemnation.	The French diplomat meanwhile reiterated his condemnation.	1002884	1471960900421	1471960900565		82
2079	21042	The French diplomat meanwhile reiterated his condemnation.	The French diplomat meanwhile reiterated his condemnation.	1002887	1471960900525	1471960900637		69
2079	21042	The French diplomat meanwhile reiterated his condemnation.	The French diplomat meanwhile reiterated his condemnation.	1002891	1471960900653	1471960900765		78
2079	21042	The French diplomat meanwhile reiterated his condemnation.	The French diplomat meanwhile reiterated his condemnation.	1002900	1471960900848	1471960900917		67
2079	21042	The French diplomat meanwhile reiterated his condemnation.	The French diplomat meanwhile reiterated his condemnation.	1002906	1471960900949	1471960901021		72
2079	21042	The French diplomat meanwhile reiterated his condemnation.	The French diplomat meanwhile reiterated his condemnation.	1002945	1471960901103	1471960901207		32
2079	21042	The French diplomat meanwhile reiterated his condemnation.	The French diplomat meanwhile reiterated his condemnation.	1002949	1471960901345	1471960901427		68
2079	21042	The French diplomat meanwhile reiterated his condemnation.	The French diplomat meanwhile reiterated his condemnation.	1002953	1471960901427	1471960901585		73
2079	21042	The French diplomat meanwhile reiterated his condemnation.	The French diplomat meanwhile reiterated his condemnation.	1002956	1471960901552	1471960901642		80
2079	21042	The French diplomat meanwhile reiterated his condemnation.	The French diplomat meanwhile reiterated his condemnation.	1002961	1471960901712	1471960901781		76
2079	21042	The French diplomat meanwhile reiterated his condemnation.	The French diplomat meanwhile reiterated his condemnation.	1002987	1471960901867	1471960901949		79
2079	21042	The French diplomat meanwhile reiterated his condemnation.	The French diplomat meanwhile reiterated his condemnation.	1002993	1471960901977	1471960902077		77
2079	21042	The French diplomat meanwhile reiterated his condemnation.	The French diplomat meanwhile reiterated his condemnation.	1002999	1471960902116	1471960902205		65
2079	21042	The French diplomat meanwhile reiterated his condemnation.	The French diplomat meanwhile reiterated his condemnation.	1003007	1471960902193	1471960902271		84
2079	21042	The French diplomat meanwhile reiterated his condemnation.	The French diplomat meanwhile reiterated his condemnation.	1003010	1471960902333	1471960902471		32
2079	21042	The French diplomat meanwhile reiterated his condemnation.	The French diplomat meanwhile reiterated his condemnation.	1003028	1471960902445	1471960902579		77
2079	21042	The French diplomat meanwhile reiterated his condemnation.	The French diplomat meanwhile reiterated his condemnation.	1003030	1471960902646	1471960902792		69
2079	21042	The French diplomat meanwhile reiterated his condemnation.	The French diplomat meanwhile reiterated his condemnation.	1003032	1471960902748	1471960902854		65
2079	21042	The French diplomat meanwhile reiterated his condemnation.	The French diplomat meanwhile reiterated his condemnation.	1003035	1471960902798	1471960902878		78
2079	21042	The French diplomat meanwhile reiterated his condemnation.	The French diplomat meanwhile reiterated his condemnation.	1003037	1471960902929	1471960903014		83
2079	21042	The French diplomat meanwhile reiterated his condemnation.	The French diplomat meanwhile reiterated his condemnation.	1003040	1471960903026	1471960903133		72
2079	21042	The French diplomat meanwhile reiterated his condemnation.	The French diplomat meanwhile reiterated his condemnation.	1003080	1471960903392	1471960903445		8
2079	21042	The French diplomat meanwhile reiterated his condemnation.	The French diplomat meanwhile reiterated his condemnation.	1003083	1471960903517	1471960903581		8
2079	21042	The French diplomat meanwhile reiterated his condemnation.	The French diplomat meanwhile reiterated his condemnation.	1003087	1471960903975	1471960904045		87
2079	21042	The French diplomat meanwhile reiterated his condemnation.	The French diplomat meanwhile reiterated his condemnation.	1003088	1471960904057	1471960904190		72
2079	21042	The French diplomat meanwhile reiterated his condemnation.	The French diplomat meanwhile reiterated his condemnation.	1003100	1471960904134	1471960904274		73
2079	21042	The French diplomat meanwhile reiterated his condemnation.	The French diplomat meanwhile reiterated his condemnation.	1003103	1471960904213	1471960904333		76
2079	21042	The French diplomat meanwhile reiterated his condemnation.	The French diplomat meanwhile reiterated his condemnation.	1003105	1471960904306	1471960904397		69
2079	21042	The French diplomat meanwhile reiterated his condemnation.	The French diplomat meanwhile reiterated his condemnation.	1003109	1471960904415	1471960904533		32
2079	21042	The French diplomat meanwhile reiterated his condemnation.	The French diplomat meanwhile reiterated his condemnation.	1003112	1471960904589	1471960904724		82
2079	21042	The French diplomat meanwhile reiterated his condemnation.	The French diplomat meanwhile reiterated his condemnation.	1003135	1471960904661	1471960904775		69
2079	21042	The French diplomat meanwhile reiterated his condemnation.	The French diplomat meanwhile reiterated his condemnation.	1003139	1471960904757	1471960904858		73
2079	21042	The French diplomat meanwhile reiterated his condemnation.	The French diplomat meanwhile reiterated his condemnation.	1003144	1471960904888	1471960904941		84
2079	21042	The French diplomat meanwhile reiterated his condemnation.	The French diplomat meanwhile reiterated his condemnation.	1003147	1471960905041	1471960905149		69
2079	21042	The French diplomat meanwhile reiterated his condemnation.	The French diplomat meanwhile reiterated his condemnation.	1003148	1471960905104	1471960905205		82
2079	21042	The French diplomat meanwhile reiterated his condemnation.	The French diplomat meanwhile reiterated his condemnation.	1003149	1471960905238	1471960905338		65
2079	21042	The French diplomat meanwhile reiterated his condemnation.	The French diplomat meanwhile reiterated his condemnation.	1003157	1471960905421	1471960905521		84
2079	21042	The French diplomat meanwhile reiterated his condemnation.	The French diplomat meanwhile reiterated his condemnation.	1003162	1471960905493	1471960905581		69
2079	21042	The French diplomat meanwhile reiterated his condemnation.	The French diplomat meanwhile reiterated his condemnation.	1003165	1471960905687	1471960905759		68
2079	21042	The French diplomat meanwhile reiterated his condemnation.	The French diplomat meanwhile reiterated his condemnation.	1003170	1471960905769	1471960905887		32
2079	21042	The French diplomat meanwhile reiterated his condemnation.	The French diplomat meanwhile reiterated his condemnation.	1003189	1471960905877	1471960906005		72
2079	21042	The French diplomat meanwhile reiterated his condemnation.	The French diplomat meanwhile reiterated his condemnation.	1003192	1471960905941	1471960906102		73
2079	21042	The French diplomat meanwhile reiterated his condemnation.	The French diplomat meanwhile reiterated his condemnation.	1003194	1471960906073	1471960906141		83
2079	21042	The French diplomat meanwhile reiterated his condemnation.	The French diplomat meanwhile reiterated his condemnation.	1003197	1471960906173	1471960906277		32
2079	21042	The French diplomat meanwhile reiterated his condemnation.	The French diplomat meanwhile reiterated his condemnation.	1003200	1471960906302	1471960906389		67
2079	21042	The French diplomat meanwhile reiterated his condemnation.	The French diplomat meanwhile reiterated his condemnation.	1003205	1471960906405	1471960906534		79
2079	21042	The French diplomat meanwhile reiterated his condemnation.	The French diplomat meanwhile reiterated his condemnation.	1003224	1471960906485	1471960906603		78
2079	21042	The French diplomat meanwhile reiterated his condemnation.	The French diplomat meanwhile reiterated his condemnation.	1003227	1471960906589	1471960906644		68
2079	21042	The French diplomat meanwhile reiterated his condemnation.	The French diplomat meanwhile reiterated his condemnation.	1003231	1471960906757	1471960906833		69
2079	21042	The French diplomat meanwhile reiterated his condemnation.	The French diplomat meanwhile reiterated his condemnation.	1003234	1471960906800	1471960906853		77
2079	21042	The French diplomat meanwhile reiterated his condemnation.	The French diplomat meanwhile reiterated his condemnation.	1003237	1471960906951	1471960907033		78
2079	21042	The French diplomat meanwhile reiterated his condemnation.	The French diplomat meanwhile reiterated his condemnation.	1003239	1471960907102	1471960907215		65
2079	21042	The French diplomat meanwhile reiterated his condemnation.	The French diplomat meanwhile reiterated his condemnation.	1003260	1471960907165	1471960907284		84
2079	21042	The French diplomat meanwhile reiterated his condemnation.	The French diplomat meanwhile reiterated his condemnation.	1003263	1471960907271	1471960907437		73
2079	21042	The French diplomat meanwhile reiterated his condemnation.	The French diplomat meanwhile reiterated his condemnation.	1003266	1471960907341	1471960907481		79
2079	21042	The French diplomat meanwhile reiterated his condemnation.	The French diplomat meanwhile reiterated his condemnation.	1003269	1471960907408	1471960907517		78
2079	21042	The French diplomat meanwhile reiterated his condemnation.	The French diplomat meanwhile reiterated his condemnation.	1003272	1471960907617	1471960907707		190
2079	21060	I didn't hear from Ginger this week.	I didn't hear from Ginger this week.	1003485	1471960910117	1471960910245	SHIFT	16
2079	21060	I didn't hear from Ginger this week.	I didn't hear from Ginger this week.	1003492	1471960910163	1471960910268		73
2079	21060	I didn't hear from Ginger this week.	I didn't hear from Ginger this week.	1003497	1471960910262	1471960910381		32
2079	21060	I didn't hear from Ginger this week.	I didn't hear from Ginger this week.	1003504	1471960910409	1471960910485		68
2079	21060	I didn't hear from Ginger this week.	I didn't hear from Ginger this week.	1003506	1471960910463	1471960910535		73
2079	21060	I didn't hear from Ginger this week.	I didn't hear from Ginger this week.	1003539	1471960910534	1471960910641		68
2079	21060	I didn't hear from Ginger this week.	I didn't hear from Ginger this week.	1003542	1471960910685	1471960910849		78
2079	21060	I didn't hear from Ginger this week.	I didn't hear from Ginger this week.	1003546	1471960910757	1471960910933		222
2079	21060	I didn't hear from Ginger this week.	I didn't hear from Ginger this week.	1003548	1471960910877	1471960910941		84
2079	21060	I didn't hear from Ginger this week.	I didn't hear from Ginger this week.	1003550	1471960911061	1471960911172		32
2079	21060	I didn't hear from Ginger this week.	I didn't hear from Ginger this week.	1003552	1471960911197	1471960911312		72
2079	21060	I didn't hear from Ginger this week.	I didn't hear from Ginger this week.	1003568	1471960911309	1471960911445		69
2079	21060	I didn't hear from Ginger this week.	I didn't hear from Ginger this week.	1003572	1471960911406	1471960911517		65
2079	21060	I didn't hear from Ginger this week.	I didn't hear from Ginger this week.	1003574	1471960911471	1471960911555		82
2079	21060	I didn't hear from Ginger this week.	I didn't hear from Ginger this week.	1003578	1471960911613	1471960911725		32
2079	21060	I didn't hear from Ginger this week.	I didn't hear from Ginger this week.	1003582	1471960911709	1471960911797		70
2079	21060	I didn't hear from Ginger this week.	I didn't hear from Ginger this week.	1003586	1471960911888	1471960911973		82
2079	21060	I didn't hear from Ginger this week.	I didn't hear from Ginger this week.	1003623	1471960911936	1471960912070		79
2079	21060	I didn't hear from Ginger this week.	I didn't hear from Ginger this week.	1003632	1471960912023	1471960912152		77
2079	21060	I didn't hear from Ginger this week.	I didn't hear from Ginger this week.	1003636	1471960912105	1471960912206		32
2079	21060	I didn't hear from Ginger this week.	I didn't hear from Ginger this week.	1003648	1471960912213	1471960912337	SHIFT	16
2079	21060	I didn't hear from Ginger this week.	I didn't hear from Ginger this week.	1003642	1471960912245	1471960912309		71
2079	21060	I didn't hear from Ginger this week.	I didn't hear from Ginger this week.	1003653	1471960912445	1471960912569		73
2079	21060	I didn't hear from Ginger this week.	I didn't hear from Ginger this week.	1003660	1471960912520	1471960912636		78
2079	21060	I didn't hear from Ginger this week.	I didn't hear from Ginger this week.	1003663	1471960912597	1471960912677		71
2079	21060	I didn't hear from Ginger this week.	I didn't hear from Ginger this week.	1003666	1471960912797	1471960912909		69
2079	21060	I didn't hear from Ginger this week.	I didn't hear from Ginger this week.	1003670	1471960912877	1471960912969		82
2079	21060	I didn't hear from Ginger this week.	I didn't hear from Ginger this week.	1003674	1471960912935	1471960913037		32
2079	21060	I didn't hear from Ginger this week.	I didn't hear from Ginger this week.	1003680	1471960913053	1471960913125		84
2079	21060	I didn't hear from Ginger this week.	I didn't hear from Ginger this week.	1003689	1471960913136	1471960913261		72
2079	21060	I didn't hear from Ginger this week.	I didn't hear from Ginger this week.	1003700	1471960913201	1471960913385		73
2079	21060	I didn't hear from Ginger this week.	I didn't hear from Ginger this week.	1003695	1471960913261	1471960913357		83
2079	21060	I didn't hear from Ginger this week.	I didn't hear from Ginger this week.	1003706	1471960913371	1471960913477		32
2079	21060	I didn't hear from Ginger this week.	I didn't hear from Ginger this week.	1003738	1471960913469	1471960913576		87
2079	21060	I didn't hear from Ginger this week.	I didn't hear from Ginger this week.	1003743	1471960913541	1471960913604		69
2079	21060	I didn't hear from Ginger this week.	I didn't hear from Ginger this week.	1003752	1471960913693	1471960913773		69
2079	21060	I didn't hear from Ginger this week.	I didn't hear from Ginger this week.	1003757	1471960913767	1471960913861		75
2079	21060	I didn't hear from Ginger this week.	I didn't hear from Ginger this week.	1003762	1471960913957	1471960914049		190
2079	21064	Or are you going to be tied up with dinner?	Or are you going to be tied up with dinner?	1003924	1471960917327	1471960917447	SHIFT	16
2079	21064	Or are you going to be tied up with dinner?	Or are you going to be tied up with dinner?	1003930	1471960917386	1471960917476		79
2079	21064	Or are you going to be tied up with dinner?	Or are you going to be tied up with dinner?	1003936	1471960917549	1471960917648		82
2079	21064	Or are you going to be tied up with dinner?	Or are you going to be tied up with dinner?	1003943	1471960917660	1471960917777		32
2079	21064	Or are you going to be tied up with dinner?	Or are you going to be tied up with dinner?	1003948	1471960917757	1471960917911		65
2079	21064	Or are you going to be tied up with dinner?	Or are you going to be tied up with dinner?	1003959	1471960917876	1471960918012		82
2079	21064	Or are you going to be tied up with dinner?	Or are you going to be tied up with dinner?	1003961	1471960917941	1471960918073		69
2079	21064	Or are you going to be tied up with dinner?	Or are you going to be tied up with dinner?	1003964	1471960918008	1471960918164		32
2079	21064	Or are you going to be tied up with dinner?	Or are you going to be tied up with dinner?	1003967	1471960918117	1471960918206		89
2079	21064	Or are you going to be tied up with dinner?	Or are you going to be tied up with dinner?	1003969	1471960918255	1471960918373		79
2079	21064	Or are you going to be tied up with dinner?	Or are you going to be tied up with dinner?	1003978	1471960918308	1471960918477		85
2079	21064	Or are you going to be tied up with dinner?	Or are you going to be tied up with dinner?	1003982	1471960918381	1471960918533		32
2079	21064	Or are you going to be tied up with dinner?	Or are you going to be tied up with dinner?	1003990	1471960918491	1471960918557		71
2079	21064	Or are you going to be tied up with dinner?	Or are you going to be tied up with dinner?	1003995	1471960918581	1471960918765		79
2079	21064	Or are you going to be tied up with dinner?	Or are you going to be tied up with dinner?	1004027	1471960918677	1471960918860		73
2079	21064	Or are you going to be tied up with dinner?	Or are you going to be tied up with dinner?	1004029	1471960918757	1471960918957		78
2079	21064	Or are you going to be tied up with dinner?	Or are you going to be tied up with dinner?	1004032	1471960918877	1471960918988		71
2079	21064	Or are you going to be tied up with dinner?	Or are you going to be tied up with dinner?	1004035	1471960919011	1471960919157		32
2079	21064	Or are you going to be tied up with dinner?	Or are you going to be tied up with dinner?	1004038	1471960919149	1471960919229		84
2079	21064	Or are you going to be tied up with dinner?	Or are you going to be tied up with dinner?	1004043	1471960919236	1471960919388		79
2079	21064	Or are you going to be tied up with dinner?	Or are you going to be tied up with dinner?	1004082	1471960919322	1471960919461		32
2079	21064	Or are you going to be tied up with dinner?	Or are you going to be tied up with dinner?	1004084	1471960919453	1471960919573		66
2079	21064	Or are you going to be tied up with dinner?	Or are you going to be tied up with dinner?	1004086	1471960919527	1471960919672		69
2079	21064	Or are you going to be tied up with dinner?	Or are you going to be tied up with dinner?	1004089	1471960919653	1471960919773		32
2079	21064	Or are you going to be tied up with dinner?	Or are you going to be tied up with dinner?	1004090	1471960919797	1471960919885		68
2079	21064	Or are you going to be tied up with dinner?	Or are you going to be tied up with dinner?	1004093	1471960920157	1471960920212		8
2079	21064	Or are you going to be tied up with dinner?	Or are you going to be tied up with dinner?	1004118	1471960920277	1471960920354		84
2079	21064	Or are you going to be tied up with dinner?	Or are you going to be tied up with dinner?	1004119	1471960920401	1471960920460		73
2079	21064	Or are you going to be tied up with dinner?	Or are you going to be tied up with dinner?	1004120	1471960920777	1471960920856		69
2079	21064	Or are you going to be tied up with dinner?	Or are you going to be tied up with dinner?	1004122	1471960920950	1471960921048		68
2079	21064	Or are you going to be tied up with dinner?	Or are you going to be tied up with dinner?	1004124	1471960921061	1471960921184		32
2079	21064	Or are you going to be tied up with dinner?	Or are you going to be tied up with dinner?	1004145	1471960921166	1471960921349		85
2079	21064	Or are you going to be tied up with dinner?	Or are you going to be tied up with dinner?	1004148	1471960921253	1471960921374		80
2079	21064	Or are you going to be tied up with dinner?	Or are you going to be tied up with dinner?	1004151	1471960921317	1471960921447		32
2079	21064	Or are you going to be tied up with dinner?	Or are you going to be tied up with dinner?	1004154	1471960921453	1471960921532		87
2079	21064	Or are you going to be tied up with dinner?	Or are you going to be tied up with dinner?	1004156	1471960921500	1471960921621		73
2079	21064	Or are you going to be tied up with dinner?	Or are you going to be tied up with dinner?	1004157	1471960921622	1471960921697		84
2079	21064	Or are you going to be tied up with dinner?	Or are you going to be tied up with dinner?	1004165	1471960921664	1471960921813		72
2079	21064	Or are you going to be tied up with dinner?	Or are you going to be tied up with dinner?	1004169	1471960921765	1471960921882		32
2079	21064	Or are you going to be tied up with dinner?	Or are you going to be tied up with dinner?	1004172	1471960921868	1471960921966		68
2079	21064	Or are you going to be tied up with dinner?	Or are you going to be tied up with dinner?	1004175	1471960921957	1471960922052		73
2079	21064	Or are you going to be tied up with dinner?	Or are you going to be tied up with dinner?	1004177	1471960922053	1471960922133		78
2079	21064	Or are you going to be tied up with dinner?	Or are you going to be tied up with dinner?	1004180	1471960922221	1471960922301		78
2079	21064	Or are you going to be tied up with dinner?	Or are you going to be tied up with dinner?	1004196	1471960922334	1471960922428		69
2079	21064	Or are you going to be tied up with dinner?	Or are you going to be tied up with dinner?	1004199	1471960922388	1471960922501		82
2079	21064	Or are you going to be tied up with dinner?	Or are you going to be tied up with dinner?	1004201	1471960922496	1471960922661	SHIFT	16
2079	21064	Or are you going to be tied up with dinner?	Or are you going to be tied up with dinner?	1004200	1471960922545	1471960922620		191
2079	21076	Last week Ballesteros had 16 pars and two birdies in his final round.	Last week Ballesteros had 16 pars and two birdies in his final round.	1004450	1471960927253	1471960927352	SHIFT	16
2079	21076	Last week Ballesteros had 16 pars and two birdies in his final round.	Last week Ballesteros had 16 pars and two birdies in his final round.	1004456	1471960927301	1471960927401		76
2079	21076	Last week Ballesteros had 16 pars and two birdies in his final round.	Last week Ballesteros had 16 pars and two birdies in his final round.	1004464	1471960927485	1471960927635		65
2079	21076	Last week Ballesteros had 16 pars and two birdies in his final round.	Last week Ballesteros had 16 pars and two birdies in his final round.	1004471	1471960927583	1471960927740		83
2079	21076	Last week Ballesteros had 16 pars and two birdies in his final round.	Last week Ballesteros had 16 pars and two birdies in his final round.	1004476	1471960927721	1471960927832		84
2079	21076	Last week Ballesteros had 16 pars and two birdies in his final round.	Last week Ballesteros had 16 pars and two birdies in his final round.	1004483	1471960927768	1471960927892		32
2079	21076	Last week Ballesteros had 16 pars and two birdies in his final round.	Last week Ballesteros had 16 pars and two birdies in his final round.	1004488	1471960927908	1471960928026		87
2079	21076	Last week Ballesteros had 16 pars and two birdies in his final round.	Last week Ballesteros had 16 pars and two birdies in his final round.	1004492	1471960927973	1471960928052		69
2079	21076	Last week Ballesteros had 16 pars and two birdies in his final round.	Last week Ballesteros had 16 pars and two birdies in his final round.	1004497	1471960928135	1471960928216		69
2079	21076	Last week Ballesteros had 16 pars and two birdies in his final round.	Last week Ballesteros had 16 pars and two birdies in his final round.	1004503	1471960928189	1471960928340		75
2079	21076	Last week Ballesteros had 16 pars and two birdies in his final round.	Last week Ballesteros had 16 pars and two birdies in his final round.	1004530	1471960928309	1471960928415		32
2079	21076	Last week Ballesteros had 16 pars and two birdies in his final round.	Last week Ballesteros had 16 pars and two birdies in his final round.	1004533	1471960928468	1471960928604	SHIFT	16
2079	21076	Last week Ballesteros had 16 pars and two birdies in his final round.	Last week Ballesteros had 16 pars and two birdies in his final round.	1004536	1471960928535	1471960928613		66
2079	21076	Last week Ballesteros had 16 pars and two birdies in his final round.	Last week Ballesteros had 16 pars and two birdies in his final round.	1004539	1471960928701	1471960928815		65
2079	21076	Last week Ballesteros had 16 pars and two birdies in his final round.	Last week Ballesteros had 16 pars and two birdies in his final round.	1004541	1471960928766	1471960928830		76
2079	21076	Last week Ballesteros had 16 pars and two birdies in his final round.	Last week Ballesteros had 16 pars and two birdies in his final round.	1004543	1471960928901	1471960929007		76
2079	21076	Last week Ballesteros had 16 pars and two birdies in his final round.	Last week Ballesteros had 16 pars and two birdies in his final round.	1004563	1471960929005	1471960929157		69
2079	21076	Last week Ballesteros had 16 pars and two birdies in his final round.	Last week Ballesteros had 16 pars and two birdies in his final round.	1004569	1471960929149	1471960929284		83
2079	21076	Last week Ballesteros had 16 pars and two birdies in his final round.	Last week Ballesteros had 16 pars and two birdies in his final round.	1004572	1471960929264	1471960929356		84
2079	21076	Last week Ballesteros had 16 pars and two birdies in his final round.	Last week Ballesteros had 16 pars and two birdies in his final round.	1004575	1471960929437	1471960929556		69
2079	21076	Last week Ballesteros had 16 pars and two birdies in his final round.	Last week Ballesteros had 16 pars and two birdies in his final round.	1004579	1471960929511	1471960929629		82
2079	21076	Last week Ballesteros had 16 pars and two birdies in his final round.	Last week Ballesteros had 16 pars and two birdies in his final round.	1004583	1471960929701	1471960929813		79
2079	21076	Last week Ballesteros had 16 pars and two birdies in his final round.	Last week Ballesteros had 16 pars and two birdies in his final round.	1004587	1471960929845	1471960929948		83
2079	21076	Last week Ballesteros had 16 pars and two birdies in his final round.	Last week Ballesteros had 16 pars and two birdies in his final round.	1004591	1471960929998	1471960930133		32
2079	21076	Last week Ballesteros had 16 pars and two birdies in his final round.	Last week Ballesteros had 16 pars and two birdies in his final round.	1004593	1471960930102	1471960930228		72
2079	21076	Last week Ballesteros had 16 pars and two birdies in his final round.	Last week Ballesteros had 16 pars and two birdies in his final round.	1004595	1471960930149	1471960930268		65
2079	21076	Last week Ballesteros had 16 pars and two birdies in his final round.	Last week Ballesteros had 16 pars and two birdies in his final round.	1004645	1471960930260	1471960930380		68
2079	21076	Last week Ballesteros had 16 pars and two birdies in his final round.	Last week Ballesteros had 16 pars and two birdies in his final round.	1004648	1471960930377	1471960930494		32
2079	21076	Last week Ballesteros had 16 pars and two birdies in his final round.	Last week Ballesteros had 16 pars and two birdies in his final round.	1004652	1471960930653	1471960930732		49
2079	21076	Last week Ballesteros had 16 pars and two birdies in his final round.	Last week Ballesteros had 16 pars and two birdies in his final round.	1004658	1471960930948	1471960931008		53
2079	21076	Last week Ballesteros had 16 pars and two birdies in his final round.	Last week Ballesteros had 16 pars and two birdies in his final round.	1004660	1471960931493	1471960931556		8
2079	21076	Last week Ballesteros had 16 pars and two birdies in his final round.	Last week Ballesteros had 16 pars and two birdies in his final round.	1004665	1471960931668	1471960931726		54
2079	21076	Last week Ballesteros had 16 pars and two birdies in his final round.	Last week Ballesteros had 16 pars and two birdies in his final round.	1004684	1471960931826	1471960931908		32
2079	21076	Last week Ballesteros had 16 pars and two birdies in his final round.	Last week Ballesteros had 16 pars and two birdies in his final round.	1004686	1471960931964	1471960932060		80
2079	21076	Last week Ballesteros had 16 pars and two birdies in his final round.	Last week Ballesteros had 16 pars and two birdies in his final round.	1004687	1471960932044	1471960932148		65
2079	21076	Last week Ballesteros had 16 pars and two birdies in his final round.	Last week Ballesteros had 16 pars and two birdies in his final round.	1004689	1471960932117	1471960932212		82
2079	21076	Last week Ballesteros had 16 pars and two birdies in his final round.	Last week Ballesteros had 16 pars and two birdies in his final round.	1004692	1471960932381	1471960932476		83
2079	21076	Last week Ballesteros had 16 pars and two birdies in his final round.	Last week Ballesteros had 16 pars and two birdies in his final round.	1004701	1471960932495	1471960932572		32
2079	21076	Last week Ballesteros had 16 pars and two birdies in his final round.	Last week Ballesteros had 16 pars and two birdies in his final round.	1004703	1471960932580	1471960932660		65
2079	21076	Last week Ballesteros had 16 pars and two birdies in his final round.	Last week Ballesteros had 16 pars and two birdies in his final round.	1004706	1471960932654	1471960932756		78
2079	21076	Last week Ballesteros had 16 pars and two birdies in his final round.	Last week Ballesteros had 16 pars and two birdies in his final round.	1004708	1471960932703	1471960932829		68
2079	21076	Last week Ballesteros had 16 pars and two birdies in his final round.	Last week Ballesteros had 16 pars and two birdies in his final round.	1004741	1471960932811	1471960932926		32
2079	21076	Last week Ballesteros had 16 pars and two birdies in his final round.	Last week Ballesteros had 16 pars and two birdies in his final round.	1004744	1471960932893	1471960932964		84
2079	21076	Last week Ballesteros had 16 pars and two birdies in his final round.	Last week Ballesteros had 16 pars and two birdies in his final round.	1004748	1471960933026	1471960933192		87
2079	21076	Last week Ballesteros had 16 pars and two birdies in his final round.	Last week Ballesteros had 16 pars and two birdies in his final round.	1004751	1471960933174	1471960933244		79
2079	21076	Last week Ballesteros had 16 pars and two birdies in his final round.	Last week Ballesteros had 16 pars and two birdies in his final round.	1004755	1471960933508	1471960933556		66
2079	21076	Last week Ballesteros had 16 pars and two birdies in his final round.	Last week Ballesteros had 16 pars and two birdies in his final round.	1004780	1471960933581	1471960933676		73
2079	21076	Last week Ballesteros had 16 pars and two birdies in his final round.	Last week Ballesteros had 16 pars and two birdies in his final round.	1004783	1471960933710	1471960933772		82
2079	21076	Last week Ballesteros had 16 pars and two birdies in his final round.	Last week Ballesteros had 16 pars and two birdies in his final round.	1004785	1471960933901	1471960934012		68
2079	21076	Last week Ballesteros had 16 pars and two birdies in his final round.	Last week Ballesteros had 16 pars and two birdies in his final round.	1004786	1471960934037	1471960934140		73
2079	21076	Last week Ballesteros had 16 pars and two birdies in his final round.	Last week Ballesteros had 16 pars and two birdies in his final round.	1004787	1471960934183	1471960934333		69
2079	21076	Last week Ballesteros had 16 pars and two birdies in his final round.	Last week Ballesteros had 16 pars and two birdies in his final round.	1004798	1471960934277	1471960934388		83
2079	21076	Last week Ballesteros had 16 pars and two birdies in his final round.	Last week Ballesteros had 16 pars and two birdies in his final round.	1004800	1471960934373	1471960934476		32
2079	21076	Last week Ballesteros had 16 pars and two birdies in his final round.	Last week Ballesteros had 16 pars and two birdies in his final round.	1004803	1471960934487	1471960934599		73
2079	21076	Last week Ballesteros had 16 pars and two birdies in his final round.	Last week Ballesteros had 16 pars and two birdies in his final round.	1004808	1471960934557	1471960934660		78
2079	21076	Last week Ballesteros had 16 pars and two birdies in his final round.	Last week Ballesteros had 16 pars and two birdies in his final round.	1004812	1471960934615	1471960934708		32
2079	21076	Last week Ballesteros had 16 pars and two birdies in his final round.	Last week Ballesteros had 16 pars and two birdies in his final round.	1004818	1471960934766	1471960934893		72
2079	21076	Last week Ballesteros had 16 pars and two birdies in his final round.	Last week Ballesteros had 16 pars and two birdies in his final round.	1004829	1471960934836	1471960934973		73
2079	21076	Last week Ballesteros had 16 pars and two birdies in his final round.	Last week Ballesteros had 16 pars and two birdies in his final round.	1004832	1471960934941	1471960935036		83
2079	21076	Last week Ballesteros had 16 pars and two birdies in his final round.	Last week Ballesteros had 16 pars and two birdies in his final round.	1004834	1471960935060	1471960935158		32
2079	21076	Last week Ballesteros had 16 pars and two birdies in his final round.	Last week Ballesteros had 16 pars and two birdies in his final round.	1004836	1471960935156	1471960935276		70
2079	21076	Last week Ballesteros had 16 pars and two birdies in his final round.	Last week Ballesteros had 16 pars and two birdies in his final round.	1004841	1471960935316	1471960935436		73
2079	21076	Last week Ballesteros had 16 pars and two birdies in his final round.	Last week Ballesteros had 16 pars and two birdies in his final round.	1004872	1471960935388	1471960935500		78
2079	21076	Last week Ballesteros had 16 pars and two birdies in his final round.	Last week Ballesteros had 16 pars and two birdies in his final round.	1004875	1471960935508	1471960935588		65
2079	21076	Last week Ballesteros had 16 pars and two birdies in his final round.	Last week Ballesteros had 16 pars and two birdies in his final round.	1004882	1471960935615	1471960935748		76
2079	21076	Last week Ballesteros had 16 pars and two birdies in his final round.	Last week Ballesteros had 16 pars and two birdies in his final round.	1004887	1471960935716	1471960935850		32
2079	21076	Last week Ballesteros had 16 pars and two birdies in his final round.	Last week Ballesteros had 16 pars and two birdies in his final round.	1004889	1471960935848	1471960935908		82
2079	21076	Last week Ballesteros had 16 pars and two birdies in his final round.	Last week Ballesteros had 16 pars and two birdies in his final round.	1004892	1471960935981	1471960936089		79
2079	21076	Last week Ballesteros had 16 pars and two birdies in his final round.	Last week Ballesteros had 16 pars and two birdies in his final round.	1004903	1471960936047	1471960936125		85
2079	21076	Last week Ballesteros had 16 pars and two birdies in his final round.	Last week Ballesteros had 16 pars and two birdies in his final round.	1004905	1471960936220	1471960936284		78
2079	21076	Last week Ballesteros had 16 pars and two birdies in his final round.	Last week Ballesteros had 16 pars and two birdies in his final round.	1004909	1471960936312	1471960936414		68
2079	21076	Last week Ballesteros had 16 pars and two birdies in his final round.	Last week Ballesteros had 16 pars and two birdies in his final round.	1004914	1471960936404	1471960936478		190
2079	21094	Some million shares changed hands on the New York Stock.	Some million shares changed hands on the New York Stock.	1005199	1471960940756	1471960940852		16
2079	21094	Some million shares changed hands on the New York Stock.	Some million shares changed hands on the New York Stock.	1005201	1471960941044	1471960941188		79
2079	21094	Some million shares changed hands on the New York Stock.	Some million shares changed hands on the New York Stock.	1005203	1471960941125	1471960941276		77
2079	21094	Some million shares changed hands on the New York Stock.	Some million shares changed hands on the New York Stock.	1005205	1471960941262	1471960941325		69
2079	21094	Some million shares changed hands on the New York Stock.	Some million shares changed hands on the New York Stock.	1005243	1471960941308	1471960941460		32
2079	21094	Some million shares changed hands on the New York Stock.	Some million shares changed hands on the New York Stock.	1005246	1471960941404	1471960941600		77
2079	21094	Some million shares changed hands on the New York Stock.	Some million shares changed hands on the New York Stock.	1005249	1471960941518	1471960941650		73
2079	21094	Some million shares changed hands on the New York Stock.	Some million shares changed hands on the New York Stock.	1005253	1471960941636	1471960941662		76
2079	21094	Some million shares changed hands on the New York Stock.	Some million shares changed hands on the New York Stock.	1005259	1471960941734	1471960941816		76
2079	21094	Some million shares changed hands on the New York Stock.	Some million shares changed hands on the New York Stock.	1005265	1471960941861	1471960942031		73
2079	21094	Some million shares changed hands on the New York Stock.	Some million shares changed hands on the New York Stock.	1005306	1471960942005	1471960942172		79
2079	21094	Some million shares changed hands on the New York Stock.	Some million shares changed hands on the New York Stock.	1005308	1471960942108	1471960942392		78
2079	21094	Some million shares changed hands on the New York Stock.	Some million shares changed hands on the New York Stock.	1005311	1471960942259	1471960942408		32
2079	21094	Some million shares changed hands on the New York Stock.	Some million shares changed hands on the New York Stock.	1005312	1471960942448	1471960942533		83
2079	21094	Some million shares changed hands on the New York Stock.	Some million shares changed hands on the New York Stock.	1005313	1471960942493	1471960942587		72
2079	21094	Some million shares changed hands on the New York Stock.	Some million shares changed hands on the New York Stock.	1005314	1471960942703	1471960942742		65
2079	21094	Some million shares changed hands on the New York Stock.	Some million shares changed hands on the New York Stock.	1005338	1471960942788	1471960942956		69
2079	21094	Some million shares changed hands on the New York Stock.	Some million shares changed hands on the New York Stock.	1005340	1471960942906	1471960943035		83
2079	21094	Some million shares changed hands on the New York Stock.	Some million shares changed hands on the New York Stock.	1005342	1471960943054	1471960943232		32
2079	21094	Some million shares changed hands on the New York Stock.	Some million shares changed hands on the New York Stock.	1005344	1471960943244	1471960943322		67
2079	21094	Some million shares changed hands on the New York Stock.	Some million shares changed hands on the New York Stock.	1005384	1471960943306	1471960943399		72
2079	21094	Some million shares changed hands on the New York Stock.	Some million shares changed hands on the New York Stock.	1005385	1471960943413	1471960943527		65
2079	21094	Some million shares changed hands on the New York Stock.	Some million shares changed hands on the New York Stock.	1005386	1471960943511	1471960943574		78
2079	21094	Some million shares changed hands on the New York Stock.	Some million shares changed hands on the New York Stock.	1005387	1471960943629	1471960943740		71
2079	21094	Some million shares changed hands on the New York Stock.	Some million shares changed hands on the New York Stock.	1005388	1471960943700	1471960943804		69
2079	21094	Some million shares changed hands on the New York Stock.	Some million shares changed hands on the New York Stock.	1005389	1471960943915	1471960943972		68
2079	21094	Some million shares changed hands on the New York Stock.	Some million shares changed hands on the New York Stock.	1005420	1471960943960	1471960944084		32
2079	21094	Some million shares changed hands on the New York Stock.	Some million shares changed hands on the New York Stock.	1005425	1471960944077	1471960944172		72
2079	21094	Some million shares changed hands on the New York Stock.	Some million shares changed hands on the New York Stock.	1005428	1471960944164	1471960944265		65
2079	21094	Some million shares changed hands on the New York Stock.	Some million shares changed hands on the New York Stock.	1005431	1471960944290	1471960944380		78
2079	21094	Some million shares changed hands on the New York Stock.	Some million shares changed hands on the New York Stock.	1005433	1471960944388	1471960944543		68
2079	21094	Some million shares changed hands on the New York Stock.	Some million shares changed hands on the New York Stock.	1005449	1471960944477	1471960944596		83
2079	21094	Some million shares changed hands on the New York Stock.	Some million shares changed hands on the New York Stock.	1005455	1471960944564	1471960944700		32
2079	21094	Some million shares changed hands on the New York Stock.	Some million shares changed hands on the New York Stock.	1005464	1471960944679	1471960944803		79
2079	21094	Some million shares changed hands on the New York Stock.	Some million shares changed hands on the New York Stock.	1005469	1471960944749	1471960944868		78
2079	21094	Some million shares changed hands on the New York Stock.	Some million shares changed hands on the New York Stock.	1005476	1471960944828	1471960944916		32
2079	21094	Some million shares changed hands on the New York Stock.	Some million shares changed hands on the New York Stock.	1005499	1471960944892	1471960944964		84
2079	21094	Some million shares changed hands on the New York Stock.	Some million shares changed hands on the New York Stock.	1005505	1471960945020	1471960945159		72
2079	21094	Some million shares changed hands on the New York Stock.	Some million shares changed hands on the New York Stock.	1005502	1471960945044	1471960945125		69
2079	21094	Some million shares changed hands on the New York Stock.	Some million shares changed hands on the New York Stock.	1005506	1471960945132	1471960945228		32
2079	21094	Some million shares changed hands on the New York Stock.	Some million shares changed hands on the New York Stock.	1005510	1471960945268	1471960945407	SHIFT	16
2079	21094	Some million shares changed hands on the New York Stock.	Some million shares changed hands on the New York Stock.	1005511	1471960945348	1471960945436		78
2079	21094	Some million shares changed hands on the New York Stock.	Some million shares changed hands on the New York Stock.	1005514	1471960945641	1471960945790		69
2079	21094	Some million shares changed hands on the New York Stock.	Some million shares changed hands on the New York Stock.	1005544	1471960945748	1471960945892		87
2079	21094	Some million shares changed hands on the New York Stock.	Some million shares changed hands on the New York Stock.	1005546	1471960945908	1471960946006		32
2079	21094	Some million shares changed hands on the New York Stock.	Some million shares changed hands on the New York Stock.	1005549	1471960946068	1471960946189	SHIFT	16
2079	21094	Some million shares changed hands on the New York Stock.	Some million shares changed hands on the New York Stock.	1005553	1471960946119	1471960946190		89
2079	21094	Some million shares changed hands on the New York Stock.	Some million shares changed hands on the New York Stock.	1005557	1471960946257	1471960946357		79
2079	21094	Some million shares changed hands on the New York Stock.	Some million shares changed hands on the New York Stock.	1005561	1471960946389	1471960946459		82
2079	21094	Some million shares changed hands on the New York Stock.	Some million shares changed hands on the New York Stock.	1005565	1471960946508	1471960946644		75
2079	21094	Some million shares changed hands on the New York Stock.	Some million shares changed hands on the New York Stock.	1005588	1471960946628	1471960946715		32
2079	21094	Some million shares changed hands on the New York Stock.	Some million shares changed hands on the New York Stock.	1005591	1471960946796	1471960946920	SHIFT	16
2079	21094	Some million shares changed hands on the New York Stock.	Some million shares changed hands on the New York Stock.	1005594	1471960946844	1471960946924		83
2079	21094	Some million shares changed hands on the New York Stock.	Some million shares changed hands on the New York Stock.	1005597	1471960946996	1471960947056		84
2079	21094	Some million shares changed hands on the New York Stock.	Some million shares changed hands on the New York Stock.	1005600	1471960947092	1471960947188		79
2079	21094	Some million shares changed hands on the New York Stock.	Some million shares changed hands on the New York Stock.	1005603	1471960947276	1471960947363		67
2079	21094	Some million shares changed hands on the New York Stock.	Some million shares changed hands on the New York Stock.	1005610	1471960947340	1471960947404		75
2079	21094	Some million shares changed hands on the New York Stock.	Some million shares changed hands on the New York Stock.	1005612	1471960947520	1471960947596		190
2079	21103	Your best bet is to drop him and go after another.	Your best bet is to drop him and go after another.	1005818	1471960951260	1471960951359	SHIFT	16
2079	21103	Your best bet is to drop him and go after another.	Your best bet is to drop him and go after another.	1005821	1471960951315	1471960951364		89
2079	21103	Your best bet is to drop him and go after another.	Your best bet is to drop him and go after another.	1005824	1471960951460	1471960951588		79
2079	21103	Your best bet is to drop him and go after another.	Your best bet is to drop him and go after another.	1005825	1471960951500	1471960951670		85
2079	21103	Your best bet is to drop him and go after another.	Your best bet is to drop him and go after another.	1005829	1471960951622	1471960951702		82
2079	21103	Your best bet is to drop him and go after another.	Your best bet is to drop him and go after another.	1005832	1471960951770	1471960951868		32
2079	21103	Your best bet is to drop him and go after another.	Your best bet is to drop him and go after another.	1005856	1471960951888	1471960951978		66
2079	21103	Your best bet is to drop him and go after another.	Your best bet is to drop him and go after another.	1005858	1471960952166	1471960952332		69
2079	21103	Your best bet is to drop him and go after another.	Your best bet is to drop him and go after another.	1005861	1471960952244	1471960952364		83
2079	21103	Your best bet is to drop him and go after another.	Your best bet is to drop him and go after another.	1005865	1471960952342	1471960952428		84
2079	21103	Your best bet is to drop him and go after another.	Your best bet is to drop him and go after another.	1005868	1471960952468	1471960952596		32
2079	21103	Your best bet is to drop him and go after another.	Your best bet is to drop him and go after another.	1005911	1471960952759	1471960952844		66
2079	21103	Your best bet is to drop him and go after another.	Your best bet is to drop him and go after another.	1005916	1471960953024	1471960953115		69
2079	21103	Your best bet is to drop him and go after another.	Your best bet is to drop him and go after another.	1005922	1471960953076	1471960953195		84
2079	21103	Your best bet is to drop him and go after another.	Your best bet is to drop him and go after another.	1005926	1471960953206	1471960953332		32
2079	21103	Your best bet is to drop him and go after another.	Your best bet is to drop him and go after another.	1005956	1471960953284	1471960953423		73
2079	21103	Your best bet is to drop him and go after another.	Your best bet is to drop him and go after another.	1005962	1471960953389	1471960953471		83
2079	21103	Your best bet is to drop him and go after another.	Your best bet is to drop him and go after another.	1005966	1471960953476	1471960953590		32
2079	21103	Your best bet is to drop him and go after another.	Your best bet is to drop him and go after another.	1005974	1471960953580	1471960953660		84
2079	21103	Your best bet is to drop him and go after another.	Your best bet is to drop him and go after another.	1005977	1471960953672	1471960953804		79
2079	21103	Your best bet is to drop him and go after another.	Your best bet is to drop him and go after another.	1005995	1471960953759	1471960953887		32
2079	21103	Your best bet is to drop him and go after another.	Your best bet is to drop him and go after another.	1005999	1471960953844	1471960953930		68
2079	21103	Your best bet is to drop him and go after another.	Your best bet is to drop him and go after another.	1006005	1471960953996	1471960954089		82
2079	21103	Your best bet is to drop him and go after another.	Your best bet is to drop him and go after another.	1006010	1471960954087	1471960954220		79
2079	21103	Your best bet is to drop him and go after another.	Your best bet is to drop him and go after another.	1006015	1471960954156	1471960954303		80
2079	21103	Your best bet is to drop him and go after another.	Your best bet is to drop him and go after another.	1006032	1471960954267	1471960954396		32
2079	21103	Your best bet is to drop him and go after another.	Your best bet is to drop him and go after another.	1006034	1471960954340	1471960954455		72
2079	21103	Your best bet is to drop him and go after another.	Your best bet is to drop him and go after another.	1006038	1471960954460	1471960954628		73
2079	21103	Your best bet is to drop him and go after another.	Your best bet is to drop him and go after another.	1006042	1471960954572	1471960954735		77
2079	21103	Your best bet is to drop him and go after another.	Your best bet is to drop him and go after another.	1006046	1471960954670	1471960954780		32
2079	21103	Your best bet is to drop him and go after another.	Your best bet is to drop him and go after another.	1006059	1471960954772	1471960954860		65
2079	21103	Your best bet is to drop him and go after another.	Your best bet is to drop him and go after another.	1006061	1471960954861	1471960955004		78
2079	21103	Your best bet is to drop him and go after another.	Your best bet is to drop him and go after another.	1006065	1471960954951	1471960955036		68
2079	21103	Your best bet is to drop him and go after another.	Your best bet is to drop him and go after another.	1006069	1471960955012	1471960955102		32
2079	21103	Your best bet is to drop him and go after another.	Your best bet is to drop him and go after another.	1006073	1471960955140	1471960955205		71
2079	21103	Your best bet is to drop him and go after another.	Your best bet is to drop him and go after another.	1006105	1471960955196	1471960955323		79
2079	21103	Your best bet is to drop him and go after another.	Your best bet is to drop him and go after another.	1006108	1471960955276	1471960955411		32
2079	21103	Your best bet is to drop him and go after another.	Your best bet is to drop him and go after another.	1006113	1471960955372	1471960955501		65
2079	21103	Your best bet is to drop him and go after another.	Your best bet is to drop him and go after another.	1006119	1471960955476	1471960955568		70
2079	21103	Your best bet is to drop him and go after another.	Your best bet is to drop him and go after another.	1006125	1471960955652	1471960955718		84
2079	21103	Your best bet is to drop him and go after another.	Your best bet is to drop him and go after another.	1006132	1471960955800	1471960955923		69
2079	21103	Your best bet is to drop him and go after another.	Your best bet is to drop him and go after another.	1006144	1471960955878	1471960955991		82
2079	21103	Your best bet is to drop him and go after another.	Your best bet is to drop him and go after another.	1006150	1471960955980	1471960956067		32
2079	21103	Your best bet is to drop him and go after another.	Your best bet is to drop him and go after another.	1006155	1471960956044	1471960956166		65
2079	21103	Your best bet is to drop him and go after another.	Your best bet is to drop him and go after another.	1006158	1471960956148	1471960956268		78
2079	21103	Your best bet is to drop him and go after another.	Your best bet is to drop him and go after another.	1006161	1471960956215	1471960956340		79
2079	21103	Your best bet is to drop him and go after another.	Your best bet is to drop him and go after another.	1006175	1471960956284	1471960956365		84
2079	21103	Your best bet is to drop him and go after another.	Your best bet is to drop him and go after another.	1006179	1471960956388	1471960956487		72
2079	21103	Your best bet is to drop him and go after another.	Your best bet is to drop him and go after another.	1006184	1471960956476	1471960956598		69
2079	21103	Your best bet is to drop him and go after another.	Your best bet is to drop him and go after another.	1006190	1471960956556	1471960956676		82
2079	21103	Your best bet is to drop him and go after another.	Your best bet is to drop him and go after another.	1006195	1471960956652	1471960956731		190
2079	21115	Sorry to keep you in suspense!	Sorry to keep you in suspense!	1006306	1471960959580	1471960959683	SHIFT	16
2079	21115	Sorry to keep you in suspense!	Sorry to keep you in suspense!	1006311	1471960959628	1471960959717		83
2079	21115	Sorry to keep you in suspense!	Sorry to keep you in suspense!	1006314	1471960959812	1471960959891		79
2079	21115	Sorry to keep you in suspense!	Sorry to keep you in suspense!	1006320	1471960959912	1471960959963		82
2079	21115	Sorry to keep you in suspense!	Sorry to keep you in suspense!	1006324	1471960960044	1471960960123		82
2079	21115	Sorry to keep you in suspense!	Sorry to keep you in suspense!	1006328	1471960960132	1471960960276		89
2079	21115	Sorry to keep you in suspense!	Sorry to keep you in suspense!	1006335	1471960960213	1471960960339		32
2079	21115	Sorry to keep you in suspense!	Sorry to keep you in suspense!	1006340	1471960960316	1471960960389		84
2079	21115	Sorry to keep you in suspense!	Sorry to keep you in suspense!	1006343	1471960960396	1471960960563		79
2079	21115	Sorry to keep you in suspense!	Sorry to keep you in suspense!	1006347	1471960960492	1471960960621		32
2079	21115	Sorry to keep you in suspense!	Sorry to keep you in suspense!	1006348	1471960960572	1471960960707		75
2079	21115	Sorry to keep you in suspense!	Sorry to keep you in suspense!	1006364	1471960960692	1471960960755		69
2079	21115	Sorry to keep you in suspense!	Sorry to keep you in suspense!	1006368	1471960960839	1471960960931		69
2079	21115	Sorry to keep you in suspense!	Sorry to keep you in suspense!	1006373	1471960960917	1471960961021		80
2079	21115	Sorry to keep you in suspense!	Sorry to keep you in suspense!	1006378	1471960960996	1471960961123		32
2079	21115	Sorry to keep you in suspense!	Sorry to keep you in suspense!	1006383	1471960961071	1471960961171		89
2079	21115	Sorry to keep you in suspense!	Sorry to keep you in suspense!	1006390	1471960961212	1471960961335		79
2079	21115	Sorry to keep you in suspense!	Sorry to keep you in suspense!	1006408	1471960961292	1471960961396		85
2079	21115	Sorry to keep you in suspense!	Sorry to keep you in suspense!	1006414	1471960961356	1471960961491		32
2079	21115	Sorry to keep you in suspense!	Sorry to keep you in suspense!	1006422	1471960961486	1471960961656		73
2079	21115	Sorry to keep you in suspense!	Sorry to keep you in suspense!	1006428	1471960961572	1471960961723		78
2079	21115	Sorry to keep you in suspense!	Sorry to keep you in suspense!	1006436	1471960961668	1471960961775		32
2079	21115	Sorry to keep you in suspense!	Sorry to keep you in suspense!	1006456	1471960961772	1471960961844		83
2079	21115	Sorry to keep you in suspense!	Sorry to keep you in suspense!	1006460	1471960961869	1471960961955		85
2079	21115	Sorry to keep you in suspense!	Sorry to keep you in suspense!	1006461	1471960961972	1471960962059		83
2079	21115	Sorry to keep you in suspense!	Sorry to keep you in suspense!	1006464	1471960962102	1471960962196		80
2079	21115	Sorry to keep you in suspense!	Sorry to keep you in suspense!	1006465	1471960962212	1471960962284		69
2079	21115	Sorry to keep you in suspense!	Sorry to keep you in suspense!	1006468	1471960962336	1471960962419		78
2079	21115	Sorry to keep you in suspense!	Sorry to keep you in suspense!	1006501	1471960962468	1471960962604		83
2079	21115	Sorry to keep you in suspense!	Sorry to keep you in suspense!	1006505	1471960962572	1471960962644		69
2079	21115	Sorry to keep you in suspense!	Sorry to keep you in suspense!	1006518	1471960962708	1471960962933	SHIFT	16
2079	21115	Sorry to keep you in suspense!	Sorry to keep you in suspense!	1006511	1471960962804	1471960962867		49
2079	21122	I was going to call you but I hate to bother your holiday.	I was going to call you but I hate to bother your holiday.	1006594	1471960964829	1471960964948	SHIFT	16
2079	21122	I was going to call you but I hate to bother your holiday.	I was going to call you but I hate to bother your holiday.	1006596	1471960964868	1471960964955		73
2079	21122	I was going to call you but I hate to bother your holiday.	I was going to call you but I hate to bother your holiday.	1006601	1471960965020	1471960965128		32
2079	21122	I was going to call you but I hate to bother your holiday.	I was going to call you but I hate to bother your holiday.	1006605	1471960965100	1471960965212		87
2079	21122	I was going to call you but I hate to bother your holiday.	I was going to call you but I hate to bother your holiday.	1006608	1471960965180	1471960965333		65
2079	21122	I was going to call you but I hate to bother your holiday.	I was going to call you but I hate to bother your holiday.	1006626	1471960965293	1471960965403		83
2079	21122	I was going to call you but I hate to bother your holiday.	I was going to call you but I hate to bother your holiday.	1006628	1471960965388	1471960965494		32
2079	21122	I was going to call you but I hate to bother your holiday.	I was going to call you but I hate to bother your holiday.	1006632	1471960965532	1471960965604		71
2079	21122	I was going to call you but I hate to bother your holiday.	I was going to call you but I hate to bother your holiday.	1006637	1471960965620	1471960965758		79
2079	21122	I was going to call you but I hate to bother your holiday.	I was going to call you but I hate to bother your holiday.	1006643	1471960965692	1471960965860		73
2079	21122	I was going to call you but I hate to bother your holiday.	I was going to call you but I hate to bother your holiday.	1006664	1471960965764	1471960965943		78
2079	21122	I was going to call you but I hate to bother your holiday.	I was going to call you but I hate to bother your holiday.	1006657	1471960965828	1471960965920		71
2079	21122	I was going to call you but I hate to bother your holiday.	I was going to call you but I hate to bother your holiday.	1006669	1471960965868	1471960966005		32
2079	21122	I was going to call you but I hate to bother your holiday.	I was going to call you but I hate to bother your holiday.	1006672	1471960966004	1471960966075		84
2079	21122	I was going to call you but I hate to bother your holiday.	I was going to call you but I hate to bother your holiday.	1006675	1471960966091	1471960966236		79
2079	21122	I was going to call you but I hate to bother your holiday.	I was going to call you but I hate to bother your holiday.	1006677	1471960966163	1471960966299		32
2079	21122	I was going to call you but I hate to bother your holiday.	I was going to call you but I hate to bother your holiday.	1006681	1471960966268	1471960966411		67
2079	21122	I was going to call you but I hate to bother your holiday.	I was going to call you but I hate to bother your holiday.	1006685	1471960966363	1471960966491		65
2079	21122	I was going to call you but I hate to bother your holiday.	I was going to call you but I hate to bother your holiday.	1006683	1471960966419	1471960966483		76
2079	21122	I was going to call you but I hate to bother your holiday.	I was going to call you but I hate to bother your holiday.	1006688	1471960966564	1471960966637		76
2079	21122	I was going to call you but I hate to bother your holiday.	I was going to call you but I hate to bother your holiday.	1006691	1471960966649	1471960966773		32
2079	21122	I was going to call you but I hate to bother your holiday.	I was going to call you but I hate to bother your holiday.	1006702	1471960966760	1471960966827		89
2079	21122	I was going to call you but I hate to bother your holiday.	I was going to call you but I hate to bother your holiday.	1006705	1471960966838	1471960966987		79
2079	21122	I was going to call you but I hate to bother your holiday.	I was going to call you but I hate to bother your holiday.	1006708	1471960966925	1471960967066		85
2079	21122	I was going to call you but I hate to bother your holiday.	I was going to call you but I hate to bother your holiday.	1006712	1471960966975	1471960967108		32
2079	21122	I was going to call you but I hate to bother your holiday.	I was going to call you but I hate to bother your holiday.	1006716	1471960967079	1471960967155		66
2079	21122	I was going to call you but I hate to bother your holiday.	I was going to call you but I hate to bother your holiday.	1006719	1471960967174	1471960967291		85
2079	21122	I was going to call you but I hate to bother your holiday.	I was going to call you but I hate to bother your holiday.	1006754	1471960967278	1471960967355		84
2079	21122	I was going to call you but I hate to bother your holiday.	I was going to call you but I hate to bother your holiday.	1006757	1471960967379	1471960967528		32
2079	21122	I was going to call you but I hate to bother your holiday.	I was going to call you but I hate to bother your holiday.	1006760	1471960967645	1471960967779	SHIFT	16
2079	21122	I was going to call you but I hate to bother your holiday.	I was going to call you but I hate to bother your holiday.	1006763	1471960967709	1471960967795		73
2079	21122	I was going to call you but I hate to bother your holiday.	I was going to call you but I hate to bother your holiday.	1006767	1471960967843	1471960967979		32
2079	21122	I was going to call you but I hate to bother your holiday.	I was going to call you but I hate to bother your holiday.	1006771	1471960967948	1471960968054		72
2079	21122	I was going to call you but I hate to bother your holiday.	I was going to call you but I hate to bother your holiday.	1006776	1471960968063	1471960968188		65
2079	21122	I was going to call you but I hate to bother your holiday.	I was going to call you but I hate to bother your holiday.	1006784	1471960968179	1471960968325		84
2079	21122	I was going to call you but I hate to bother your holiday.	I was going to call you but I hate to bother your holiday.	1006787	1471960968287	1471960968379		69
2079	21122	I was going to call you but I hate to bother your holiday.	I was going to call you but I hate to bother your holiday.	1006790	1471960968363	1471960968459		32
2079	21122	I was going to call you but I hate to bother your holiday.	I was going to call you but I hate to bother your holiday.	1006792	1471960968470	1471960968547		84
2079	21122	I was going to call you but I hate to bother your holiday.	I was going to call you but I hate to bother your holiday.	1006797	1471960968556	1471960968691		79
2079	21122	I was going to call you but I hate to bother your holiday.	I was going to call you but I hate to bother your holiday.	1006820	1471960968653	1471960968785		32
2079	21122	I was going to call you but I hate to bother your holiday.	I was going to call you but I hate to bother your holiday.	1006825	1471960968788	1471960968843		66
2079	21122	I was going to call you but I hate to bother your holiday.	I was going to call you but I hate to bother your holiday.	1006831	1471960968887	1471960968988		79
2079	21122	I was going to call you but I hate to bother your holiday.	I was going to call you but I hate to bother your holiday.	1006837	1471960969035	1471960969091		84
2079	21122	I was going to call you but I hate to bother your holiday.	I was going to call you but I hate to bother your holiday.	1006842	1471960969118	1471960969195		72
2079	21122	I was going to call you but I hate to bother your holiday.	I was going to call you but I hate to bother your holiday.	1006846	1471960969211	1471960969339		69
2079	21122	I was going to call you but I hate to bother your holiday.	I was going to call you but I hate to bother your holiday.	1006854	1471960969294	1471960969411		82
2079	21122	I was going to call you but I hate to bother your holiday.	I was going to call you but I hate to bother your holiday.	1006858	1471960969383	1471960969523		32
2079	21122	I was going to call you but I hate to bother your holiday.	I was going to call you but I hate to bother your holiday.	1006865	1471960969467	1471960969571		89
2079	21122	I was going to call you but I hate to bother your holiday.	I was going to call you but I hate to bother your holiday.	1006870	1471960969599	1471960969739		79
2079	21122	I was going to call you but I hate to bother your holiday.	I was going to call you but I hate to bother your holiday.	1006873	1471960969668	1471960969803		85
2079	21122	I was going to call you but I hate to bother your holiday.	I was going to call you but I hate to bother your holiday.	1006889	1471960969756	1471960969843		82
2079	21122	I was going to call you but I hate to bother your holiday.	I was going to call you but I hate to bother your holiday.	1006891	1471960969876	1471960969998		32
2079	21122	I was going to call you but I hate to bother your holiday.	I was going to call you but I hate to bother your holiday.	1006895	1471960969934	1471960970075		72
2079	21122	I was going to call you but I hate to bother your holiday.	I was going to call you but I hate to bother your holiday.	1006897	1471960970003	1471960970108		79
2079	21122	I was going to call you but I hate to bother your holiday.	I was going to call you but I hate to bother your holiday.	1006901	1471960970187	1471960970299		76
2079	21122	I was going to call you but I hate to bother your holiday.	I was going to call you but I hate to bother your holiday.	1006918	1471960970251	1471960970387		73
2079	21122	I was going to call you but I hate to bother your holiday.	I was going to call you but I hate to bother your holiday.	1006920	1471960970419	1471960970547		68
2079	21122	I was going to call you but I hate to bother your holiday.	I was going to call you but I hate to bother your holiday.	1006922	1471960970508	1471960970683		65
2079	21122	I was going to call you but I hate to bother your holiday.	I was going to call you but I hate to bother your holiday.	1006925	1471960970588	1471960970687		89
2079	21122	I was going to call you but I hate to bother your holiday.	I was going to call you but I hate to bother your holiday.	1006928	1471960970807	1471960970876		190
2079	21128	Expect much better numbers on James  home turf this week.	Expect much better numbers on James  home turf this week.	1007114	1471960974107	1471960974256	SHIFT	16
2079	21128	Expect much better numbers on James  home turf this week.	Expect much better numbers on James  home turf this week.	1007113	1471960974148	1471960974207		69
2079	21128	Expect much better numbers on James  home turf this week.	Expect much better numbers on James  home turf this week.	1007117	1471960974339	1471960974427		88
2079	21128	Expect much better numbers on James  home turf this week.	Expect much better numbers on James  home turf this week.	1007120	1471960974475	1471960974564		80
2079	21128	Expect much better numbers on James  home turf this week.	Expect much better numbers on James  home turf this week.	1007122	1471960974588	1471960974656		69
2079	21128	Expect much better numbers on James  home turf this week.	Expect much better numbers on James  home turf this week.	1007125	1471960974707	1471960974787		67
2079	21128	Expect much better numbers on James  home turf this week.	Expect much better numbers on James  home turf this week.	1007165	1471960974903	1471960974955		84
2079	21128	Expect much better numbers on James  home turf this week.	Expect much better numbers on James  home turf this week.	1007167	1471960975011	1471960975115		32
2079	21128	Expect much better numbers on James  home turf this week.	Expect much better numbers on James  home turf this week.	1007170	1471960975076	1471960975157		77
2079	21128	Expect much better numbers on James  home turf this week.	Expect much better numbers on James  home turf this week.	1007171	1471960975259	1471960975318		85
2079	21128	Expect much better numbers on James  home turf this week.	Expect much better numbers on James  home turf this week.	1007172	1471960975371	1471960975436		67
2079	21128	Expect much better numbers on James  home turf this week.	Expect much better numbers on James  home turf this week.	1007201	1471960975443	1471960975571		72
2079	21128	Expect much better numbers on James  home turf this week.	Expect much better numbers on James  home turf this week.	1007204	1471960975523	1471960975653		32
2079	21128	Expect much better numbers on James  home turf this week.	Expect much better numbers on James  home turf this week.	1007209	1471960975660	1471960975755		66
2079	21128	Expect much better numbers on James  home turf this week.	Expect much better numbers on James  home turf this week.	1007212	1471960975739	1471960975827		69
2079	21128	Expect much better numbers on James  home turf this week.	Expect much better numbers on James  home turf this week.	1007218	1471960975918	1471960975971		84
2079	21128	Expect much better numbers on James  home turf this week.	Expect much better numbers on James  home turf this week.	1007236	1471960976052	1471960976107		84
2079	21128	Expect much better numbers on James  home turf this week.	Expect much better numbers on James  home turf this week.	1007240	1471960976172	1471960976275		69
2079	21128	Expect much better numbers on James  home turf this week.	Expect much better numbers on James  home turf this week.	1007244	1471960976228	1471960976336		82
2079	21128	Expect much better numbers on James  home turf this week.	Expect much better numbers on James  home turf this week.	1007252	1471960976323	1471960976427		32
2079	21128	Expect much better numbers on James  home turf this week.	Expect much better numbers on James  home turf this week.	1007273	1471960976396	1471960976475		78
2079	21128	Expect much better numbers on James  home turf this week.	Expect much better numbers on James  home turf this week.	1007275	1471960976583	1471960976643		85
2079	21128	Expect much better numbers on James  home turf this week.	Expect much better numbers on James  home turf this week.	1007279	1471960976756	1471960976819		77
2079	21128	Expect much better numbers on James  home turf this week.	Expect much better numbers on James  home turf this week.	1007281	1471960976827	1471960976891		66
2079	21128	Expect much better numbers on James  home turf this week.	Expect much better numbers on James  home turf this week.	1007284	1471960977015	1471960977139		69
2079	21128	Expect much better numbers on James  home turf this week.	Expect much better numbers on James  home turf this week.	1007309	1471960977083	1471960977251		82
2079	21128	Expect much better numbers on James  home turf this week.	Expect much better numbers on James  home turf this week.	1007316	1471960977227	1471960977350		83
2079	21128	Expect much better numbers on James  home turf this week.	Expect much better numbers on James  home turf this week.	1007323	1471960977364	1471960977514		32
2079	21128	Expect much better numbers on James  home turf this week.	Expect much better numbers on James  home turf this week.	1007330	1471960977512	1471960977681		79
2079	21128	Expect much better numbers on James  home turf this week.	Expect much better numbers on James  home turf this week.	1007336	1471960977666	1471960977764		78
2079	21128	Expect much better numbers on James  home turf this week.	Expect much better numbers on James  home turf this week.	1007363	1471960977715	1471960977847		32
2079	21128	Expect much better numbers on James  home turf this week.	Expect much better numbers on James  home turf this week.	1007366	1471960977955	1471960978051	SHIFT	16
2079	21128	Expect much better numbers on James  home turf this week.	Expect much better numbers on James  home turf this week.	1007370	1471960977996	1471960978085		74
2079	21128	Expect much better numbers on James  home turf this week.	Expect much better numbers on James  home turf this week.	1007374	1471960978184	1471960978284		65
2079	21128	Expect much better numbers on James  home turf this week.	Expect much better numbers on James  home turf this week.	1007379	1471960978301	1471960978387		77
2079	21128	Expect much better numbers on James  home turf this week.	Expect much better numbers on James  home turf this week.	1007384	1471960978406	1471960978555		69
2079	21128	Expect much better numbers on James  home turf this week.	Expect much better numbers on James  home turf this week.	1007446	1471960978484	1471960978603		83
2079	21128	Expect much better numbers on James  home turf this week.	Expect much better numbers on James  home turf this week.	1007451	1471960978619	1471960978747		32
2079	21128	Expect much better numbers on James  home turf this week.	Expect much better numbers on James  home turf this week.	1007456	1471960979211	1471960979293		32
2079	21128	Expect much better numbers on James  home turf this week.	Expect much better numbers on James  home turf this week.	1007462	1471960979561	1471960979611		72
2079	21128	Expect much better numbers on James  home turf this week.	Expect much better numbers on James  home turf this week.	1007468	1471960979763	1471960979883		79
2079	21128	Expect much better numbers on James  home turf this week.	Expect much better numbers on James  home turf this week.	1007503	1471960979877	1471960979995		77
2079	21128	Expect much better numbers on James  home turf this week.	Expect much better numbers on James  home turf this week.	1007505	1471960980051	1471960980141		69
2079	21128	Expect much better numbers on James  home turf this week.	Expect much better numbers on James  home turf this week.	1007510	1471960980358	1471960980476		32
2079	21128	Expect much better numbers on James  home turf this week.	Expect much better numbers on James  home turf this week.	1007515	1471960980547	1471960980608		84
2079	21128	Expect much better numbers on James  home turf this week.	Expect much better numbers on James  home turf this week.	1007520	1471960980652	1471960980715		85
2079	21128	Expect much better numbers on James  home turf this week.	Expect much better numbers on James  home turf this week.	1007525	1471960980740	1471960980811		82
2079	21128	Expect much better numbers on James  home turf this week.	Expect much better numbers on James  home turf this week.	1007563	1471960980859	1471960980907		78
2079	21128	Expect much better numbers on James  home turf this week.	Expect much better numbers on James  home turf this week.	1007566	1471960981211	1471960981259		8
2079	21128	Expect much better numbers on James  home turf this week.	Expect much better numbers on James  home turf this week.	1007570	1471960981323	1471960981399		70
2079	21128	Expect much better numbers on James  home turf this week.	Expect much better numbers on James  home turf this week.	1007576	1471960981422	1471960981491		32
2079	21128	Expect much better numbers on James  home turf this week.	Expect much better numbers on James  home turf this week.	1007582	1471960981507	1471960981571		84
2079	21128	Expect much better numbers on James  home turf this week.	Expect much better numbers on James  home turf this week.	1007601	1471960981608	1471960981731		72
2079	21128	Expect much better numbers on James  home turf this week.	Expect much better numbers on James  home turf this week.	1007604	1471960981675	1471960981820		73
2079	21128	Expect much better numbers on James  home turf this week.	Expect much better numbers on James  home turf this week.	1007609	1471960981763	1471960981827		83
2079	21128	Expect much better numbers on James  home turf this week.	Expect much better numbers on James  home turf this week.	1007610	1471960981838	1471960981954		32
2079	21128	Expect much better numbers on James  home turf this week.	Expect much better numbers on James  home turf this week.	1007612	1471960981958	1471960982055		87
2079	21128	Expect much better numbers on James  home turf this week.	Expect much better numbers on James  home turf this week.	1007646	1471960982022	1471960982103		69
2079	21128	Expect much better numbers on James  home turf this week.	Expect much better numbers on James  home turf this week.	1007649	1471960982187	1471960982243		69
2079	21128	Expect much better numbers on James  home turf this week.	Expect much better numbers on James  home turf this week.	1007653	1471960982237	1471960982319		75
2079	21128	Expect much better numbers on James  home turf this week.	Expect much better numbers on James  home turf this week.	1007655	1471960982539	1471960982643		190
